
ynotag.elf:     file format elf32-littlearm

Sections:
Idx Name          Size      VMA       LMA       File off  Algn
  0 .isr_vector   000000bc  08000000  08000000  00001000  2**0
                  CONTENTS, ALLOC, LOAD, READONLY, DATA
  1 .text         00007f0c  080000bc  080000bc  000010bc  2**2
                  CONTENTS, ALLOC, LOAD, READONLY, CODE
  2 .rodata       0000084c  08007fc8  08007fc8  00008fc8  2**2
                  CONTENTS, ALLOC, LOAD, READONLY, DATA
  3 .ARM.extab    00000000  08008814  08008814  0000aa40  2**0
                  CONTENTS
  4 .ARM          00000008  08008814  08008814  00009814  2**2
                  CONTENTS, ALLOC, LOAD, READONLY, DATA
  5 .preinit_array 00000000  0800881c  0800881c  0000aa40  2**0
                  CONTENTS, ALLOC, LOAD, DATA
  6 .init_array   00000004  0800881c  0800881c  0000981c  2**2
                  CONTENTS, ALLOC, LOAD, READONLY, DATA
  7 .fini_array   00000004  08008820  08008820  00009820  2**2
                  CONTENTS, ALLOC, LOAD, READONLY, DATA
  8 .data         00000a40  20000000  08008824  0000a000  2**3
                  CONTENTS, ALLOC, LOAD, DATA
  9 .bss          0000063c  20000a40  08009264  0000aa40  2**3
                  ALLOC
 10 ._user_heap_stack 00000604  2000107c  08009264  0000b07c  2**0
                  ALLOC
 11 .ARM.attributes 00000028  00000000  00000000  0000aa40  2**0
                  CONTENTS, READONLY
 12 .debug_info   0001aacc  00000000  00000000  0000aa68  2**0
                  CONTENTS, READONLY, DEBUGGING, OCTETS
 13 .debug_abbrev 000032e9  00000000  00000000  00025534  2**0
                  CONTENTS, READONLY, DEBUGGING, OCTETS
 14 .debug_aranges 000017e8  00000000  00000000  00028820  2**3
                  CONTENTS, READONLY, DEBUGGING, OCTETS
 15 .debug_rnglists 00001313  00000000  00000000  0002a008  2**0
                  CONTENTS, READONLY, DEBUGGING, OCTETS
 16 .debug_macro  0001f3f4  00000000  00000000  0002b31b  2**0
                  CONTENTS, READONLY, DEBUGGING, OCTETS
 17 .debug_line   0001de84  00000000  00000000  0004a70f  2**0
                  CONTENTS, READONLY, DEBUGGING, OCTETS
 18 .debug_str    000ca21c  00000000  00000000  00068593  2**0
                  CONTENTS, READONLY, DEBUGGING, OCTETS
 19 .comment      00000086  00000000  00000000  001327af  2**0
                  CONTENTS, READONLY
 20 .debug_frame  00005f34  00000000  00000000  00132838  2**2
                  CONTENTS, READONLY, DEBUGGING, OCTETS
 21 .debug_line_str 00000085  00000000  00000000  0013876c  2**0
                  CONTENTS, READONLY, DEBUGGING, OCTETS

Disassembly of section .text:

080000bc <__do_global_dtors_aux>:
 80000bc:	b510      	push	{r4, lr}
 80000be:	4c06      	ldr	r4, [pc, #24]	@ (80000d8 <__do_global_dtors_aux+0x1c>)
 80000c0:	7823      	ldrb	r3, [r4, #0]
 80000c2:	2b00      	cmp	r3, #0
 80000c4:	d107      	bne.n	80000d6 <__do_global_dtors_aux+0x1a>
 80000c6:	4b05      	ldr	r3, [pc, #20]	@ (80000dc <__do_global_dtors_aux+0x20>)
 80000c8:	2b00      	cmp	r3, #0
 80000ca:	d002      	beq.n	80000d2 <__do_global_dtors_aux+0x16>
 80000cc:	4804      	ldr	r0, [pc, #16]	@ (80000e0 <__do_global_dtors_aux+0x24>)
 80000ce:	e000      	b.n	80000d2 <__do_global_dtors_aux+0x16>
 80000d0:	bf00      	nop
 80000d2:	2301      	movs	r3, #1
 80000d4:	7023      	strb	r3, [r4, #0]
 80000d6:	bd10      	pop	{r4, pc}
 80000d8:	20000a40 	.word	0x20000a40
 80000dc:	00000000 	.word	0x00000000
 80000e0:	08007fb0 	.word	0x08007fb0

080000e4 <frame_dummy>:
 80000e4:	4b04      	ldr	r3, [pc, #16]	@ (80000f8 <frame_dummy+0x14>)
 80000e6:	b510      	push	{r4, lr}
 80000e8:	2b00      	cmp	r3, #0
 80000ea:	d003      	beq.n	80000f4 <frame_dummy+0x10>
 80000ec:	4903      	ldr	r1, [pc, #12]	@ (80000fc <frame_dummy+0x18>)
 80000ee:	4804      	ldr	r0, [pc, #16]	@ (8000100 <frame_dummy+0x1c>)
 80000f0:	e000      	b.n	80000f4 <frame_dummy+0x10>
 80000f2:	bf00      	nop
 80000f4:	bd10      	pop	{r4, pc}
 80000f6:	46c0      	nop			@ (mov r8, r8)
 80000f8:	00000000 	.word	0x00000000
 80000fc:	20000a44 	.word	0x20000a44
 8000100:	08007fb0 	.word	0x08007fb0

08000104 <__gnu_thumb1_case_shi>:
 8000104:	b403      	push	{r0, r1}
 8000106:	4671      	mov	r1, lr
 8000108:	0849      	lsrs	r1, r1, #1
 800010a:	0040      	lsls	r0, r0, #1
 800010c:	0049      	lsls	r1, r1, #1
 800010e:	5e09      	ldrsh	r1, [r1, r0]
 8000110:	0049      	lsls	r1, r1, #1
 8000112:	448e      	add	lr, r1
 8000114:	bc03      	pop	{r0, r1}
 8000116:	4770      	bx	lr

08000118 <__udivsi3>:
 8000118:	2200      	movs	r2, #0
 800011a:	0843      	lsrs	r3, r0, #1
 800011c:	428b      	cmp	r3, r1
 800011e:	d374      	bcc.n	800020a <__udivsi3+0xf2>
 8000120:	0903      	lsrs	r3, r0, #4
 8000122:	428b      	cmp	r3, r1
 8000124:	d35f      	bcc.n	80001e6 <__udivsi3+0xce>
 8000126:	0a03      	lsrs	r3, r0, #8
 8000128:	428b      	cmp	r3, r1
 800012a:	d344      	bcc.n	80001b6 <__udivsi3+0x9e>
 800012c:	0b03      	lsrs	r3, r0, #12
 800012e:	428b      	cmp	r3, r1
 8000130:	d328      	bcc.n	8000184 <__udivsi3+0x6c>
 8000132:	0c03      	lsrs	r3, r0, #16
 8000134:	428b      	cmp	r3, r1
 8000136:	d30d      	bcc.n	8000154 <__udivsi3+0x3c>
 8000138:	22ff      	movs	r2, #255	@ 0xff
 800013a:	0209      	lsls	r1, r1, #8
 800013c:	ba12      	rev	r2, r2
 800013e:	0c03      	lsrs	r3, r0, #16
 8000140:	428b      	cmp	r3, r1
 8000142:	d302      	bcc.n	800014a <__udivsi3+0x32>
 8000144:	1212      	asrs	r2, r2, #8
 8000146:	0209      	lsls	r1, r1, #8
 8000148:	d065      	beq.n	8000216 <__udivsi3+0xfe>
 800014a:	0b03      	lsrs	r3, r0, #12
 800014c:	428b      	cmp	r3, r1
 800014e:	d319      	bcc.n	8000184 <__udivsi3+0x6c>
 8000150:	e000      	b.n	8000154 <__udivsi3+0x3c>
 8000152:	0a09      	lsrs	r1, r1, #8
 8000154:	0bc3      	lsrs	r3, r0, #15
 8000156:	428b      	cmp	r3, r1
 8000158:	d301      	bcc.n	800015e <__udivsi3+0x46>
 800015a:	03cb      	lsls	r3, r1, #15
 800015c:	1ac0      	subs	r0, r0, r3
 800015e:	4152      	adcs	r2, r2
 8000160:	0b83      	lsrs	r3, r0, #14
 8000162:	428b      	cmp	r3, r1
 8000164:	d301      	bcc.n	800016a <__udivsi3+0x52>
 8000166:	038b      	lsls	r3, r1, #14
 8000168:	1ac0      	subs	r0, r0, r3
 800016a:	4152      	adcs	r2, r2
 800016c:	0b43      	lsrs	r3, r0, #13
 800016e:	428b      	cmp	r3, r1
 8000170:	d301      	bcc.n	8000176 <__udivsi3+0x5e>
 8000172:	034b      	lsls	r3, r1, #13
 8000174:	1ac0      	subs	r0, r0, r3
 8000176:	4152      	adcs	r2, r2
 8000178:	0b03      	lsrs	r3, r0, #12
 800017a:	428b      	cmp	r3, r1
 800017c:	d301      	bcc.n	8000182 <__udivsi3+0x6a>
 800017e:	030b      	lsls	r3, r1, #12
 8000180:	1ac0      	subs	r0, r0, r3
 8000182:	4152      	adcs	r2, r2
 8000184:	0ac3      	lsrs	r3, r0, #11
 8000186:	428b      	cmp	r3, r1
 8000188:	d301      	bcc.n	800018e <__udivsi3+0x76>
 800018a:	02cb      	lsls	r3, r1, #11
 800018c:	1ac0      	subs	r0, r0, r3
 800018e:	4152      	adcs	r2, r2
 8000190:	0a83      	lsrs	r3, r0, #10
 8000192:	428b      	cmp	r3, r1
 8000194:	d301      	bcc.n	800019a <__udivsi3+0x82>
 8000196:	028b      	lsls	r3, r1, #10
 8000198:	1ac0      	subs	r0, r0, r3
 800019a:	4152      	adcs	r2, r2
 800019c:	0a43      	lsrs	r3, r0, #9
 800019e:	428b      	cmp	r3, r1
 80001a0:	d301      	bcc.n	80001a6 <__udivsi3+0x8e>
 80001a2:	024b      	lsls	r3, r1, #9
 80001a4:	1ac0      	subs	r0, r0, r3
 80001a6:	4152      	adcs	r2, r2
 80001a8:	0a03      	lsrs	r3, r0, #8
 80001aa:	428b      	cmp	r3, r1
 80001ac:	d301      	bcc.n	80001b2 <__udivsi3+0x9a>
 80001ae:	020b      	lsls	r3, r1, #8
 80001b0:	1ac0      	subs	r0, r0, r3
 80001b2:	4152      	adcs	r2, r2
 80001b4:	d2cd      	bcs.n	8000152 <__udivsi3+0x3a>
 80001b6:	09c3      	lsrs	r3, r0, #7
 80001b8:	428b      	cmp	r3, r1
 80001ba:	d301      	bcc.n	80001c0 <__udivsi3+0xa8>
 80001bc:	01cb      	lsls	r3, r1, #7
 80001be:	1ac0      	subs	r0, r0, r3
 80001c0:	4152      	adcs	r2, r2
 80001c2:	0983      	lsrs	r3, r0, #6
 80001c4:	428b      	cmp	r3, r1
 80001c6:	d301      	bcc.n	80001cc <__udivsi3+0xb4>
 80001c8:	018b      	lsls	r3, r1, #6
 80001ca:	1ac0      	subs	r0, r0, r3
 80001cc:	4152      	adcs	r2, r2
 80001ce:	0943      	lsrs	r3, r0, #5
 80001d0:	428b      	cmp	r3, r1
 80001d2:	d301      	bcc.n	80001d8 <__udivsi3+0xc0>
 80001d4:	014b      	lsls	r3, r1, #5
 80001d6:	1ac0      	subs	r0, r0, r3
 80001d8:	4152      	adcs	r2, r2
 80001da:	0903      	lsrs	r3, r0, #4
 80001dc:	428b      	cmp	r3, r1
 80001de:	d301      	bcc.n	80001e4 <__udivsi3+0xcc>
 80001e0:	010b      	lsls	r3, r1, #4
 80001e2:	1ac0      	subs	r0, r0, r3
 80001e4:	4152      	adcs	r2, r2
 80001e6:	08c3      	lsrs	r3, r0, #3
 80001e8:	428b      	cmp	r3, r1
 80001ea:	d301      	bcc.n	80001f0 <__udivsi3+0xd8>
 80001ec:	00cb      	lsls	r3, r1, #3
 80001ee:	1ac0      	subs	r0, r0, r3
 80001f0:	4152      	adcs	r2, r2
 80001f2:	0883      	lsrs	r3, r0, #2
 80001f4:	428b      	cmp	r3, r1
 80001f6:	d301      	bcc.n	80001fc <__udivsi3+0xe4>
 80001f8:	008b      	lsls	r3, r1, #2
 80001fa:	1ac0      	subs	r0, r0, r3
 80001fc:	4152      	adcs	r2, r2
 80001fe:	0843      	lsrs	r3, r0, #1
 8000200:	428b      	cmp	r3, r1
 8000202:	d301      	bcc.n	8000208 <__udivsi3+0xf0>
 8000204:	004b      	lsls	r3, r1, #1
 8000206:	1ac0      	subs	r0, r0, r3
 8000208:	4152      	adcs	r2, r2
 800020a:	1a41      	subs	r1, r0, r1
 800020c:	d200      	bcs.n	8000210 <__udivsi3+0xf8>
 800020e:	4601      	mov	r1, r0
 8000210:	4152      	adcs	r2, r2
 8000212:	4610      	mov	r0, r2
 8000214:	4770      	bx	lr
 8000216:	e7ff      	b.n	8000218 <__udivsi3+0x100>
 8000218:	b501      	push	{r0, lr}
 800021a:	2000      	movs	r0, #0
 800021c:	f000 f8f0 	bl	8000400 <__aeabi_idiv0>
 8000220:	bd02      	pop	{r1, pc}
 8000222:	46c0      	nop			@ (mov r8, r8)

08000224 <__aeabi_uidivmod>:
 8000224:	2900      	cmp	r1, #0
 8000226:	d0f7      	beq.n	8000218 <__udivsi3+0x100>
 8000228:	e776      	b.n	8000118 <__udivsi3>
 800022a:	4770      	bx	lr

0800022c <__divsi3>:
 800022c:	4603      	mov	r3, r0
 800022e:	430b      	orrs	r3, r1
 8000230:	d47f      	bmi.n	8000332 <__divsi3+0x106>
 8000232:	2200      	movs	r2, #0
 8000234:	0843      	lsrs	r3, r0, #1
 8000236:	428b      	cmp	r3, r1
 8000238:	d374      	bcc.n	8000324 <__divsi3+0xf8>
 800023a:	0903      	lsrs	r3, r0, #4
 800023c:	428b      	cmp	r3, r1
 800023e:	d35f      	bcc.n	8000300 <__divsi3+0xd4>
 8000240:	0a03      	lsrs	r3, r0, #8
 8000242:	428b      	cmp	r3, r1
 8000244:	d344      	bcc.n	80002d0 <__divsi3+0xa4>
 8000246:	0b03      	lsrs	r3, r0, #12
 8000248:	428b      	cmp	r3, r1
 800024a:	d328      	bcc.n	800029e <__divsi3+0x72>
 800024c:	0c03      	lsrs	r3, r0, #16
 800024e:	428b      	cmp	r3, r1
 8000250:	d30d      	bcc.n	800026e <__divsi3+0x42>
 8000252:	22ff      	movs	r2, #255	@ 0xff
 8000254:	0209      	lsls	r1, r1, #8
 8000256:	ba12      	rev	r2, r2
 8000258:	0c03      	lsrs	r3, r0, #16
 800025a:	428b      	cmp	r3, r1
 800025c:	d302      	bcc.n	8000264 <__divsi3+0x38>
 800025e:	1212      	asrs	r2, r2, #8
 8000260:	0209      	lsls	r1, r1, #8
 8000262:	d065      	beq.n	8000330 <__divsi3+0x104>
 8000264:	0b03      	lsrs	r3, r0, #12
 8000266:	428b      	cmp	r3, r1
 8000268:	d319      	bcc.n	800029e <__divsi3+0x72>
 800026a:	e000      	b.n	800026e <__divsi3+0x42>
 800026c:	0a09      	lsrs	r1, r1, #8
 800026e:	0bc3      	lsrs	r3, r0, #15
 8000270:	428b      	cmp	r3, r1
 8000272:	d301      	bcc.n	8000278 <__divsi3+0x4c>
 8000274:	03cb      	lsls	r3, r1, #15
 8000276:	1ac0      	subs	r0, r0, r3
 8000278:	4152      	adcs	r2, r2
 800027a:	0b83      	lsrs	r3, r0, #14
 800027c:	428b      	cmp	r3, r1
 800027e:	d301      	bcc.n	8000284 <__divsi3+0x58>
 8000280:	038b      	lsls	r3, r1, #14
 8000282:	1ac0      	subs	r0, r0, r3
 8000284:	4152      	adcs	r2, r2
 8000286:	0b43      	lsrs	r3, r0, #13
 8000288:	428b      	cmp	r3, r1
 800028a:	d301      	bcc.n	8000290 <__divsi3+0x64>
 800028c:	034b      	lsls	r3, r1, #13
 800028e:	1ac0      	subs	r0, r0, r3
 8000290:	4152      	adcs	r2, r2
 8000292:	0b03      	lsrs	r3, r0, #12
 8000294:	428b      	cmp	r3, r1
 8000296:	d301      	bcc.n	800029c <__divsi3+0x70>
 8000298:	030b      	lsls	r3, r1, #12
 800029a:	1ac0      	subs	r0, r0, r3
 800029c:	4152      	adcs	r2, r2
 800029e:	0ac3      	lsrs	r3, r0, #11
 80002a0:	428b      	cmp	r3, r1
 80002a2:	d301      	bcc.n	80002a8 <__divsi3+0x7c>
 80002a4:	02cb      	lsls	r3, r1, #11
 80002a6:	1ac0      	subs	r0, r0, r3
 80002a8:	4152      	adcs	r2, r2
 80002aa:	0a83      	lsrs	r3, r0, #10
 80002ac:	428b      	cmp	r3, r1
 80002ae:	d301      	bcc.n	80002b4 <__divsi3+0x88>
 80002b0:	028b      	lsls	r3, r1, #10
 80002b2:	1ac0      	subs	r0, r0, r3
 80002b4:	4152      	adcs	r2, r2
 80002b6:	0a43      	lsrs	r3, r0, #9
 80002b8:	428b      	cmp	r3, r1
 80002ba:	d301      	bcc.n	80002c0 <__divsi3+0x94>
 80002bc:	024b      	lsls	r3, r1, #9
 80002be:	1ac0      	subs	r0, r0, r3
 80002c0:	4152      	adcs	r2, r2
 80002c2:	0a03      	lsrs	r3, r0, #8
 80002c4:	428b      	cmp	r3, r1
 80002c6:	d301      	bcc.n	80002cc <__divsi3+0xa0>
 80002c8:	020b      	lsls	r3, r1, #8
 80002ca:	1ac0      	subs	r0, r0, r3
 80002cc:	4152      	adcs	r2, r2
 80002ce:	d2cd      	bcs.n	800026c <__divsi3+0x40>
 80002d0:	09c3      	lsrs	r3, r0, #7
 80002d2:	428b      	cmp	r3, r1
 80002d4:	d301      	bcc.n	80002da <__divsi3+0xae>
 80002d6:	01cb      	lsls	r3, r1, #7
 80002d8:	1ac0      	subs	r0, r0, r3
 80002da:	4152      	adcs	r2, r2
 80002dc:	0983      	lsrs	r3, r0, #6
 80002de:	428b      	cmp	r3, r1
 80002e0:	d301      	bcc.n	80002e6 <__divsi3+0xba>
 80002e2:	018b      	lsls	r3, r1, #6
 80002e4:	1ac0      	subs	r0, r0, r3
 80002e6:	4152      	adcs	r2, r2
 80002e8:	0943      	lsrs	r3, r0, #5
 80002ea:	428b      	cmp	r3, r1
 80002ec:	d301      	bcc.n	80002f2 <__divsi3+0xc6>
 80002ee:	014b      	lsls	r3, r1, #5
 80002f0:	1ac0      	subs	r0, r0, r3
 80002f2:	4152      	adcs	r2, r2
 80002f4:	0903      	lsrs	r3, r0, #4
 80002f6:	428b      	cmp	r3, r1
 80002f8:	d301      	bcc.n	80002fe <__divsi3+0xd2>
 80002fa:	010b      	lsls	r3, r1, #4
 80002fc:	1ac0      	subs	r0, r0, r3
 80002fe:	4152      	adcs	r2, r2
 8000300:	08c3      	lsrs	r3, r0, #3
 8000302:	428b      	cmp	r3, r1
 8000304:	d301      	bcc.n	800030a <__divsi3+0xde>
 8000306:	00cb      	lsls	r3, r1, #3
 8000308:	1ac0      	subs	r0, r0, r3
 800030a:	4152      	adcs	r2, r2
 800030c:	0883      	lsrs	r3, r0, #2
 800030e:	428b      	cmp	r3, r1
 8000310:	d301      	bcc.n	8000316 <__divsi3+0xea>
 8000312:	008b      	lsls	r3, r1, #2
 8000314:	1ac0      	subs	r0, r0, r3
 8000316:	4152      	adcs	r2, r2
 8000318:	0843      	lsrs	r3, r0, #1
 800031a:	428b      	cmp	r3, r1
 800031c:	d301      	bcc.n	8000322 <__divsi3+0xf6>
 800031e:	004b      	lsls	r3, r1, #1
 8000320:	1ac0      	subs	r0, r0, r3
 8000322:	4152      	adcs	r2, r2
 8000324:	1a41      	subs	r1, r0, r1
 8000326:	d200      	bcs.n	800032a <__divsi3+0xfe>
 8000328:	4601      	mov	r1, r0
 800032a:	4152      	adcs	r2, r2
 800032c:	4610      	mov	r0, r2
 800032e:	4770      	bx	lr
 8000330:	e05d      	b.n	80003ee <__divsi3+0x1c2>
 8000332:	0fca      	lsrs	r2, r1, #31
 8000334:	d000      	beq.n	8000338 <__divsi3+0x10c>
 8000336:	4249      	negs	r1, r1
 8000338:	1003      	asrs	r3, r0, #32
 800033a:	d300      	bcc.n	800033e <__divsi3+0x112>
 800033c:	4240      	negs	r0, r0
 800033e:	4053      	eors	r3, r2
 8000340:	2200      	movs	r2, #0
 8000342:	469c      	mov	ip, r3
 8000344:	0903      	lsrs	r3, r0, #4
 8000346:	428b      	cmp	r3, r1
 8000348:	d32d      	bcc.n	80003a6 <__divsi3+0x17a>
 800034a:	0a03      	lsrs	r3, r0, #8
 800034c:	428b      	cmp	r3, r1
 800034e:	d312      	bcc.n	8000376 <__divsi3+0x14a>
 8000350:	22fc      	movs	r2, #252	@ 0xfc
 8000352:	0189      	lsls	r1, r1, #6
 8000354:	ba12      	rev	r2, r2
 8000356:	0a03      	lsrs	r3, r0, #8
 8000358:	428b      	cmp	r3, r1
 800035a:	d30c      	bcc.n	8000376 <__divsi3+0x14a>
 800035c:	0189      	lsls	r1, r1, #6
 800035e:	1192      	asrs	r2, r2, #6
 8000360:	428b      	cmp	r3, r1
 8000362:	d308      	bcc.n	8000376 <__divsi3+0x14a>
 8000364:	0189      	lsls	r1, r1, #6
 8000366:	1192      	asrs	r2, r2, #6
 8000368:	428b      	cmp	r3, r1
 800036a:	d304      	bcc.n	8000376 <__divsi3+0x14a>
 800036c:	0189      	lsls	r1, r1, #6
 800036e:	d03a      	beq.n	80003e6 <__divsi3+0x1ba>
 8000370:	1192      	asrs	r2, r2, #6
 8000372:	e000      	b.n	8000376 <__divsi3+0x14a>
 8000374:	0989      	lsrs	r1, r1, #6
 8000376:	09c3      	lsrs	r3, r0, #7
 8000378:	428b      	cmp	r3, r1
 800037a:	d301      	bcc.n	8000380 <__divsi3+0x154>
 800037c:	01cb      	lsls	r3, r1, #7
 800037e:	1ac0      	subs	r0, r0, r3
 8000380:	4152      	adcs	r2, r2
 8000382:	0983      	lsrs	r3, r0, #6
 8000384:	428b      	cmp	r3, r1
 8000386:	d301      	bcc.n	800038c <__divsi3+0x160>
 8000388:	018b      	lsls	r3, r1, #6
 800038a:	1ac0      	subs	r0, r0, r3
 800038c:	4152      	adcs	r2, r2
 800038e:	0943      	lsrs	r3, r0, #5
 8000390:	428b      	cmp	r3, r1
 8000392:	d301      	bcc.n	8000398 <__divsi3+0x16c>
 8000394:	014b      	lsls	r3, r1, #5
 8000396:	1ac0      	subs	r0, r0, r3
 8000398:	4152      	adcs	r2, r2
 800039a:	0903      	lsrs	r3, r0, #4
 800039c:	428b      	cmp	r3, r1
 800039e:	d301      	bcc.n	80003a4 <__divsi3+0x178>
 80003a0:	010b      	lsls	r3, r1, #4
 80003a2:	1ac0      	subs	r0, r0, r3
 80003a4:	4152      	adcs	r2, r2
 80003a6:	08c3      	lsrs	r3, r0, #3
 80003a8:	428b      	cmp	r3, r1
 80003aa:	d301      	bcc.n	80003b0 <__divsi3+0x184>
 80003ac:	00cb      	lsls	r3, r1, #3
 80003ae:	1ac0      	subs	r0, r0, r3
 80003b0:	4152      	adcs	r2, r2
 80003b2:	0883      	lsrs	r3, r0, #2
 80003b4:	428b      	cmp	r3, r1
 80003b6:	d301      	bcc.n	80003bc <__divsi3+0x190>
 80003b8:	008b      	lsls	r3, r1, #2
 80003ba:	1ac0      	subs	r0, r0, r3
 80003bc:	4152      	adcs	r2, r2
 80003be:	d2d9      	bcs.n	8000374 <__divsi3+0x148>
 80003c0:	0843      	lsrs	r3, r0, #1
 80003c2:	428b      	cmp	r3, r1
 80003c4:	d301      	bcc.n	80003ca <__divsi3+0x19e>
 80003c6:	004b      	lsls	r3, r1, #1
 80003c8:	1ac0      	subs	r0, r0, r3
 80003ca:	4152      	adcs	r2, r2
 80003cc:	1a41      	subs	r1, r0, r1
 80003ce:	d200      	bcs.n	80003d2 <__divsi3+0x1a6>
 80003d0:	4601      	mov	r1, r0
 80003d2:	4663      	mov	r3, ip
 80003d4:	4152      	adcs	r2, r2
 80003d6:	105b      	asrs	r3, r3, #1
 80003d8:	4610      	mov	r0, r2
 80003da:	d301      	bcc.n	80003e0 <__divsi3+0x1b4>
 80003dc:	4240      	negs	r0, r0
 80003de:	2b00      	cmp	r3, #0
 80003e0:	d500      	bpl.n	80003e4 <__divsi3+0x1b8>
 80003e2:	4249      	negs	r1, r1
 80003e4:	4770      	bx	lr
 80003e6:	4663      	mov	r3, ip
 80003e8:	105b      	asrs	r3, r3, #1
 80003ea:	d300      	bcc.n	80003ee <__divsi3+0x1c2>
 80003ec:	4240      	negs	r0, r0
 80003ee:	b501      	push	{r0, lr}
 80003f0:	2000      	movs	r0, #0
 80003f2:	f000 f805 	bl	8000400 <__aeabi_idiv0>
 80003f6:	bd02      	pop	{r1, pc}

080003f8 <__aeabi_idivmod>:
 80003f8:	2900      	cmp	r1, #0
 80003fa:	d0f8      	beq.n	80003ee <__divsi3+0x1c2>
 80003fc:	e716      	b.n	800022c <__divsi3>
 80003fe:	4770      	bx	lr

08000400 <__aeabi_idiv0>:
 8000400:	4770      	bx	lr
 8000402:	46c0      	nop			@ (mov r8, r8)

08000404 <__aeabi_cfrcmple>:
 8000404:	4684      	mov	ip, r0
 8000406:	0008      	movs	r0, r1
 8000408:	4661      	mov	r1, ip
 800040a:	e7ff      	b.n	800040c <__aeabi_cfcmpeq>

0800040c <__aeabi_cfcmpeq>:
 800040c:	b51f      	push	{r0, r1, r2, r3, r4, lr}
 800040e:	f000 facf 	bl	80009b0 <__lesf2>
 8000412:	2800      	cmp	r0, #0
 8000414:	d401      	bmi.n	800041a <__aeabi_cfcmpeq+0xe>
 8000416:	2100      	movs	r1, #0
 8000418:	42c8      	cmn	r0, r1
 800041a:	bd1f      	pop	{r0, r1, r2, r3, r4, pc}

0800041c <__aeabi_fcmpeq>:
 800041c:	b510      	push	{r4, lr}
 800041e:	f000 fa4f 	bl	80008c0 <__eqsf2>
 8000422:	4240      	negs	r0, r0
 8000424:	3001      	adds	r0, #1
 8000426:	bd10      	pop	{r4, pc}

08000428 <__aeabi_fcmplt>:
 8000428:	b510      	push	{r4, lr}
 800042a:	f000 fac1 	bl	80009b0 <__lesf2>
 800042e:	2800      	cmp	r0, #0
 8000430:	db01      	blt.n	8000436 <__aeabi_fcmplt+0xe>
 8000432:	2000      	movs	r0, #0
 8000434:	bd10      	pop	{r4, pc}
 8000436:	2001      	movs	r0, #1
 8000438:	bd10      	pop	{r4, pc}
 800043a:	46c0      	nop			@ (mov r8, r8)

0800043c <__aeabi_fcmple>:
 800043c:	b510      	push	{r4, lr}
 800043e:	f000 fab7 	bl	80009b0 <__lesf2>
 8000442:	2800      	cmp	r0, #0
 8000444:	dd01      	ble.n	800044a <__aeabi_fcmple+0xe>
 8000446:	2000      	movs	r0, #0
 8000448:	bd10      	pop	{r4, pc}
 800044a:	2001      	movs	r0, #1
 800044c:	bd10      	pop	{r4, pc}
 800044e:	46c0      	nop			@ (mov r8, r8)

08000450 <__aeabi_fcmpgt>:
 8000450:	b510      	push	{r4, lr}
 8000452:	f000 fa5d 	bl	8000910 <__gesf2>
 8000456:	2800      	cmp	r0, #0
 8000458:	dc01      	bgt.n	800045e <__aeabi_fcmpgt+0xe>
 800045a:	2000      	movs	r0, #0
 800045c:	bd10      	pop	{r4, pc}
 800045e:	2001      	movs	r0, #1
 8000460:	bd10      	pop	{r4, pc}
 8000462:	46c0      	nop			@ (mov r8, r8)

08000464 <__aeabi_fcmpge>:
 8000464:	b510      	push	{r4, lr}
 8000466:	f000 fa53 	bl	8000910 <__gesf2>
 800046a:	2800      	cmp	r0, #0
 800046c:	da01      	bge.n	8000472 <__aeabi_fcmpge+0xe>
 800046e:	2000      	movs	r0, #0
 8000470:	bd10      	pop	{r4, pc}
 8000472:	2001      	movs	r0, #1
 8000474:	bd10      	pop	{r4, pc}
 8000476:	46c0      	nop			@ (mov r8, r8)

08000478 <__aeabi_uldivmod>:
 8000478:	2b00      	cmp	r3, #0
 800047a:	d111      	bne.n	80004a0 <__aeabi_uldivmod+0x28>
 800047c:	2a00      	cmp	r2, #0
 800047e:	d10f      	bne.n	80004a0 <__aeabi_uldivmod+0x28>
 8000480:	2900      	cmp	r1, #0
 8000482:	d100      	bne.n	8000486 <__aeabi_uldivmod+0xe>
 8000484:	2800      	cmp	r0, #0
 8000486:	d002      	beq.n	800048e <__aeabi_uldivmod+0x16>
 8000488:	2100      	movs	r1, #0
 800048a:	43c9      	mvns	r1, r1
 800048c:	0008      	movs	r0, r1
 800048e:	b407      	push	{r0, r1, r2}
 8000490:	4802      	ldr	r0, [pc, #8]	@ (800049c <__aeabi_uldivmod+0x24>)
 8000492:	a102      	add	r1, pc, #8	@ (adr r1, 800049c <__aeabi_uldivmod+0x24>)
 8000494:	1840      	adds	r0, r0, r1
 8000496:	9002      	str	r0, [sp, #8]
 8000498:	bd03      	pop	{r0, r1, pc}
 800049a:	46c0      	nop			@ (mov r8, r8)
 800049c:	ffffff65 	.word	0xffffff65
 80004a0:	b403      	push	{r0, r1}
 80004a2:	4668      	mov	r0, sp
 80004a4:	b501      	push	{r0, lr}
 80004a6:	9802      	ldr	r0, [sp, #8]
 80004a8:	f000 f81e 	bl	80004e8 <__udivmoddi4>
 80004ac:	9b01      	ldr	r3, [sp, #4]
 80004ae:	469e      	mov	lr, r3
 80004b0:	b002      	add	sp, #8
 80004b2:	bc0c      	pop	{r2, r3}
 80004b4:	4770      	bx	lr
 80004b6:	46c0      	nop			@ (mov r8, r8)

080004b8 <__aeabi_f2uiz>:
 80004b8:	219e      	movs	r1, #158	@ 0x9e
 80004ba:	b510      	push	{r4, lr}
 80004bc:	05c9      	lsls	r1, r1, #23
 80004be:	1c04      	adds	r4, r0, #0
 80004c0:	f7ff ffd0 	bl	8000464 <__aeabi_fcmpge>
 80004c4:	2800      	cmp	r0, #0
 80004c6:	d103      	bne.n	80004d0 <__aeabi_f2uiz+0x18>
 80004c8:	1c20      	adds	r0, r4, #0
 80004ca:	f000 fc63 	bl	8000d94 <__aeabi_f2iz>
 80004ce:	bd10      	pop	{r4, pc}
 80004d0:	219e      	movs	r1, #158	@ 0x9e
 80004d2:	1c20      	adds	r0, r4, #0
 80004d4:	05c9      	lsls	r1, r1, #23
 80004d6:	f000 fab9 	bl	8000a4c <__aeabi_fsub>
 80004da:	f000 fc5b 	bl	8000d94 <__aeabi_f2iz>
 80004de:	2380      	movs	r3, #128	@ 0x80
 80004e0:	061b      	lsls	r3, r3, #24
 80004e2:	469c      	mov	ip, r3
 80004e4:	4460      	add	r0, ip
 80004e6:	e7f2      	b.n	80004ce <__aeabi_f2uiz+0x16>

080004e8 <__udivmoddi4>:
 80004e8:	b5f0      	push	{r4, r5, r6, r7, lr}
 80004ea:	4657      	mov	r7, sl
 80004ec:	464e      	mov	r6, r9
 80004ee:	4645      	mov	r5, r8
 80004f0:	46de      	mov	lr, fp
 80004f2:	b5e0      	push	{r5, r6, r7, lr}
 80004f4:	0004      	movs	r4, r0
 80004f6:	000d      	movs	r5, r1
 80004f8:	4692      	mov	sl, r2
 80004fa:	4699      	mov	r9, r3
 80004fc:	b083      	sub	sp, #12
 80004fe:	428b      	cmp	r3, r1
 8000500:	d830      	bhi.n	8000564 <__udivmoddi4+0x7c>
 8000502:	d02d      	beq.n	8000560 <__udivmoddi4+0x78>
 8000504:	4649      	mov	r1, r9
 8000506:	4650      	mov	r0, sl
 8000508:	f000 fd06 	bl	8000f18 <__clzdi2>
 800050c:	0029      	movs	r1, r5
 800050e:	0006      	movs	r6, r0
 8000510:	0020      	movs	r0, r4
 8000512:	f000 fd01 	bl	8000f18 <__clzdi2>
 8000516:	1a33      	subs	r3, r6, r0
 8000518:	4698      	mov	r8, r3
 800051a:	3b20      	subs	r3, #32
 800051c:	d434      	bmi.n	8000588 <__udivmoddi4+0xa0>
 800051e:	469b      	mov	fp, r3
 8000520:	4653      	mov	r3, sl
 8000522:	465a      	mov	r2, fp
 8000524:	4093      	lsls	r3, r2
 8000526:	4642      	mov	r2, r8
 8000528:	001f      	movs	r7, r3
 800052a:	4653      	mov	r3, sl
 800052c:	4093      	lsls	r3, r2
 800052e:	001e      	movs	r6, r3
 8000530:	42af      	cmp	r7, r5
 8000532:	d83b      	bhi.n	80005ac <__udivmoddi4+0xc4>
 8000534:	42af      	cmp	r7, r5
 8000536:	d100      	bne.n	800053a <__udivmoddi4+0x52>
 8000538:	e079      	b.n	800062e <__udivmoddi4+0x146>
 800053a:	465b      	mov	r3, fp
 800053c:	1ba4      	subs	r4, r4, r6
 800053e:	41bd      	sbcs	r5, r7
 8000540:	2b00      	cmp	r3, #0
 8000542:	da00      	bge.n	8000546 <__udivmoddi4+0x5e>
 8000544:	e076      	b.n	8000634 <__udivmoddi4+0x14c>
 8000546:	2200      	movs	r2, #0
 8000548:	2300      	movs	r3, #0
 800054a:	9200      	str	r2, [sp, #0]
 800054c:	9301      	str	r3, [sp, #4]
 800054e:	2301      	movs	r3, #1
 8000550:	465a      	mov	r2, fp
 8000552:	4093      	lsls	r3, r2
 8000554:	9301      	str	r3, [sp, #4]
 8000556:	2301      	movs	r3, #1
 8000558:	4642      	mov	r2, r8
 800055a:	4093      	lsls	r3, r2
 800055c:	9300      	str	r3, [sp, #0]
 800055e:	e029      	b.n	80005b4 <__udivmoddi4+0xcc>
 8000560:	4282      	cmp	r2, r0
 8000562:	d9cf      	bls.n	8000504 <__udivmoddi4+0x1c>
 8000564:	2200      	movs	r2, #0
 8000566:	2300      	movs	r3, #0
 8000568:	9200      	str	r2, [sp, #0]
 800056a:	9301      	str	r3, [sp, #4]
 800056c:	9b0c      	ldr	r3, [sp, #48]	@ 0x30
 800056e:	2b00      	cmp	r3, #0
 8000570:	d001      	beq.n	8000576 <__udivmoddi4+0x8e>
 8000572:	601c      	str	r4, [r3, #0]
 8000574:	605d      	str	r5, [r3, #4]
 8000576:	9800      	ldr	r0, [sp, #0]
 8000578:	9901      	ldr	r1, [sp, #4]
 800057a:	b003      	add	sp, #12
 800057c:	bcf0      	pop	{r4, r5, r6, r7}
 800057e:	46bb      	mov	fp, r7
 8000580:	46b2      	mov	sl, r6
 8000582:	46a9      	mov	r9, r5
 8000584:	46a0      	mov	r8, r4
 8000586:	bdf0      	pop	{r4, r5, r6, r7, pc}
 8000588:	4642      	mov	r2, r8
 800058a:	469b      	mov	fp, r3
 800058c:	2320      	movs	r3, #32
 800058e:	1a9b      	subs	r3, r3, r2
 8000590:	4652      	mov	r2, sl
 8000592:	40da      	lsrs	r2, r3
 8000594:	4641      	mov	r1, r8
 8000596:	0013      	movs	r3, r2
 8000598:	464a      	mov	r2, r9
 800059a:	408a      	lsls	r2, r1
 800059c:	0017      	movs	r7, r2
 800059e:	4642      	mov	r2, r8
 80005a0:	431f      	orrs	r7, r3
 80005a2:	4653      	mov	r3, sl
 80005a4:	4093      	lsls	r3, r2
 80005a6:	001e      	movs	r6, r3
 80005a8:	42af      	cmp	r7, r5
 80005aa:	d9c3      	bls.n	8000534 <__udivmoddi4+0x4c>
 80005ac:	2200      	movs	r2, #0
 80005ae:	2300      	movs	r3, #0
 80005b0:	9200      	str	r2, [sp, #0]
 80005b2:	9301      	str	r3, [sp, #4]
 80005b4:	4643      	mov	r3, r8
 80005b6:	2b00      	cmp	r3, #0
 80005b8:	d0d8      	beq.n	800056c <__udivmoddi4+0x84>
 80005ba:	07fb      	lsls	r3, r7, #31
 80005bc:	0872      	lsrs	r2, r6, #1
 80005be:	431a      	orrs	r2, r3
 80005c0:	4646      	mov	r6, r8
 80005c2:	087b      	lsrs	r3, r7, #1
 80005c4:	e00e      	b.n	80005e4 <__udivmoddi4+0xfc>
 80005c6:	42ab      	cmp	r3, r5
 80005c8:	d101      	bne.n	80005ce <__udivmoddi4+0xe6>
 80005ca:	42a2      	cmp	r2, r4
 80005cc:	d80c      	bhi.n	80005e8 <__udivmoddi4+0x100>
 80005ce:	1aa4      	subs	r4, r4, r2
 80005d0:	419d      	sbcs	r5, r3
 80005d2:	2001      	movs	r0, #1
 80005d4:	1924      	adds	r4, r4, r4
 80005d6:	416d      	adcs	r5, r5
 80005d8:	2100      	movs	r1, #0
 80005da:	3e01      	subs	r6, #1
 80005dc:	1824      	adds	r4, r4, r0
 80005de:	414d      	adcs	r5, r1
 80005e0:	2e00      	cmp	r6, #0
 80005e2:	d006      	beq.n	80005f2 <__udivmoddi4+0x10a>
 80005e4:	42ab      	cmp	r3, r5
 80005e6:	d9ee      	bls.n	80005c6 <__udivmoddi4+0xde>
 80005e8:	3e01      	subs	r6, #1
 80005ea:	1924      	adds	r4, r4, r4
 80005ec:	416d      	adcs	r5, r5
 80005ee:	2e00      	cmp	r6, #0
 80005f0:	d1f8      	bne.n	80005e4 <__udivmoddi4+0xfc>
 80005f2:	9800      	ldr	r0, [sp, #0]
 80005f4:	9901      	ldr	r1, [sp, #4]
 80005f6:	465b      	mov	r3, fp
 80005f8:	1900      	adds	r0, r0, r4
 80005fa:	4169      	adcs	r1, r5
 80005fc:	2b00      	cmp	r3, #0
 80005fe:	db24      	blt.n	800064a <__udivmoddi4+0x162>
 8000600:	002b      	movs	r3, r5
 8000602:	465a      	mov	r2, fp
 8000604:	4644      	mov	r4, r8
 8000606:	40d3      	lsrs	r3, r2
 8000608:	002a      	movs	r2, r5
 800060a:	40e2      	lsrs	r2, r4
 800060c:	001c      	movs	r4, r3
 800060e:	465b      	mov	r3, fp
 8000610:	0015      	movs	r5, r2
 8000612:	2b00      	cmp	r3, #0
 8000614:	db2a      	blt.n	800066c <__udivmoddi4+0x184>
 8000616:	0026      	movs	r6, r4
 8000618:	409e      	lsls	r6, r3
 800061a:	0033      	movs	r3, r6
 800061c:	0026      	movs	r6, r4
 800061e:	4647      	mov	r7, r8
 8000620:	40be      	lsls	r6, r7
 8000622:	0032      	movs	r2, r6
 8000624:	1a80      	subs	r0, r0, r2
 8000626:	4199      	sbcs	r1, r3
 8000628:	9000      	str	r0, [sp, #0]
 800062a:	9101      	str	r1, [sp, #4]
 800062c:	e79e      	b.n	800056c <__udivmoddi4+0x84>
 800062e:	42a3      	cmp	r3, r4
 8000630:	d8bc      	bhi.n	80005ac <__udivmoddi4+0xc4>
 8000632:	e782      	b.n	800053a <__udivmoddi4+0x52>
 8000634:	4642      	mov	r2, r8
 8000636:	2320      	movs	r3, #32
 8000638:	2100      	movs	r1, #0
 800063a:	1a9b      	subs	r3, r3, r2
 800063c:	2200      	movs	r2, #0
 800063e:	9100      	str	r1, [sp, #0]
 8000640:	9201      	str	r2, [sp, #4]
 8000642:	2201      	movs	r2, #1
 8000644:	40da      	lsrs	r2, r3
 8000646:	9201      	str	r2, [sp, #4]
 8000648:	e785      	b.n	8000556 <__udivmoddi4+0x6e>
 800064a:	4642      	mov	r2, r8
 800064c:	2320      	movs	r3, #32
 800064e:	1a9b      	subs	r3, r3, r2
 8000650:	002a      	movs	r2, r5
 8000652:	4646      	mov	r6, r8
 8000654:	409a      	lsls	r2, r3
 8000656:	0023      	movs	r3, r4
 8000658:	40f3      	lsrs	r3, r6
 800065a:	4644      	mov	r4, r8
 800065c:	4313      	orrs	r3, r2
 800065e:	002a      	movs	r2, r5
 8000660:	40e2      	lsrs	r2, r4
 8000662:	001c      	movs	r4, r3
 8000664:	465b      	mov	r3, fp
 8000666:	0015      	movs	r5, r2
 8000668:	2b00      	cmp	r3, #0
 800066a:	dad4      	bge.n	8000616 <__udivmoddi4+0x12e>
 800066c:	4642      	mov	r2, r8
 800066e:	002f      	movs	r7, r5
 8000670:	2320      	movs	r3, #32
 8000672:	0026      	movs	r6, r4
 8000674:	4097      	lsls	r7, r2
 8000676:	1a9b      	subs	r3, r3, r2
 8000678:	40de      	lsrs	r6, r3
 800067a:	003b      	movs	r3, r7
 800067c:	4333      	orrs	r3, r6
 800067e:	e7cd      	b.n	800061c <__udivmoddi4+0x134>

08000680 <__aeabi_fdiv>:
 8000680:	b5f0      	push	{r4, r5, r6, r7, lr}
 8000682:	464f      	mov	r7, r9
 8000684:	4646      	mov	r6, r8
 8000686:	46d6      	mov	lr, sl
 8000688:	0244      	lsls	r4, r0, #9
 800068a:	b5c0      	push	{r6, r7, lr}
 800068c:	0047      	lsls	r7, r0, #1
 800068e:	1c0e      	adds	r6, r1, #0
 8000690:	0a64      	lsrs	r4, r4, #9
 8000692:	0e3f      	lsrs	r7, r7, #24
 8000694:	0fc5      	lsrs	r5, r0, #31
 8000696:	2f00      	cmp	r7, #0
 8000698:	d03c      	beq.n	8000714 <__aeabi_fdiv+0x94>
 800069a:	2fff      	cmp	r7, #255	@ 0xff
 800069c:	d042      	beq.n	8000724 <__aeabi_fdiv+0xa4>
 800069e:	2300      	movs	r3, #0
 80006a0:	2280      	movs	r2, #128	@ 0x80
 80006a2:	4699      	mov	r9, r3
 80006a4:	469a      	mov	sl, r3
 80006a6:	00e4      	lsls	r4, r4, #3
 80006a8:	04d2      	lsls	r2, r2, #19
 80006aa:	4314      	orrs	r4, r2
 80006ac:	3f7f      	subs	r7, #127	@ 0x7f
 80006ae:	0273      	lsls	r3, r6, #9
 80006b0:	0a5b      	lsrs	r3, r3, #9
 80006b2:	4698      	mov	r8, r3
 80006b4:	0073      	lsls	r3, r6, #1
 80006b6:	0e1b      	lsrs	r3, r3, #24
 80006b8:	0ff6      	lsrs	r6, r6, #31
 80006ba:	2b00      	cmp	r3, #0
 80006bc:	d01b      	beq.n	80006f6 <__aeabi_fdiv+0x76>
 80006be:	2bff      	cmp	r3, #255	@ 0xff
 80006c0:	d013      	beq.n	80006ea <__aeabi_fdiv+0x6a>
 80006c2:	4642      	mov	r2, r8
 80006c4:	2180      	movs	r1, #128	@ 0x80
 80006c6:	00d2      	lsls	r2, r2, #3
 80006c8:	04c9      	lsls	r1, r1, #19
 80006ca:	4311      	orrs	r1, r2
 80006cc:	4688      	mov	r8, r1
 80006ce:	2000      	movs	r0, #0
 80006d0:	3b7f      	subs	r3, #127	@ 0x7f
 80006d2:	0029      	movs	r1, r5
 80006d4:	1aff      	subs	r7, r7, r3
 80006d6:	464b      	mov	r3, r9
 80006d8:	4071      	eors	r1, r6
 80006da:	b2c9      	uxtb	r1, r1
 80006dc:	2b0f      	cmp	r3, #15
 80006de:	d900      	bls.n	80006e2 <__aeabi_fdiv+0x62>
 80006e0:	e0b5      	b.n	800084e <__aeabi_fdiv+0x1ce>
 80006e2:	4a74      	ldr	r2, [pc, #464]	@ (80008b4 <__aeabi_fdiv+0x234>)
 80006e4:	009b      	lsls	r3, r3, #2
 80006e6:	58d3      	ldr	r3, [r2, r3]
 80006e8:	469f      	mov	pc, r3
 80006ea:	4643      	mov	r3, r8
 80006ec:	2b00      	cmp	r3, #0
 80006ee:	d13f      	bne.n	8000770 <__aeabi_fdiv+0xf0>
 80006f0:	3fff      	subs	r7, #255	@ 0xff
 80006f2:	3302      	adds	r3, #2
 80006f4:	e003      	b.n	80006fe <__aeabi_fdiv+0x7e>
 80006f6:	4643      	mov	r3, r8
 80006f8:	2b00      	cmp	r3, #0
 80006fa:	d12d      	bne.n	8000758 <__aeabi_fdiv+0xd8>
 80006fc:	2301      	movs	r3, #1
 80006fe:	0029      	movs	r1, r5
 8000700:	464a      	mov	r2, r9
 8000702:	4071      	eors	r1, r6
 8000704:	b2c9      	uxtb	r1, r1
 8000706:	431a      	orrs	r2, r3
 8000708:	2a0e      	cmp	r2, #14
 800070a:	d838      	bhi.n	800077e <__aeabi_fdiv+0xfe>
 800070c:	486a      	ldr	r0, [pc, #424]	@ (80008b8 <__aeabi_fdiv+0x238>)
 800070e:	0092      	lsls	r2, r2, #2
 8000710:	5882      	ldr	r2, [r0, r2]
 8000712:	4697      	mov	pc, r2
 8000714:	2c00      	cmp	r4, #0
 8000716:	d113      	bne.n	8000740 <__aeabi_fdiv+0xc0>
 8000718:	2304      	movs	r3, #4
 800071a:	4699      	mov	r9, r3
 800071c:	3b03      	subs	r3, #3
 800071e:	2700      	movs	r7, #0
 8000720:	469a      	mov	sl, r3
 8000722:	e7c4      	b.n	80006ae <__aeabi_fdiv+0x2e>
 8000724:	2c00      	cmp	r4, #0
 8000726:	d105      	bne.n	8000734 <__aeabi_fdiv+0xb4>
 8000728:	2308      	movs	r3, #8
 800072a:	4699      	mov	r9, r3
 800072c:	3b06      	subs	r3, #6
 800072e:	27ff      	movs	r7, #255	@ 0xff
 8000730:	469a      	mov	sl, r3
 8000732:	e7bc      	b.n	80006ae <__aeabi_fdiv+0x2e>
 8000734:	230c      	movs	r3, #12
 8000736:	4699      	mov	r9, r3
 8000738:	3b09      	subs	r3, #9
 800073a:	27ff      	movs	r7, #255	@ 0xff
 800073c:	469a      	mov	sl, r3
 800073e:	e7b6      	b.n	80006ae <__aeabi_fdiv+0x2e>
 8000740:	0020      	movs	r0, r4
 8000742:	f000 fbcb 	bl	8000edc <__clzsi2>
 8000746:	2776      	movs	r7, #118	@ 0x76
 8000748:	1f43      	subs	r3, r0, #5
 800074a:	409c      	lsls	r4, r3
 800074c:	2300      	movs	r3, #0
 800074e:	427f      	negs	r7, r7
 8000750:	4699      	mov	r9, r3
 8000752:	469a      	mov	sl, r3
 8000754:	1a3f      	subs	r7, r7, r0
 8000756:	e7aa      	b.n	80006ae <__aeabi_fdiv+0x2e>
 8000758:	4640      	mov	r0, r8
 800075a:	f000 fbbf 	bl	8000edc <__clzsi2>
 800075e:	4642      	mov	r2, r8
 8000760:	1f43      	subs	r3, r0, #5
 8000762:	409a      	lsls	r2, r3
 8000764:	2376      	movs	r3, #118	@ 0x76
 8000766:	425b      	negs	r3, r3
 8000768:	1a1b      	subs	r3, r3, r0
 800076a:	4690      	mov	r8, r2
 800076c:	2000      	movs	r0, #0
 800076e:	e7b0      	b.n	80006d2 <__aeabi_fdiv+0x52>
 8000770:	2303      	movs	r3, #3
 8000772:	464a      	mov	r2, r9
 8000774:	431a      	orrs	r2, r3
 8000776:	4691      	mov	r9, r2
 8000778:	2003      	movs	r0, #3
 800077a:	33fc      	adds	r3, #252	@ 0xfc
 800077c:	e7a9      	b.n	80006d2 <__aeabi_fdiv+0x52>
 800077e:	000d      	movs	r5, r1
 8000780:	20ff      	movs	r0, #255	@ 0xff
 8000782:	2200      	movs	r2, #0
 8000784:	05c0      	lsls	r0, r0, #23
 8000786:	07ed      	lsls	r5, r5, #31
 8000788:	4310      	orrs	r0, r2
 800078a:	4328      	orrs	r0, r5
 800078c:	bce0      	pop	{r5, r6, r7}
 800078e:	46ba      	mov	sl, r7
 8000790:	46b1      	mov	r9, r6
 8000792:	46a8      	mov	r8, r5
 8000794:	bdf0      	pop	{r4, r5, r6, r7, pc}
 8000796:	000d      	movs	r5, r1
 8000798:	2000      	movs	r0, #0
 800079a:	2200      	movs	r2, #0
 800079c:	e7f2      	b.n	8000784 <__aeabi_fdiv+0x104>
 800079e:	4653      	mov	r3, sl
 80007a0:	2b02      	cmp	r3, #2
 80007a2:	d0ed      	beq.n	8000780 <__aeabi_fdiv+0x100>
 80007a4:	2b03      	cmp	r3, #3
 80007a6:	d033      	beq.n	8000810 <__aeabi_fdiv+0x190>
 80007a8:	46a0      	mov	r8, r4
 80007aa:	2b01      	cmp	r3, #1
 80007ac:	d105      	bne.n	80007ba <__aeabi_fdiv+0x13a>
 80007ae:	2000      	movs	r0, #0
 80007b0:	2200      	movs	r2, #0
 80007b2:	e7e7      	b.n	8000784 <__aeabi_fdiv+0x104>
 80007b4:	0035      	movs	r5, r6
 80007b6:	2803      	cmp	r0, #3
 80007b8:	d07a      	beq.n	80008b0 <__aeabi_fdiv+0x230>
 80007ba:	003b      	movs	r3, r7
 80007bc:	337f      	adds	r3, #127	@ 0x7f
 80007be:	2b00      	cmp	r3, #0
 80007c0:	dd2d      	ble.n	800081e <__aeabi_fdiv+0x19e>
 80007c2:	4642      	mov	r2, r8
 80007c4:	0752      	lsls	r2, r2, #29
 80007c6:	d007      	beq.n	80007d8 <__aeabi_fdiv+0x158>
 80007c8:	220f      	movs	r2, #15
 80007ca:	4641      	mov	r1, r8
 80007cc:	400a      	ands	r2, r1
 80007ce:	2a04      	cmp	r2, #4
 80007d0:	d002      	beq.n	80007d8 <__aeabi_fdiv+0x158>
 80007d2:	2204      	movs	r2, #4
 80007d4:	4694      	mov	ip, r2
 80007d6:	44e0      	add	r8, ip
 80007d8:	4642      	mov	r2, r8
 80007da:	0112      	lsls	r2, r2, #4
 80007dc:	d505      	bpl.n	80007ea <__aeabi_fdiv+0x16a>
 80007de:	4642      	mov	r2, r8
 80007e0:	4b36      	ldr	r3, [pc, #216]	@ (80008bc <__aeabi_fdiv+0x23c>)
 80007e2:	401a      	ands	r2, r3
 80007e4:	003b      	movs	r3, r7
 80007e6:	4690      	mov	r8, r2
 80007e8:	3380      	adds	r3, #128	@ 0x80
 80007ea:	2bfe      	cmp	r3, #254	@ 0xfe
 80007ec:	dcc8      	bgt.n	8000780 <__aeabi_fdiv+0x100>
 80007ee:	4642      	mov	r2, r8
 80007f0:	0192      	lsls	r2, r2, #6
 80007f2:	0a52      	lsrs	r2, r2, #9
 80007f4:	b2d8      	uxtb	r0, r3
 80007f6:	e7c5      	b.n	8000784 <__aeabi_fdiv+0x104>
 80007f8:	2280      	movs	r2, #128	@ 0x80
 80007fa:	2500      	movs	r5, #0
 80007fc:	20ff      	movs	r0, #255	@ 0xff
 80007fe:	03d2      	lsls	r2, r2, #15
 8000800:	e7c0      	b.n	8000784 <__aeabi_fdiv+0x104>
 8000802:	2280      	movs	r2, #128	@ 0x80
 8000804:	03d2      	lsls	r2, r2, #15
 8000806:	4214      	tst	r4, r2
 8000808:	d002      	beq.n	8000810 <__aeabi_fdiv+0x190>
 800080a:	4643      	mov	r3, r8
 800080c:	4213      	tst	r3, r2
 800080e:	d049      	beq.n	80008a4 <__aeabi_fdiv+0x224>
 8000810:	2280      	movs	r2, #128	@ 0x80
 8000812:	03d2      	lsls	r2, r2, #15
 8000814:	4322      	orrs	r2, r4
 8000816:	0252      	lsls	r2, r2, #9
 8000818:	20ff      	movs	r0, #255	@ 0xff
 800081a:	0a52      	lsrs	r2, r2, #9
 800081c:	e7b2      	b.n	8000784 <__aeabi_fdiv+0x104>
 800081e:	2201      	movs	r2, #1
 8000820:	1ad3      	subs	r3, r2, r3
 8000822:	2b1b      	cmp	r3, #27
 8000824:	dcc3      	bgt.n	80007ae <__aeabi_fdiv+0x12e>
 8000826:	4642      	mov	r2, r8
 8000828:	40da      	lsrs	r2, r3
 800082a:	4643      	mov	r3, r8
 800082c:	379e      	adds	r7, #158	@ 0x9e
 800082e:	40bb      	lsls	r3, r7
 8000830:	1e59      	subs	r1, r3, #1
 8000832:	418b      	sbcs	r3, r1
 8000834:	431a      	orrs	r2, r3
 8000836:	0753      	lsls	r3, r2, #29
 8000838:	d004      	beq.n	8000844 <__aeabi_fdiv+0x1c4>
 800083a:	230f      	movs	r3, #15
 800083c:	4013      	ands	r3, r2
 800083e:	2b04      	cmp	r3, #4
 8000840:	d000      	beq.n	8000844 <__aeabi_fdiv+0x1c4>
 8000842:	3204      	adds	r2, #4
 8000844:	0153      	lsls	r3, r2, #5
 8000846:	d529      	bpl.n	800089c <__aeabi_fdiv+0x21c>
 8000848:	2001      	movs	r0, #1
 800084a:	2200      	movs	r2, #0
 800084c:	e79a      	b.n	8000784 <__aeabi_fdiv+0x104>
 800084e:	4642      	mov	r2, r8
 8000850:	0163      	lsls	r3, r4, #5
 8000852:	0155      	lsls	r5, r2, #5
 8000854:	42ab      	cmp	r3, r5
 8000856:	d215      	bcs.n	8000884 <__aeabi_fdiv+0x204>
 8000858:	201b      	movs	r0, #27
 800085a:	2200      	movs	r2, #0
 800085c:	3f01      	subs	r7, #1
 800085e:	2601      	movs	r6, #1
 8000860:	001c      	movs	r4, r3
 8000862:	0052      	lsls	r2, r2, #1
 8000864:	005b      	lsls	r3, r3, #1
 8000866:	2c00      	cmp	r4, #0
 8000868:	db01      	blt.n	800086e <__aeabi_fdiv+0x1ee>
 800086a:	429d      	cmp	r5, r3
 800086c:	d801      	bhi.n	8000872 <__aeabi_fdiv+0x1f2>
 800086e:	1b5b      	subs	r3, r3, r5
 8000870:	4332      	orrs	r2, r6
 8000872:	3801      	subs	r0, #1
 8000874:	2800      	cmp	r0, #0
 8000876:	d1f3      	bne.n	8000860 <__aeabi_fdiv+0x1e0>
 8000878:	1e58      	subs	r0, r3, #1
 800087a:	4183      	sbcs	r3, r0
 800087c:	4313      	orrs	r3, r2
 800087e:	4698      	mov	r8, r3
 8000880:	000d      	movs	r5, r1
 8000882:	e79a      	b.n	80007ba <__aeabi_fdiv+0x13a>
 8000884:	201a      	movs	r0, #26
 8000886:	2201      	movs	r2, #1
 8000888:	1b5b      	subs	r3, r3, r5
 800088a:	e7e8      	b.n	800085e <__aeabi_fdiv+0x1de>
 800088c:	3b02      	subs	r3, #2
 800088e:	425a      	negs	r2, r3
 8000890:	4153      	adcs	r3, r2
 8000892:	425b      	negs	r3, r3
 8000894:	0035      	movs	r5, r6
 8000896:	2200      	movs	r2, #0
 8000898:	b2d8      	uxtb	r0, r3
 800089a:	e773      	b.n	8000784 <__aeabi_fdiv+0x104>
 800089c:	0192      	lsls	r2, r2, #6
 800089e:	2000      	movs	r0, #0
 80008a0:	0a52      	lsrs	r2, r2, #9
 80008a2:	e76f      	b.n	8000784 <__aeabi_fdiv+0x104>
 80008a4:	431a      	orrs	r2, r3
 80008a6:	0252      	lsls	r2, r2, #9
 80008a8:	0035      	movs	r5, r6
 80008aa:	20ff      	movs	r0, #255	@ 0xff
 80008ac:	0a52      	lsrs	r2, r2, #9
 80008ae:	e769      	b.n	8000784 <__aeabi_fdiv+0x104>
 80008b0:	4644      	mov	r4, r8
 80008b2:	e7ad      	b.n	8000810 <__aeabi_fdiv+0x190>
 80008b4:	08008118 	.word	0x08008118
 80008b8:	08008158 	.word	0x08008158
 80008bc:	f7ffffff 	.word	0xf7ffffff

080008c0 <__eqsf2>:
 80008c0:	b570      	push	{r4, r5, r6, lr}
 80008c2:	0042      	lsls	r2, r0, #1
 80008c4:	024e      	lsls	r6, r1, #9
 80008c6:	004c      	lsls	r4, r1, #1
 80008c8:	0245      	lsls	r5, r0, #9
 80008ca:	0a6d      	lsrs	r5, r5, #9
 80008cc:	0e12      	lsrs	r2, r2, #24
 80008ce:	0fc3      	lsrs	r3, r0, #31
 80008d0:	0a76      	lsrs	r6, r6, #9
 80008d2:	0e24      	lsrs	r4, r4, #24
 80008d4:	0fc9      	lsrs	r1, r1, #31
 80008d6:	2aff      	cmp	r2, #255	@ 0xff
 80008d8:	d010      	beq.n	80008fc <__eqsf2+0x3c>
 80008da:	2cff      	cmp	r4, #255	@ 0xff
 80008dc:	d00c      	beq.n	80008f8 <__eqsf2+0x38>
 80008de:	2001      	movs	r0, #1
 80008e0:	42a2      	cmp	r2, r4
 80008e2:	d10a      	bne.n	80008fa <__eqsf2+0x3a>
 80008e4:	42b5      	cmp	r5, r6
 80008e6:	d108      	bne.n	80008fa <__eqsf2+0x3a>
 80008e8:	428b      	cmp	r3, r1
 80008ea:	d00f      	beq.n	800090c <__eqsf2+0x4c>
 80008ec:	2a00      	cmp	r2, #0
 80008ee:	d104      	bne.n	80008fa <__eqsf2+0x3a>
 80008f0:	0028      	movs	r0, r5
 80008f2:	1e43      	subs	r3, r0, #1
 80008f4:	4198      	sbcs	r0, r3
 80008f6:	e000      	b.n	80008fa <__eqsf2+0x3a>
 80008f8:	2001      	movs	r0, #1
 80008fa:	bd70      	pop	{r4, r5, r6, pc}
 80008fc:	2001      	movs	r0, #1
 80008fe:	2cff      	cmp	r4, #255	@ 0xff
 8000900:	d1fb      	bne.n	80008fa <__eqsf2+0x3a>
 8000902:	4335      	orrs	r5, r6
 8000904:	d1f9      	bne.n	80008fa <__eqsf2+0x3a>
 8000906:	404b      	eors	r3, r1
 8000908:	0018      	movs	r0, r3
 800090a:	e7f6      	b.n	80008fa <__eqsf2+0x3a>
 800090c:	2000      	movs	r0, #0
 800090e:	e7f4      	b.n	80008fa <__eqsf2+0x3a>

08000910 <__gesf2>:
 8000910:	b530      	push	{r4, r5, lr}
 8000912:	0042      	lsls	r2, r0, #1
 8000914:	0244      	lsls	r4, r0, #9
 8000916:	024d      	lsls	r5, r1, #9
 8000918:	0fc3      	lsrs	r3, r0, #31
 800091a:	0048      	lsls	r0, r1, #1
 800091c:	0a64      	lsrs	r4, r4, #9
 800091e:	0e12      	lsrs	r2, r2, #24
 8000920:	0a6d      	lsrs	r5, r5, #9
 8000922:	0e00      	lsrs	r0, r0, #24
 8000924:	0fc9      	lsrs	r1, r1, #31
 8000926:	2aff      	cmp	r2, #255	@ 0xff
 8000928:	d019      	beq.n	800095e <__gesf2+0x4e>
 800092a:	28ff      	cmp	r0, #255	@ 0xff
 800092c:	d00b      	beq.n	8000946 <__gesf2+0x36>
 800092e:	2a00      	cmp	r2, #0
 8000930:	d11e      	bne.n	8000970 <__gesf2+0x60>
 8000932:	2800      	cmp	r0, #0
 8000934:	d10b      	bne.n	800094e <__gesf2+0x3e>
 8000936:	2d00      	cmp	r5, #0
 8000938:	d027      	beq.n	800098a <__gesf2+0x7a>
 800093a:	2c00      	cmp	r4, #0
 800093c:	d134      	bne.n	80009a8 <__gesf2+0x98>
 800093e:	2900      	cmp	r1, #0
 8000940:	d02f      	beq.n	80009a2 <__gesf2+0x92>
 8000942:	0008      	movs	r0, r1
 8000944:	bd30      	pop	{r4, r5, pc}
 8000946:	2d00      	cmp	r5, #0
 8000948:	d128      	bne.n	800099c <__gesf2+0x8c>
 800094a:	2a00      	cmp	r2, #0
 800094c:	d101      	bne.n	8000952 <__gesf2+0x42>
 800094e:	2c00      	cmp	r4, #0
 8000950:	d0f5      	beq.n	800093e <__gesf2+0x2e>
 8000952:	428b      	cmp	r3, r1
 8000954:	d107      	bne.n	8000966 <__gesf2+0x56>
 8000956:	2b00      	cmp	r3, #0
 8000958:	d023      	beq.n	80009a2 <__gesf2+0x92>
 800095a:	0018      	movs	r0, r3
 800095c:	e7f2      	b.n	8000944 <__gesf2+0x34>
 800095e:	2c00      	cmp	r4, #0
 8000960:	d11c      	bne.n	800099c <__gesf2+0x8c>
 8000962:	28ff      	cmp	r0, #255	@ 0xff
 8000964:	d014      	beq.n	8000990 <__gesf2+0x80>
 8000966:	1e58      	subs	r0, r3, #1
 8000968:	2302      	movs	r3, #2
 800096a:	4018      	ands	r0, r3
 800096c:	3801      	subs	r0, #1
 800096e:	e7e9      	b.n	8000944 <__gesf2+0x34>
 8000970:	2800      	cmp	r0, #0
 8000972:	d0f8      	beq.n	8000966 <__gesf2+0x56>
 8000974:	428b      	cmp	r3, r1
 8000976:	d1f6      	bne.n	8000966 <__gesf2+0x56>
 8000978:	4282      	cmp	r2, r0
 800097a:	dcf4      	bgt.n	8000966 <__gesf2+0x56>
 800097c:	dbeb      	blt.n	8000956 <__gesf2+0x46>
 800097e:	42ac      	cmp	r4, r5
 8000980:	d8f1      	bhi.n	8000966 <__gesf2+0x56>
 8000982:	2000      	movs	r0, #0
 8000984:	42ac      	cmp	r4, r5
 8000986:	d2dd      	bcs.n	8000944 <__gesf2+0x34>
 8000988:	e7e5      	b.n	8000956 <__gesf2+0x46>
 800098a:	2c00      	cmp	r4, #0
 800098c:	d0da      	beq.n	8000944 <__gesf2+0x34>
 800098e:	e7ea      	b.n	8000966 <__gesf2+0x56>
 8000990:	2d00      	cmp	r5, #0
 8000992:	d103      	bne.n	800099c <__gesf2+0x8c>
 8000994:	428b      	cmp	r3, r1
 8000996:	d1e6      	bne.n	8000966 <__gesf2+0x56>
 8000998:	2000      	movs	r0, #0
 800099a:	e7d3      	b.n	8000944 <__gesf2+0x34>
 800099c:	2002      	movs	r0, #2
 800099e:	4240      	negs	r0, r0
 80009a0:	e7d0      	b.n	8000944 <__gesf2+0x34>
 80009a2:	2001      	movs	r0, #1
 80009a4:	4240      	negs	r0, r0
 80009a6:	e7cd      	b.n	8000944 <__gesf2+0x34>
 80009a8:	428b      	cmp	r3, r1
 80009aa:	d0e8      	beq.n	800097e <__gesf2+0x6e>
 80009ac:	e7db      	b.n	8000966 <__gesf2+0x56>
 80009ae:	46c0      	nop			@ (mov r8, r8)

080009b0 <__lesf2>:
 80009b0:	b530      	push	{r4, r5, lr}
 80009b2:	0042      	lsls	r2, r0, #1
 80009b4:	0244      	lsls	r4, r0, #9
 80009b6:	024d      	lsls	r5, r1, #9
 80009b8:	0fc3      	lsrs	r3, r0, #31
 80009ba:	0048      	lsls	r0, r1, #1
 80009bc:	0a64      	lsrs	r4, r4, #9
 80009be:	0e12      	lsrs	r2, r2, #24
 80009c0:	0a6d      	lsrs	r5, r5, #9
 80009c2:	0e00      	lsrs	r0, r0, #24
 80009c4:	0fc9      	lsrs	r1, r1, #31
 80009c6:	2aff      	cmp	r2, #255	@ 0xff
 80009c8:	d01a      	beq.n	8000a00 <__lesf2+0x50>
 80009ca:	28ff      	cmp	r0, #255	@ 0xff
 80009cc:	d00e      	beq.n	80009ec <__lesf2+0x3c>
 80009ce:	2a00      	cmp	r2, #0
 80009d0:	d11e      	bne.n	8000a10 <__lesf2+0x60>
 80009d2:	2800      	cmp	r0, #0
 80009d4:	d10e      	bne.n	80009f4 <__lesf2+0x44>
 80009d6:	2d00      	cmp	r5, #0
 80009d8:	d02a      	beq.n	8000a30 <__lesf2+0x80>
 80009da:	2c00      	cmp	r4, #0
 80009dc:	d00c      	beq.n	80009f8 <__lesf2+0x48>
 80009de:	428b      	cmp	r3, r1
 80009e0:	d01d      	beq.n	8000a1e <__lesf2+0x6e>
 80009e2:	1e58      	subs	r0, r3, #1
 80009e4:	2302      	movs	r3, #2
 80009e6:	4018      	ands	r0, r3
 80009e8:	3801      	subs	r0, #1
 80009ea:	e010      	b.n	8000a0e <__lesf2+0x5e>
 80009ec:	2d00      	cmp	r5, #0
 80009ee:	d10d      	bne.n	8000a0c <__lesf2+0x5c>
 80009f0:	2a00      	cmp	r2, #0
 80009f2:	d120      	bne.n	8000a36 <__lesf2+0x86>
 80009f4:	2c00      	cmp	r4, #0
 80009f6:	d11e      	bne.n	8000a36 <__lesf2+0x86>
 80009f8:	2900      	cmp	r1, #0
 80009fa:	d023      	beq.n	8000a44 <__lesf2+0x94>
 80009fc:	0008      	movs	r0, r1
 80009fe:	e006      	b.n	8000a0e <__lesf2+0x5e>
 8000a00:	2c00      	cmp	r4, #0
 8000a02:	d103      	bne.n	8000a0c <__lesf2+0x5c>
 8000a04:	28ff      	cmp	r0, #255	@ 0xff
 8000a06:	d1ec      	bne.n	80009e2 <__lesf2+0x32>
 8000a08:	2d00      	cmp	r5, #0
 8000a0a:	d017      	beq.n	8000a3c <__lesf2+0x8c>
 8000a0c:	2002      	movs	r0, #2
 8000a0e:	bd30      	pop	{r4, r5, pc}
 8000a10:	2800      	cmp	r0, #0
 8000a12:	d0e6      	beq.n	80009e2 <__lesf2+0x32>
 8000a14:	428b      	cmp	r3, r1
 8000a16:	d1e4      	bne.n	80009e2 <__lesf2+0x32>
 8000a18:	4282      	cmp	r2, r0
 8000a1a:	dce2      	bgt.n	80009e2 <__lesf2+0x32>
 8000a1c:	db04      	blt.n	8000a28 <__lesf2+0x78>
 8000a1e:	42ac      	cmp	r4, r5
 8000a20:	d8df      	bhi.n	80009e2 <__lesf2+0x32>
 8000a22:	2000      	movs	r0, #0
 8000a24:	42ac      	cmp	r4, r5
 8000a26:	d2f2      	bcs.n	8000a0e <__lesf2+0x5e>
 8000a28:	2b00      	cmp	r3, #0
 8000a2a:	d00b      	beq.n	8000a44 <__lesf2+0x94>
 8000a2c:	0018      	movs	r0, r3
 8000a2e:	e7ee      	b.n	8000a0e <__lesf2+0x5e>
 8000a30:	2c00      	cmp	r4, #0
 8000a32:	d0ec      	beq.n	8000a0e <__lesf2+0x5e>
 8000a34:	e7d5      	b.n	80009e2 <__lesf2+0x32>
 8000a36:	428b      	cmp	r3, r1
 8000a38:	d1d3      	bne.n	80009e2 <__lesf2+0x32>
 8000a3a:	e7f5      	b.n	8000a28 <__lesf2+0x78>
 8000a3c:	2000      	movs	r0, #0
 8000a3e:	428b      	cmp	r3, r1
 8000a40:	d0e5      	beq.n	8000a0e <__lesf2+0x5e>
 8000a42:	e7ce      	b.n	80009e2 <__lesf2+0x32>
 8000a44:	2001      	movs	r0, #1
 8000a46:	4240      	negs	r0, r0
 8000a48:	e7e1      	b.n	8000a0e <__lesf2+0x5e>
 8000a4a:	46c0      	nop			@ (mov r8, r8)

08000a4c <__aeabi_fsub>:
 8000a4c:	b5f8      	push	{r3, r4, r5, r6, r7, lr}
 8000a4e:	4647      	mov	r7, r8
 8000a50:	46ce      	mov	lr, r9
 8000a52:	024e      	lsls	r6, r1, #9
 8000a54:	0243      	lsls	r3, r0, #9
 8000a56:	0045      	lsls	r5, r0, #1
 8000a58:	0a72      	lsrs	r2, r6, #9
 8000a5a:	0fc4      	lsrs	r4, r0, #31
 8000a5c:	0048      	lsls	r0, r1, #1
 8000a5e:	b580      	push	{r7, lr}
 8000a60:	4694      	mov	ip, r2
 8000a62:	0a5f      	lsrs	r7, r3, #9
 8000a64:	0e2d      	lsrs	r5, r5, #24
 8000a66:	099b      	lsrs	r3, r3, #6
 8000a68:	0e00      	lsrs	r0, r0, #24
 8000a6a:	0fc9      	lsrs	r1, r1, #31
 8000a6c:	09b6      	lsrs	r6, r6, #6
 8000a6e:	28ff      	cmp	r0, #255	@ 0xff
 8000a70:	d024      	beq.n	8000abc <__aeabi_fsub+0x70>
 8000a72:	2201      	movs	r2, #1
 8000a74:	4051      	eors	r1, r2
 8000a76:	1a2a      	subs	r2, r5, r0
 8000a78:	428c      	cmp	r4, r1
 8000a7a:	d00f      	beq.n	8000a9c <__aeabi_fsub+0x50>
 8000a7c:	2a00      	cmp	r2, #0
 8000a7e:	dc00      	bgt.n	8000a82 <__aeabi_fsub+0x36>
 8000a80:	e16a      	b.n	8000d58 <__aeabi_fsub+0x30c>
 8000a82:	2800      	cmp	r0, #0
 8000a84:	d135      	bne.n	8000af2 <__aeabi_fsub+0xa6>
 8000a86:	2e00      	cmp	r6, #0
 8000a88:	d100      	bne.n	8000a8c <__aeabi_fsub+0x40>
 8000a8a:	e0a2      	b.n	8000bd2 <__aeabi_fsub+0x186>
 8000a8c:	1e51      	subs	r1, r2, #1
 8000a8e:	2a01      	cmp	r2, #1
 8000a90:	d100      	bne.n	8000a94 <__aeabi_fsub+0x48>
 8000a92:	e124      	b.n	8000cde <__aeabi_fsub+0x292>
 8000a94:	2aff      	cmp	r2, #255	@ 0xff
 8000a96:	d021      	beq.n	8000adc <__aeabi_fsub+0x90>
 8000a98:	000a      	movs	r2, r1
 8000a9a:	e02f      	b.n	8000afc <__aeabi_fsub+0xb0>
 8000a9c:	2a00      	cmp	r2, #0
 8000a9e:	dc00      	bgt.n	8000aa2 <__aeabi_fsub+0x56>
 8000aa0:	e167      	b.n	8000d72 <__aeabi_fsub+0x326>
 8000aa2:	2800      	cmp	r0, #0
 8000aa4:	d05e      	beq.n	8000b64 <__aeabi_fsub+0x118>
 8000aa6:	2dff      	cmp	r5, #255	@ 0xff
 8000aa8:	d018      	beq.n	8000adc <__aeabi_fsub+0x90>
 8000aaa:	2180      	movs	r1, #128	@ 0x80
 8000aac:	04c9      	lsls	r1, r1, #19
 8000aae:	430e      	orrs	r6, r1
 8000ab0:	2a1b      	cmp	r2, #27
 8000ab2:	dc00      	bgt.n	8000ab6 <__aeabi_fsub+0x6a>
 8000ab4:	e076      	b.n	8000ba4 <__aeabi_fsub+0x158>
 8000ab6:	002a      	movs	r2, r5
 8000ab8:	3301      	adds	r3, #1
 8000aba:	e032      	b.n	8000b22 <__aeabi_fsub+0xd6>
 8000abc:	002a      	movs	r2, r5
 8000abe:	3aff      	subs	r2, #255	@ 0xff
 8000ac0:	4691      	mov	r9, r2
 8000ac2:	2e00      	cmp	r6, #0
 8000ac4:	d042      	beq.n	8000b4c <__aeabi_fsub+0x100>
 8000ac6:	428c      	cmp	r4, r1
 8000ac8:	d055      	beq.n	8000b76 <__aeabi_fsub+0x12a>
 8000aca:	464a      	mov	r2, r9
 8000acc:	2a00      	cmp	r2, #0
 8000ace:	d100      	bne.n	8000ad2 <__aeabi_fsub+0x86>
 8000ad0:	e09c      	b.n	8000c0c <__aeabi_fsub+0x1c0>
 8000ad2:	2d00      	cmp	r5, #0
 8000ad4:	d100      	bne.n	8000ad8 <__aeabi_fsub+0x8c>
 8000ad6:	e077      	b.n	8000bc8 <__aeabi_fsub+0x17c>
 8000ad8:	000c      	movs	r4, r1
 8000ada:	0033      	movs	r3, r6
 8000adc:	08db      	lsrs	r3, r3, #3
 8000ade:	2b00      	cmp	r3, #0
 8000ae0:	d100      	bne.n	8000ae4 <__aeabi_fsub+0x98>
 8000ae2:	e06e      	b.n	8000bc2 <__aeabi_fsub+0x176>
 8000ae4:	2280      	movs	r2, #128	@ 0x80
 8000ae6:	03d2      	lsls	r2, r2, #15
 8000ae8:	4313      	orrs	r3, r2
 8000aea:	025b      	lsls	r3, r3, #9
 8000aec:	20ff      	movs	r0, #255	@ 0xff
 8000aee:	0a5b      	lsrs	r3, r3, #9
 8000af0:	e024      	b.n	8000b3c <__aeabi_fsub+0xf0>
 8000af2:	2dff      	cmp	r5, #255	@ 0xff
 8000af4:	d0f2      	beq.n	8000adc <__aeabi_fsub+0x90>
 8000af6:	2180      	movs	r1, #128	@ 0x80
 8000af8:	04c9      	lsls	r1, r1, #19
 8000afa:	430e      	orrs	r6, r1
 8000afc:	2101      	movs	r1, #1
 8000afe:	2a1b      	cmp	r2, #27
 8000b00:	dc08      	bgt.n	8000b14 <__aeabi_fsub+0xc8>
 8000b02:	0031      	movs	r1, r6
 8000b04:	2020      	movs	r0, #32
 8000b06:	40d1      	lsrs	r1, r2
 8000b08:	1a82      	subs	r2, r0, r2
 8000b0a:	4096      	lsls	r6, r2
 8000b0c:	0032      	movs	r2, r6
 8000b0e:	1e50      	subs	r0, r2, #1
 8000b10:	4182      	sbcs	r2, r0
 8000b12:	4311      	orrs	r1, r2
 8000b14:	1a5b      	subs	r3, r3, r1
 8000b16:	015a      	lsls	r2, r3, #5
 8000b18:	d460      	bmi.n	8000bdc <__aeabi_fsub+0x190>
 8000b1a:	2107      	movs	r1, #7
 8000b1c:	002a      	movs	r2, r5
 8000b1e:	4019      	ands	r1, r3
 8000b20:	d057      	beq.n	8000bd2 <__aeabi_fsub+0x186>
 8000b22:	210f      	movs	r1, #15
 8000b24:	4019      	ands	r1, r3
 8000b26:	2904      	cmp	r1, #4
 8000b28:	d000      	beq.n	8000b2c <__aeabi_fsub+0xe0>
 8000b2a:	3304      	adds	r3, #4
 8000b2c:	0159      	lsls	r1, r3, #5
 8000b2e:	d550      	bpl.n	8000bd2 <__aeabi_fsub+0x186>
 8000b30:	1c50      	adds	r0, r2, #1
 8000b32:	2afe      	cmp	r2, #254	@ 0xfe
 8000b34:	d045      	beq.n	8000bc2 <__aeabi_fsub+0x176>
 8000b36:	019b      	lsls	r3, r3, #6
 8000b38:	b2c0      	uxtb	r0, r0
 8000b3a:	0a5b      	lsrs	r3, r3, #9
 8000b3c:	05c0      	lsls	r0, r0, #23
 8000b3e:	4318      	orrs	r0, r3
 8000b40:	07e4      	lsls	r4, r4, #31
 8000b42:	4320      	orrs	r0, r4
 8000b44:	bcc0      	pop	{r6, r7}
 8000b46:	46b9      	mov	r9, r7
 8000b48:	46b0      	mov	r8, r6
 8000b4a:	bdf8      	pop	{r3, r4, r5, r6, r7, pc}
 8000b4c:	2201      	movs	r2, #1
 8000b4e:	4051      	eors	r1, r2
 8000b50:	428c      	cmp	r4, r1
 8000b52:	d1ba      	bne.n	8000aca <__aeabi_fsub+0x7e>
 8000b54:	464a      	mov	r2, r9
 8000b56:	2a00      	cmp	r2, #0
 8000b58:	d010      	beq.n	8000b7c <__aeabi_fsub+0x130>
 8000b5a:	2d00      	cmp	r5, #0
 8000b5c:	d100      	bne.n	8000b60 <__aeabi_fsub+0x114>
 8000b5e:	e098      	b.n	8000c92 <__aeabi_fsub+0x246>
 8000b60:	2300      	movs	r3, #0
 8000b62:	e7bb      	b.n	8000adc <__aeabi_fsub+0x90>
 8000b64:	2e00      	cmp	r6, #0
 8000b66:	d034      	beq.n	8000bd2 <__aeabi_fsub+0x186>
 8000b68:	1e51      	subs	r1, r2, #1
 8000b6a:	2a01      	cmp	r2, #1
 8000b6c:	d06e      	beq.n	8000c4c <__aeabi_fsub+0x200>
 8000b6e:	2aff      	cmp	r2, #255	@ 0xff
 8000b70:	d0b4      	beq.n	8000adc <__aeabi_fsub+0x90>
 8000b72:	000a      	movs	r2, r1
 8000b74:	e79c      	b.n	8000ab0 <__aeabi_fsub+0x64>
 8000b76:	2a00      	cmp	r2, #0
 8000b78:	d000      	beq.n	8000b7c <__aeabi_fsub+0x130>
 8000b7a:	e088      	b.n	8000c8e <__aeabi_fsub+0x242>
 8000b7c:	20fe      	movs	r0, #254	@ 0xfe
 8000b7e:	1c6a      	adds	r2, r5, #1
 8000b80:	4210      	tst	r0, r2
 8000b82:	d000      	beq.n	8000b86 <__aeabi_fsub+0x13a>
 8000b84:	e092      	b.n	8000cac <__aeabi_fsub+0x260>
 8000b86:	2d00      	cmp	r5, #0
 8000b88:	d000      	beq.n	8000b8c <__aeabi_fsub+0x140>
 8000b8a:	e0a4      	b.n	8000cd6 <__aeabi_fsub+0x28a>
 8000b8c:	2b00      	cmp	r3, #0
 8000b8e:	d100      	bne.n	8000b92 <__aeabi_fsub+0x146>
 8000b90:	e0cb      	b.n	8000d2a <__aeabi_fsub+0x2de>
 8000b92:	2e00      	cmp	r6, #0
 8000b94:	d000      	beq.n	8000b98 <__aeabi_fsub+0x14c>
 8000b96:	e0ca      	b.n	8000d2e <__aeabi_fsub+0x2e2>
 8000b98:	2200      	movs	r2, #0
 8000b9a:	08db      	lsrs	r3, r3, #3
 8000b9c:	025b      	lsls	r3, r3, #9
 8000b9e:	0a5b      	lsrs	r3, r3, #9
 8000ba0:	b2d0      	uxtb	r0, r2
 8000ba2:	e7cb      	b.n	8000b3c <__aeabi_fsub+0xf0>
 8000ba4:	0031      	movs	r1, r6
 8000ba6:	2020      	movs	r0, #32
 8000ba8:	40d1      	lsrs	r1, r2
 8000baa:	1a82      	subs	r2, r0, r2
 8000bac:	4096      	lsls	r6, r2
 8000bae:	0032      	movs	r2, r6
 8000bb0:	1e50      	subs	r0, r2, #1
 8000bb2:	4182      	sbcs	r2, r0
 8000bb4:	430a      	orrs	r2, r1
 8000bb6:	189b      	adds	r3, r3, r2
 8000bb8:	015a      	lsls	r2, r3, #5
 8000bba:	d5ae      	bpl.n	8000b1a <__aeabi_fsub+0xce>
 8000bbc:	1c6a      	adds	r2, r5, #1
 8000bbe:	2dfe      	cmp	r5, #254	@ 0xfe
 8000bc0:	d14a      	bne.n	8000c58 <__aeabi_fsub+0x20c>
 8000bc2:	20ff      	movs	r0, #255	@ 0xff
 8000bc4:	2300      	movs	r3, #0
 8000bc6:	e7b9      	b.n	8000b3c <__aeabi_fsub+0xf0>
 8000bc8:	22ff      	movs	r2, #255	@ 0xff
 8000bca:	2b00      	cmp	r3, #0
 8000bcc:	d14b      	bne.n	8000c66 <__aeabi_fsub+0x21a>
 8000bce:	000c      	movs	r4, r1
 8000bd0:	0033      	movs	r3, r6
 8000bd2:	08db      	lsrs	r3, r3, #3
 8000bd4:	2aff      	cmp	r2, #255	@ 0xff
 8000bd6:	d100      	bne.n	8000bda <__aeabi_fsub+0x18e>
 8000bd8:	e781      	b.n	8000ade <__aeabi_fsub+0x92>
 8000bda:	e7df      	b.n	8000b9c <__aeabi_fsub+0x150>
 8000bdc:	019f      	lsls	r7, r3, #6
 8000bde:	09bf      	lsrs	r7, r7, #6
 8000be0:	0038      	movs	r0, r7
 8000be2:	f000 f97b 	bl	8000edc <__clzsi2>
 8000be6:	3805      	subs	r0, #5
 8000be8:	4087      	lsls	r7, r0
 8000bea:	4285      	cmp	r5, r0
 8000bec:	dc21      	bgt.n	8000c32 <__aeabi_fsub+0x1e6>
 8000bee:	003b      	movs	r3, r7
 8000bf0:	2120      	movs	r1, #32
 8000bf2:	1b42      	subs	r2, r0, r5
 8000bf4:	3201      	adds	r2, #1
 8000bf6:	40d3      	lsrs	r3, r2
 8000bf8:	1a8a      	subs	r2, r1, r2
 8000bfa:	4097      	lsls	r7, r2
 8000bfc:	1e7a      	subs	r2, r7, #1
 8000bfe:	4197      	sbcs	r7, r2
 8000c00:	2200      	movs	r2, #0
 8000c02:	433b      	orrs	r3, r7
 8000c04:	0759      	lsls	r1, r3, #29
 8000c06:	d000      	beq.n	8000c0a <__aeabi_fsub+0x1be>
 8000c08:	e78b      	b.n	8000b22 <__aeabi_fsub+0xd6>
 8000c0a:	e78f      	b.n	8000b2c <__aeabi_fsub+0xe0>
 8000c0c:	20fe      	movs	r0, #254	@ 0xfe
 8000c0e:	1c6a      	adds	r2, r5, #1
 8000c10:	4210      	tst	r0, r2
 8000c12:	d112      	bne.n	8000c3a <__aeabi_fsub+0x1ee>
 8000c14:	2d00      	cmp	r5, #0
 8000c16:	d152      	bne.n	8000cbe <__aeabi_fsub+0x272>
 8000c18:	2b00      	cmp	r3, #0
 8000c1a:	d07c      	beq.n	8000d16 <__aeabi_fsub+0x2ca>
 8000c1c:	2e00      	cmp	r6, #0
 8000c1e:	d0bb      	beq.n	8000b98 <__aeabi_fsub+0x14c>
 8000c20:	1b9a      	subs	r2, r3, r6
 8000c22:	0150      	lsls	r0, r2, #5
 8000c24:	d400      	bmi.n	8000c28 <__aeabi_fsub+0x1dc>
 8000c26:	e08b      	b.n	8000d40 <__aeabi_fsub+0x2f4>
 8000c28:	2401      	movs	r4, #1
 8000c2a:	2200      	movs	r2, #0
 8000c2c:	1af3      	subs	r3, r6, r3
 8000c2e:	400c      	ands	r4, r1
 8000c30:	e7e8      	b.n	8000c04 <__aeabi_fsub+0x1b8>
 8000c32:	4b56      	ldr	r3, [pc, #344]	@ (8000d8c <__aeabi_fsub+0x340>)
 8000c34:	1a2a      	subs	r2, r5, r0
 8000c36:	403b      	ands	r3, r7
 8000c38:	e7e4      	b.n	8000c04 <__aeabi_fsub+0x1b8>
 8000c3a:	1b9f      	subs	r7, r3, r6
 8000c3c:	017a      	lsls	r2, r7, #5
 8000c3e:	d446      	bmi.n	8000cce <__aeabi_fsub+0x282>
 8000c40:	2f00      	cmp	r7, #0
 8000c42:	d1cd      	bne.n	8000be0 <__aeabi_fsub+0x194>
 8000c44:	2400      	movs	r4, #0
 8000c46:	2000      	movs	r0, #0
 8000c48:	2300      	movs	r3, #0
 8000c4a:	e777      	b.n	8000b3c <__aeabi_fsub+0xf0>
 8000c4c:	199b      	adds	r3, r3, r6
 8000c4e:	2501      	movs	r5, #1
 8000c50:	3201      	adds	r2, #1
 8000c52:	0159      	lsls	r1, r3, #5
 8000c54:	d400      	bmi.n	8000c58 <__aeabi_fsub+0x20c>
 8000c56:	e760      	b.n	8000b1a <__aeabi_fsub+0xce>
 8000c58:	2101      	movs	r1, #1
 8000c5a:	484d      	ldr	r0, [pc, #308]	@ (8000d90 <__aeabi_fsub+0x344>)
 8000c5c:	4019      	ands	r1, r3
 8000c5e:	085b      	lsrs	r3, r3, #1
 8000c60:	4003      	ands	r3, r0
 8000c62:	430b      	orrs	r3, r1
 8000c64:	e7ce      	b.n	8000c04 <__aeabi_fsub+0x1b8>
 8000c66:	1e57      	subs	r7, r2, #1
 8000c68:	2a01      	cmp	r2, #1
 8000c6a:	d05a      	beq.n	8000d22 <__aeabi_fsub+0x2d6>
 8000c6c:	000c      	movs	r4, r1
 8000c6e:	2aff      	cmp	r2, #255	@ 0xff
 8000c70:	d033      	beq.n	8000cda <__aeabi_fsub+0x28e>
 8000c72:	2201      	movs	r2, #1
 8000c74:	2f1b      	cmp	r7, #27
 8000c76:	dc07      	bgt.n	8000c88 <__aeabi_fsub+0x23c>
 8000c78:	2120      	movs	r1, #32
 8000c7a:	1bc9      	subs	r1, r1, r7
 8000c7c:	001a      	movs	r2, r3
 8000c7e:	408b      	lsls	r3, r1
 8000c80:	40fa      	lsrs	r2, r7
 8000c82:	1e59      	subs	r1, r3, #1
 8000c84:	418b      	sbcs	r3, r1
 8000c86:	431a      	orrs	r2, r3
 8000c88:	0005      	movs	r5, r0
 8000c8a:	1ab3      	subs	r3, r6, r2
 8000c8c:	e743      	b.n	8000b16 <__aeabi_fsub+0xca>
 8000c8e:	2d00      	cmp	r5, #0
 8000c90:	d123      	bne.n	8000cda <__aeabi_fsub+0x28e>
 8000c92:	22ff      	movs	r2, #255	@ 0xff
 8000c94:	2b00      	cmp	r3, #0
 8000c96:	d09b      	beq.n	8000bd0 <__aeabi_fsub+0x184>
 8000c98:	1e51      	subs	r1, r2, #1
 8000c9a:	2a01      	cmp	r2, #1
 8000c9c:	d0d6      	beq.n	8000c4c <__aeabi_fsub+0x200>
 8000c9e:	2aff      	cmp	r2, #255	@ 0xff
 8000ca0:	d01b      	beq.n	8000cda <__aeabi_fsub+0x28e>
 8000ca2:	291b      	cmp	r1, #27
 8000ca4:	dd2c      	ble.n	8000d00 <__aeabi_fsub+0x2b4>
 8000ca6:	0002      	movs	r2, r0
 8000ca8:	1c73      	adds	r3, r6, #1
 8000caa:	e73a      	b.n	8000b22 <__aeabi_fsub+0xd6>
 8000cac:	2aff      	cmp	r2, #255	@ 0xff
 8000cae:	d088      	beq.n	8000bc2 <__aeabi_fsub+0x176>
 8000cb0:	199b      	adds	r3, r3, r6
 8000cb2:	085b      	lsrs	r3, r3, #1
 8000cb4:	0759      	lsls	r1, r3, #29
 8000cb6:	d000      	beq.n	8000cba <__aeabi_fsub+0x26e>
 8000cb8:	e733      	b.n	8000b22 <__aeabi_fsub+0xd6>
 8000cba:	08db      	lsrs	r3, r3, #3
 8000cbc:	e76e      	b.n	8000b9c <__aeabi_fsub+0x150>
 8000cbe:	2b00      	cmp	r3, #0
 8000cc0:	d110      	bne.n	8000ce4 <__aeabi_fsub+0x298>
 8000cc2:	2e00      	cmp	r6, #0
 8000cc4:	d043      	beq.n	8000d4e <__aeabi_fsub+0x302>
 8000cc6:	2401      	movs	r4, #1
 8000cc8:	0033      	movs	r3, r6
 8000cca:	400c      	ands	r4, r1
 8000ccc:	e706      	b.n	8000adc <__aeabi_fsub+0x90>
 8000cce:	2401      	movs	r4, #1
 8000cd0:	1af7      	subs	r7, r6, r3
 8000cd2:	400c      	ands	r4, r1
 8000cd4:	e784      	b.n	8000be0 <__aeabi_fsub+0x194>
 8000cd6:	2b00      	cmp	r3, #0
 8000cd8:	d104      	bne.n	8000ce4 <__aeabi_fsub+0x298>
 8000cda:	0033      	movs	r3, r6
 8000cdc:	e6fe      	b.n	8000adc <__aeabi_fsub+0x90>
 8000cde:	2501      	movs	r5, #1
 8000ce0:	1b9b      	subs	r3, r3, r6
 8000ce2:	e718      	b.n	8000b16 <__aeabi_fsub+0xca>
 8000ce4:	2e00      	cmp	r6, #0
 8000ce6:	d100      	bne.n	8000cea <__aeabi_fsub+0x29e>
 8000ce8:	e6f8      	b.n	8000adc <__aeabi_fsub+0x90>
 8000cea:	2280      	movs	r2, #128	@ 0x80
 8000cec:	03d2      	lsls	r2, r2, #15
 8000cee:	4297      	cmp	r7, r2
 8000cf0:	d304      	bcc.n	8000cfc <__aeabi_fsub+0x2b0>
 8000cf2:	4594      	cmp	ip, r2
 8000cf4:	d202      	bcs.n	8000cfc <__aeabi_fsub+0x2b0>
 8000cf6:	2401      	movs	r4, #1
 8000cf8:	0033      	movs	r3, r6
 8000cfa:	400c      	ands	r4, r1
 8000cfc:	08db      	lsrs	r3, r3, #3
 8000cfe:	e6f1      	b.n	8000ae4 <__aeabi_fsub+0x98>
 8000d00:	001a      	movs	r2, r3
 8000d02:	2520      	movs	r5, #32
 8000d04:	40ca      	lsrs	r2, r1
 8000d06:	1a69      	subs	r1, r5, r1
 8000d08:	408b      	lsls	r3, r1
 8000d0a:	1e59      	subs	r1, r3, #1
 8000d0c:	418b      	sbcs	r3, r1
 8000d0e:	4313      	orrs	r3, r2
 8000d10:	0005      	movs	r5, r0
 8000d12:	199b      	adds	r3, r3, r6
 8000d14:	e750      	b.n	8000bb8 <__aeabi_fsub+0x16c>
 8000d16:	2e00      	cmp	r6, #0
 8000d18:	d094      	beq.n	8000c44 <__aeabi_fsub+0x1f8>
 8000d1a:	2401      	movs	r4, #1
 8000d1c:	0033      	movs	r3, r6
 8000d1e:	400c      	ands	r4, r1
 8000d20:	e73a      	b.n	8000b98 <__aeabi_fsub+0x14c>
 8000d22:	000c      	movs	r4, r1
 8000d24:	2501      	movs	r5, #1
 8000d26:	1af3      	subs	r3, r6, r3
 8000d28:	e6f5      	b.n	8000b16 <__aeabi_fsub+0xca>
 8000d2a:	0033      	movs	r3, r6
 8000d2c:	e734      	b.n	8000b98 <__aeabi_fsub+0x14c>
 8000d2e:	199b      	adds	r3, r3, r6
 8000d30:	2200      	movs	r2, #0
 8000d32:	0159      	lsls	r1, r3, #5
 8000d34:	d5c1      	bpl.n	8000cba <__aeabi_fsub+0x26e>
 8000d36:	4a15      	ldr	r2, [pc, #84]	@ (8000d8c <__aeabi_fsub+0x340>)
 8000d38:	4013      	ands	r3, r2
 8000d3a:	08db      	lsrs	r3, r3, #3
 8000d3c:	2201      	movs	r2, #1
 8000d3e:	e72d      	b.n	8000b9c <__aeabi_fsub+0x150>
 8000d40:	2a00      	cmp	r2, #0
 8000d42:	d100      	bne.n	8000d46 <__aeabi_fsub+0x2fa>
 8000d44:	e77e      	b.n	8000c44 <__aeabi_fsub+0x1f8>
 8000d46:	0013      	movs	r3, r2
 8000d48:	2200      	movs	r2, #0
 8000d4a:	08db      	lsrs	r3, r3, #3
 8000d4c:	e726      	b.n	8000b9c <__aeabi_fsub+0x150>
 8000d4e:	2380      	movs	r3, #128	@ 0x80
 8000d50:	2400      	movs	r4, #0
 8000d52:	20ff      	movs	r0, #255	@ 0xff
 8000d54:	03db      	lsls	r3, r3, #15
 8000d56:	e6f1      	b.n	8000b3c <__aeabi_fsub+0xf0>
 8000d58:	2a00      	cmp	r2, #0
 8000d5a:	d100      	bne.n	8000d5e <__aeabi_fsub+0x312>
 8000d5c:	e756      	b.n	8000c0c <__aeabi_fsub+0x1c0>
 8000d5e:	1b47      	subs	r7, r0, r5
 8000d60:	003a      	movs	r2, r7
 8000d62:	2d00      	cmp	r5, #0
 8000d64:	d100      	bne.n	8000d68 <__aeabi_fsub+0x31c>
 8000d66:	e730      	b.n	8000bca <__aeabi_fsub+0x17e>
 8000d68:	2280      	movs	r2, #128	@ 0x80
 8000d6a:	04d2      	lsls	r2, r2, #19
 8000d6c:	000c      	movs	r4, r1
 8000d6e:	4313      	orrs	r3, r2
 8000d70:	e77f      	b.n	8000c72 <__aeabi_fsub+0x226>
 8000d72:	2a00      	cmp	r2, #0
 8000d74:	d100      	bne.n	8000d78 <__aeabi_fsub+0x32c>
 8000d76:	e701      	b.n	8000b7c <__aeabi_fsub+0x130>
 8000d78:	1b41      	subs	r1, r0, r5
 8000d7a:	2d00      	cmp	r5, #0
 8000d7c:	d101      	bne.n	8000d82 <__aeabi_fsub+0x336>
 8000d7e:	000a      	movs	r2, r1
 8000d80:	e788      	b.n	8000c94 <__aeabi_fsub+0x248>
 8000d82:	2280      	movs	r2, #128	@ 0x80
 8000d84:	04d2      	lsls	r2, r2, #19
 8000d86:	4313      	orrs	r3, r2
 8000d88:	e78b      	b.n	8000ca2 <__aeabi_fsub+0x256>
 8000d8a:	46c0      	nop			@ (mov r8, r8)
 8000d8c:	fbffffff 	.word	0xfbffffff
 8000d90:	7dffffff 	.word	0x7dffffff

08000d94 <__aeabi_f2iz>:
 8000d94:	0241      	lsls	r1, r0, #9
 8000d96:	0042      	lsls	r2, r0, #1
 8000d98:	0fc3      	lsrs	r3, r0, #31
 8000d9a:	0a49      	lsrs	r1, r1, #9
 8000d9c:	2000      	movs	r0, #0
 8000d9e:	0e12      	lsrs	r2, r2, #24
 8000da0:	2a7e      	cmp	r2, #126	@ 0x7e
 8000da2:	dd03      	ble.n	8000dac <__aeabi_f2iz+0x18>
 8000da4:	2a9d      	cmp	r2, #157	@ 0x9d
 8000da6:	dd02      	ble.n	8000dae <__aeabi_f2iz+0x1a>
 8000da8:	4a09      	ldr	r2, [pc, #36]	@ (8000dd0 <__aeabi_f2iz+0x3c>)
 8000daa:	1898      	adds	r0, r3, r2
 8000dac:	4770      	bx	lr
 8000dae:	2080      	movs	r0, #128	@ 0x80
 8000db0:	0400      	lsls	r0, r0, #16
 8000db2:	4301      	orrs	r1, r0
 8000db4:	2a95      	cmp	r2, #149	@ 0x95
 8000db6:	dc07      	bgt.n	8000dc8 <__aeabi_f2iz+0x34>
 8000db8:	2096      	movs	r0, #150	@ 0x96
 8000dba:	1a82      	subs	r2, r0, r2
 8000dbc:	40d1      	lsrs	r1, r2
 8000dbe:	4248      	negs	r0, r1
 8000dc0:	2b00      	cmp	r3, #0
 8000dc2:	d1f3      	bne.n	8000dac <__aeabi_f2iz+0x18>
 8000dc4:	0008      	movs	r0, r1
 8000dc6:	e7f1      	b.n	8000dac <__aeabi_f2iz+0x18>
 8000dc8:	3a96      	subs	r2, #150	@ 0x96
 8000dca:	4091      	lsls	r1, r2
 8000dcc:	e7f7      	b.n	8000dbe <__aeabi_f2iz+0x2a>
 8000dce:	46c0      	nop			@ (mov r8, r8)
 8000dd0:	7fffffff 	.word	0x7fffffff

08000dd4 <__aeabi_d2f>:
 8000dd4:	b5f0      	push	{r4, r5, r6, r7, lr}
 8000dd6:	004b      	lsls	r3, r1, #1
 8000dd8:	030f      	lsls	r7, r1, #12
 8000dda:	0d5b      	lsrs	r3, r3, #21
 8000ddc:	4c3b      	ldr	r4, [pc, #236]	@ (8000ecc <__aeabi_d2f+0xf8>)
 8000dde:	0f45      	lsrs	r5, r0, #29
 8000de0:	b083      	sub	sp, #12
 8000de2:	0a7f      	lsrs	r7, r7, #9
 8000de4:	1c5e      	adds	r6, r3, #1
 8000de6:	432f      	orrs	r7, r5
 8000de8:	9000      	str	r0, [sp, #0]
 8000dea:	9101      	str	r1, [sp, #4]
 8000dec:	0fca      	lsrs	r2, r1, #31
 8000dee:	00c5      	lsls	r5, r0, #3
 8000df0:	4226      	tst	r6, r4
 8000df2:	d00b      	beq.n	8000e0c <__aeabi_d2f+0x38>
 8000df4:	4936      	ldr	r1, [pc, #216]	@ (8000ed0 <__aeabi_d2f+0xfc>)
 8000df6:	185c      	adds	r4, r3, r1
 8000df8:	2cfe      	cmp	r4, #254	@ 0xfe
 8000dfa:	dd13      	ble.n	8000e24 <__aeabi_d2f+0x50>
 8000dfc:	20ff      	movs	r0, #255	@ 0xff
 8000dfe:	2300      	movs	r3, #0
 8000e00:	05c0      	lsls	r0, r0, #23
 8000e02:	4318      	orrs	r0, r3
 8000e04:	07d2      	lsls	r2, r2, #31
 8000e06:	4310      	orrs	r0, r2
 8000e08:	b003      	add	sp, #12
 8000e0a:	bdf0      	pop	{r4, r5, r6, r7, pc}
 8000e0c:	2b00      	cmp	r3, #0
 8000e0e:	d102      	bne.n	8000e16 <__aeabi_d2f+0x42>
 8000e10:	2000      	movs	r0, #0
 8000e12:	2300      	movs	r3, #0
 8000e14:	e7f4      	b.n	8000e00 <__aeabi_d2f+0x2c>
 8000e16:	433d      	orrs	r5, r7
 8000e18:	d0f0      	beq.n	8000dfc <__aeabi_d2f+0x28>
 8000e1a:	2380      	movs	r3, #128	@ 0x80
 8000e1c:	03db      	lsls	r3, r3, #15
 8000e1e:	20ff      	movs	r0, #255	@ 0xff
 8000e20:	433b      	orrs	r3, r7
 8000e22:	e7ed      	b.n	8000e00 <__aeabi_d2f+0x2c>
 8000e24:	2c00      	cmp	r4, #0
 8000e26:	dd14      	ble.n	8000e52 <__aeabi_d2f+0x7e>
 8000e28:	9b00      	ldr	r3, [sp, #0]
 8000e2a:	00ff      	lsls	r7, r7, #3
 8000e2c:	019b      	lsls	r3, r3, #6
 8000e2e:	1e58      	subs	r0, r3, #1
 8000e30:	4183      	sbcs	r3, r0
 8000e32:	0f69      	lsrs	r1, r5, #29
 8000e34:	433b      	orrs	r3, r7
 8000e36:	430b      	orrs	r3, r1
 8000e38:	0759      	lsls	r1, r3, #29
 8000e3a:	d041      	beq.n	8000ec0 <__aeabi_d2f+0xec>
 8000e3c:	210f      	movs	r1, #15
 8000e3e:	4019      	ands	r1, r3
 8000e40:	2904      	cmp	r1, #4
 8000e42:	d028      	beq.n	8000e96 <__aeabi_d2f+0xc2>
 8000e44:	3304      	adds	r3, #4
 8000e46:	0159      	lsls	r1, r3, #5
 8000e48:	d525      	bpl.n	8000e96 <__aeabi_d2f+0xc2>
 8000e4a:	3401      	adds	r4, #1
 8000e4c:	2300      	movs	r3, #0
 8000e4e:	b2e0      	uxtb	r0, r4
 8000e50:	e7d6      	b.n	8000e00 <__aeabi_d2f+0x2c>
 8000e52:	0021      	movs	r1, r4
 8000e54:	3117      	adds	r1, #23
 8000e56:	dbdb      	blt.n	8000e10 <__aeabi_d2f+0x3c>
 8000e58:	2180      	movs	r1, #128	@ 0x80
 8000e5a:	201e      	movs	r0, #30
 8000e5c:	0409      	lsls	r1, r1, #16
 8000e5e:	4339      	orrs	r1, r7
 8000e60:	1b00      	subs	r0, r0, r4
 8000e62:	281f      	cmp	r0, #31
 8000e64:	dd1b      	ble.n	8000e9e <__aeabi_d2f+0xca>
 8000e66:	2602      	movs	r6, #2
 8000e68:	4276      	negs	r6, r6
 8000e6a:	1b34      	subs	r4, r6, r4
 8000e6c:	000e      	movs	r6, r1
 8000e6e:	40e6      	lsrs	r6, r4
 8000e70:	0034      	movs	r4, r6
 8000e72:	2820      	cmp	r0, #32
 8000e74:	d004      	beq.n	8000e80 <__aeabi_d2f+0xac>
 8000e76:	4817      	ldr	r0, [pc, #92]	@ (8000ed4 <__aeabi_d2f+0x100>)
 8000e78:	4684      	mov	ip, r0
 8000e7a:	4463      	add	r3, ip
 8000e7c:	4099      	lsls	r1, r3
 8000e7e:	430d      	orrs	r5, r1
 8000e80:	002b      	movs	r3, r5
 8000e82:	1e59      	subs	r1, r3, #1
 8000e84:	418b      	sbcs	r3, r1
 8000e86:	4323      	orrs	r3, r4
 8000e88:	0759      	lsls	r1, r3, #29
 8000e8a:	d015      	beq.n	8000eb8 <__aeabi_d2f+0xe4>
 8000e8c:	210f      	movs	r1, #15
 8000e8e:	2400      	movs	r4, #0
 8000e90:	4019      	ands	r1, r3
 8000e92:	2904      	cmp	r1, #4
 8000e94:	d117      	bne.n	8000ec6 <__aeabi_d2f+0xf2>
 8000e96:	019b      	lsls	r3, r3, #6
 8000e98:	0a5b      	lsrs	r3, r3, #9
 8000e9a:	b2e0      	uxtb	r0, r4
 8000e9c:	e7b0      	b.n	8000e00 <__aeabi_d2f+0x2c>
 8000e9e:	4c0e      	ldr	r4, [pc, #56]	@ (8000ed8 <__aeabi_d2f+0x104>)
 8000ea0:	191c      	adds	r4, r3, r4
 8000ea2:	002b      	movs	r3, r5
 8000ea4:	40a5      	lsls	r5, r4
 8000ea6:	40c3      	lsrs	r3, r0
 8000ea8:	40a1      	lsls	r1, r4
 8000eaa:	1e68      	subs	r0, r5, #1
 8000eac:	4185      	sbcs	r5, r0
 8000eae:	4329      	orrs	r1, r5
 8000eb0:	430b      	orrs	r3, r1
 8000eb2:	2400      	movs	r4, #0
 8000eb4:	0759      	lsls	r1, r3, #29
 8000eb6:	d1c1      	bne.n	8000e3c <__aeabi_d2f+0x68>
 8000eb8:	019b      	lsls	r3, r3, #6
 8000eba:	2000      	movs	r0, #0
 8000ebc:	0a5b      	lsrs	r3, r3, #9
 8000ebe:	e79f      	b.n	8000e00 <__aeabi_d2f+0x2c>
 8000ec0:	08db      	lsrs	r3, r3, #3
 8000ec2:	b2e0      	uxtb	r0, r4
 8000ec4:	e79c      	b.n	8000e00 <__aeabi_d2f+0x2c>
 8000ec6:	3304      	adds	r3, #4
 8000ec8:	e7e5      	b.n	8000e96 <__aeabi_d2f+0xc2>
 8000eca:	46c0      	nop			@ (mov r8, r8)
 8000ecc:	000007fe 	.word	0x000007fe
 8000ed0:	fffffc80 	.word	0xfffffc80
 8000ed4:	fffffca2 	.word	0xfffffca2
 8000ed8:	fffffc82 	.word	0xfffffc82

08000edc <__clzsi2>:
 8000edc:	211c      	movs	r1, #28
 8000ede:	2301      	movs	r3, #1
 8000ee0:	041b      	lsls	r3, r3, #16
 8000ee2:	4298      	cmp	r0, r3
 8000ee4:	d301      	bcc.n	8000eea <__clzsi2+0xe>
 8000ee6:	0c00      	lsrs	r0, r0, #16
 8000ee8:	3910      	subs	r1, #16
 8000eea:	0a1b      	lsrs	r3, r3, #8
 8000eec:	4298      	cmp	r0, r3
 8000eee:	d301      	bcc.n	8000ef4 <__clzsi2+0x18>
 8000ef0:	0a00      	lsrs	r0, r0, #8
 8000ef2:	3908      	subs	r1, #8
 8000ef4:	091b      	lsrs	r3, r3, #4
 8000ef6:	4298      	cmp	r0, r3
 8000ef8:	d301      	bcc.n	8000efe <__clzsi2+0x22>
 8000efa:	0900      	lsrs	r0, r0, #4
 8000efc:	3904      	subs	r1, #4
 8000efe:	a202      	add	r2, pc, #8	@ (adr r2, 8000f08 <__clzsi2+0x2c>)
 8000f00:	5c10      	ldrb	r0, [r2, r0]
 8000f02:	1840      	adds	r0, r0, r1
 8000f04:	4770      	bx	lr
 8000f06:	46c0      	nop			@ (mov r8, r8)
 8000f08:	02020304 	.word	0x02020304
 8000f0c:	01010101 	.word	0x01010101
	...

08000f18 <__clzdi2>:
 8000f18:	b510      	push	{r4, lr}
 8000f1a:	2900      	cmp	r1, #0
 8000f1c:	d103      	bne.n	8000f26 <__clzdi2+0xe>
 8000f1e:	f7ff ffdd 	bl	8000edc <__clzsi2>
 8000f22:	3020      	adds	r0, #32
 8000f24:	e002      	b.n	8000f2c <__clzdi2+0x14>
 8000f26:	0008      	movs	r0, r1
 8000f28:	f7ff ffd8 	bl	8000edc <__clzsi2>
 8000f2c:	bd10      	pop	{r4, pc}
 8000f2e:	46c0      	nop			@ (mov r8, r8)

08000f30 <drawPixel>:
 8000f30:	b590      	push	{r4, r7, lr}
 8000f32:	b083      	sub	sp, #12
 8000f34:	af00      	add	r7, sp, #0
 8000f36:	0004      	movs	r4, r0
 8000f38:	0008      	movs	r0, r1
 8000f3a:	0011      	movs	r1, r2
 8000f3c:	1dbb      	adds	r3, r7, #6
 8000f3e:	1c22      	adds	r2, r4, #0
 8000f40:	801a      	strh	r2, [r3, #0]
 8000f42:	1d3b      	adds	r3, r7, #4
 8000f44:	1c02      	adds	r2, r0, #0
 8000f46:	801a      	strh	r2, [r3, #0]
 8000f48:	1cbb      	adds	r3, r7, #2
 8000f4a:	1c0a      	adds	r2, r1, #0
 8000f4c:	801a      	strh	r2, [r3, #0]
 8000f4e:	1d3b      	adds	r3, r7, #4
 8000f50:	8818      	ldrh	r0, [r3, #0]
 8000f52:	1dbb      	adds	r3, r7, #6
 8000f54:	8819      	ldrh	r1, [r3, #0]
 8000f56:	1cbb      	adds	r3, r7, #2
 8000f58:	881b      	ldrh	r3, [r3, #0]
 8000f5a:	001a      	movs	r2, r3
 8000f5c:	f000 fd00 	bl	8001960 <ST7735_DrawPixel>
 8000f60:	46c0      	nop			@ (mov r8, r8)
 8000f62:	46bd      	mov	sp, r7
 8000f64:	b003      	add	sp, #12
 8000f66:	bd90      	pop	{r4, r7, pc}

08000f68 <fillRect>:
 8000f68:	b5f0      	push	{r4, r5, r6, r7, lr}
 8000f6a:	46c6      	mov	lr, r8
 8000f6c:	b500      	push	{lr}
 8000f6e:	b090      	sub	sp, #64	@ 0x40
 8000f70:	af04      	add	r7, sp, #16
 8000f72:	468c      	mov	ip, r1
 8000f74:	0016      	movs	r6, r2
 8000f76:	0019      	movs	r1, r3
 8000f78:	221e      	movs	r2, #30
 8000f7a:	18ba      	adds	r2, r7, r2
 8000f7c:	1c03      	adds	r3, r0, #0
 8000f7e:	8013      	strh	r3, [r2, #0]
 8000f80:	231c      	movs	r3, #28
 8000f82:	18fb      	adds	r3, r7, r3
 8000f84:	4662      	mov	r2, ip
 8000f86:	801a      	strh	r2, [r3, #0]
 8000f88:	201a      	movs	r0, #26
 8000f8a:	183b      	adds	r3, r7, r0
 8000f8c:	1c32      	adds	r2, r6, #0
 8000f8e:	801a      	strh	r2, [r3, #0]
 8000f90:	2018      	movs	r0, #24
 8000f92:	183b      	adds	r3, r7, r0
 8000f94:	1c0a      	adds	r2, r1, #0
 8000f96:	801a      	strh	r2, [r3, #0]
 8000f98:	466b      	mov	r3, sp
 8000f9a:	4698      	mov	r8, r3
 8000f9c:	230c      	movs	r3, #12
 8000f9e:	0001      	movs	r1, r0
 8000fa0:	185e      	adds	r6, r3, r1
 8000fa2:	19f2      	adds	r2, r6, r7
 8000fa4:	2030      	movs	r0, #48	@ 0x30
 8000fa6:	1846      	adds	r6, r0, r1
 8000fa8:	19f3      	adds	r3, r6, r7
 8000faa:	881b      	ldrh	r3, [r3, #0]
 8000fac:	8013      	strh	r3, [r2, #0]
 8000fae:	201a      	movs	r0, #26
 8000fb0:	183b      	adds	r3, r7, r0
 8000fb2:	2200      	movs	r2, #0
 8000fb4:	5e9b      	ldrsh	r3, [r3, r2]
 8000fb6:	187a      	adds	r2, r7, r1
 8000fb8:	2000      	movs	r0, #0
 8000fba:	5e12      	ldrsh	r2, [r2, r0]
 8000fbc:	4353      	muls	r3, r2
 8000fbe:	1e5a      	subs	r2, r3, #1
 8000fc0:	62fa      	str	r2, [r7, #44]	@ 0x2c
 8000fc2:	001a      	movs	r2, r3
 8000fc4:	60ba      	str	r2, [r7, #8]
 8000fc6:	2200      	movs	r2, #0
 8000fc8:	60fa      	str	r2, [r7, #12]
 8000fca:	68b8      	ldr	r0, [r7, #8]
 8000fcc:	68f9      	ldr	r1, [r7, #12]
 8000fce:	0002      	movs	r2, r0
 8000fd0:	0ed2      	lsrs	r2, r2, #27
 8000fd2:	000e      	movs	r6, r1
 8000fd4:	0176      	lsls	r6, r6, #5
 8000fd6:	617e      	str	r6, [r7, #20]
 8000fd8:	697e      	ldr	r6, [r7, #20]
 8000fda:	4316      	orrs	r6, r2
 8000fdc:	617e      	str	r6, [r7, #20]
 8000fde:	0002      	movs	r2, r0
 8000fe0:	0152      	lsls	r2, r2, #5
 8000fe2:	613a      	str	r2, [r7, #16]
 8000fe4:	001a      	movs	r2, r3
 8000fe6:	603a      	str	r2, [r7, #0]
 8000fe8:	2200      	movs	r2, #0
 8000fea:	607a      	str	r2, [r7, #4]
 8000fec:	6838      	ldr	r0, [r7, #0]
 8000fee:	6879      	ldr	r1, [r7, #4]
 8000ff0:	0002      	movs	r2, r0
 8000ff2:	0ed2      	lsrs	r2, r2, #27
 8000ff4:	000e      	movs	r6, r1
 8000ff6:	0175      	lsls	r5, r6, #5
 8000ff8:	4315      	orrs	r5, r2
 8000ffa:	0002      	movs	r2, r0
 8000ffc:	0154      	lsls	r4, r2, #5
 8000ffe:	009b      	lsls	r3, r3, #2
 8001000:	3307      	adds	r3, #7
 8001002:	08db      	lsrs	r3, r3, #3
 8001004:	00db      	lsls	r3, r3, #3
 8001006:	466a      	mov	r2, sp
 8001008:	1ad2      	subs	r2, r2, r3
 800100a:	4695      	mov	sp, r2
 800100c:	ab04      	add	r3, sp, #16
 800100e:	3301      	adds	r3, #1
 8001010:	085b      	lsrs	r3, r3, #1
 8001012:	005b      	lsls	r3, r3, #1
 8001014:	62bb      	str	r3, [r7, #40]	@ 0x28
 8001016:	6abb      	ldr	r3, [r7, #40]	@ 0x28
 8001018:	2200      	movs	r2, #0
 800101a:	801a      	strh	r2, [r3, #0]
 800101c:	201a      	movs	r0, #26
 800101e:	183b      	adds	r3, r7, r0
 8001020:	881b      	ldrh	r3, [r3, #0]
 8001022:	2118      	movs	r1, #24
 8001024:	187a      	adds	r2, r7, r1
 8001026:	8812      	ldrh	r2, [r2, #0]
 8001028:	4353      	muls	r3, r2
 800102a:	b29a      	uxth	r2, r3
 800102c:	6abb      	ldr	r3, [r7, #40]	@ 0x28
 800102e:	805a      	strh	r2, [r3, #2]
 8001030:	221e      	movs	r2, #30
 8001032:	18bb      	adds	r3, r7, r2
 8001034:	881c      	ldrh	r4, [r3, #0]
 8001036:	231c      	movs	r3, #28
 8001038:	18fb      	adds	r3, r7, r3
 800103a:	881d      	ldrh	r5, [r3, #0]
 800103c:	183b      	adds	r3, r7, r0
 800103e:	881b      	ldrh	r3, [r3, #0]
 8001040:	0008      	movs	r0, r1
 8001042:	187a      	adds	r2, r7, r1
 8001044:	8812      	ldrh	r2, [r2, #0]
 8001046:	210c      	movs	r1, #12
 8001048:	1809      	adds	r1, r1, r0
 800104a:	19c9      	adds	r1, r1, r7
 800104c:	6ab8      	ldr	r0, [r7, #40]	@ 0x28
 800104e:	2601      	movs	r6, #1
 8001050:	46b4      	mov	ip, r6
 8001052:	4666      	mov	r6, ip
 8001054:	9602      	str	r6, [sp, #8]
 8001056:	9201      	str	r2, [sp, #4]
 8001058:	9300      	str	r3, [sp, #0]
 800105a:	002b      	movs	r3, r5
 800105c:	0022      	movs	r2, r4
 800105e:	f000 f9dd 	bl	800141c <drawImage>
 8001062:	46c5      	mov	sp, r8
 8001064:	46c0      	nop			@ (mov r8, r8)
 8001066:	46bd      	mov	sp, r7
 8001068:	b00c      	add	sp, #48	@ 0x30
 800106a:	bc80      	pop	{r7}
 800106c:	46b8      	mov	r8, r7
 800106e:	bdf0      	pop	{r4, r5, r6, r7, pc}

08001070 <writePixel>:
 8001070:	b590      	push	{r4, r7, lr}
 8001072:	b083      	sub	sp, #12
 8001074:	af00      	add	r7, sp, #0
 8001076:	0004      	movs	r4, r0
 8001078:	0008      	movs	r0, r1
 800107a:	0011      	movs	r1, r2
 800107c:	1dbb      	adds	r3, r7, #6
 800107e:	1c22      	adds	r2, r4, #0
 8001080:	801a      	strh	r2, [r3, #0]
 8001082:	1d3b      	adds	r3, r7, #4
 8001084:	1c02      	adds	r2, r0, #0
 8001086:	801a      	strh	r2, [r3, #0]
 8001088:	1cbb      	adds	r3, r7, #2
 800108a:	1c0a      	adds	r2, r1, #0
 800108c:	801a      	strh	r2, [r3, #0]
 800108e:	1cbb      	adds	r3, r7, #2
 8001090:	881a      	ldrh	r2, [r3, #0]
 8001092:	1d3b      	adds	r3, r7, #4
 8001094:	2100      	movs	r1, #0
 8001096:	5e59      	ldrsh	r1, [r3, r1]
 8001098:	1dbb      	adds	r3, r7, #6
 800109a:	2000      	movs	r0, #0
 800109c:	5e1b      	ldrsh	r3, [r3, r0]
 800109e:	0018      	movs	r0, r3
 80010a0:	f7ff ff46 	bl	8000f30 <drawPixel>
 80010a4:	46c0      	nop			@ (mov r8, r8)
 80010a6:	46bd      	mov	sp, r7
 80010a8:	b003      	add	sp, #12
 80010aa:	bd90      	pop	{r4, r7, pc}

080010ac <drawString>:
 80010ac:	b5f0      	push	{r4, r5, r6, r7, lr}
 80010ae:	b089      	sub	sp, #36	@ 0x24
 80010b0:	af02      	add	r7, sp, #8
 80010b2:	0004      	movs	r4, r0
 80010b4:	0008      	movs	r0, r1
 80010b6:	60ba      	str	r2, [r7, #8]
 80010b8:	0019      	movs	r1, r3
 80010ba:	230e      	movs	r3, #14
 80010bc:	18fb      	adds	r3, r7, r3
 80010be:	1c22      	adds	r2, r4, #0
 80010c0:	801a      	strh	r2, [r3, #0]
 80010c2:	230c      	movs	r3, #12
 80010c4:	18fb      	adds	r3, r7, r3
 80010c6:	1c02      	adds	r2, r0, #0
 80010c8:	801a      	strh	r2, [r3, #0]
 80010ca:	1dbb      	adds	r3, r7, #6
 80010cc:	1c0a      	adds	r2, r1, #0
 80010ce:	801a      	strh	r2, [r3, #0]
 80010d0:	2316      	movs	r3, #22
 80010d2:	18fb      	adds	r3, r7, r3
 80010d4:	2200      	movs	r2, #0
 80010d6:	801a      	strh	r2, [r3, #0]
 80010d8:	e03f      	b.n	800115a <drawString+0xae>
 80010da:	2516      	movs	r5, #22
 80010dc:	197b      	adds	r3, r7, r5
 80010de:	881b      	ldrh	r3, [r3, #0]
 80010e0:	68ba      	ldr	r2, [r7, #8]
 80010e2:	18d3      	adds	r3, r2, r3
 80010e4:	781b      	ldrb	r3, [r3, #0]
 80010e6:	469c      	mov	ip, r3
 80010e8:	1dbb      	adds	r3, r7, #6
 80010ea:	2400      	movs	r4, #0
 80010ec:	5f1c      	ldrsh	r4, [r3, r4]
 80010ee:	230c      	movs	r3, #12
 80010f0:	18fb      	adds	r3, r7, r3
 80010f2:	2100      	movs	r1, #0
 80010f4:	5e59      	ldrsh	r1, [r3, r1]
 80010f6:	260e      	movs	r6, #14
 80010f8:	19bb      	adds	r3, r7, r6
 80010fa:	2000      	movs	r0, #0
 80010fc:	5e18      	ldrsh	r0, [r3, r0]
 80010fe:	232c      	movs	r3, #44	@ 0x2c
 8001100:	2208      	movs	r2, #8
 8001102:	189b      	adds	r3, r3, r2
 8001104:	19db      	adds	r3, r3, r7
 8001106:	781b      	ldrb	r3, [r3, #0]
 8001108:	9301      	str	r3, [sp, #4]
 800110a:	2328      	movs	r3, #40	@ 0x28
 800110c:	189b      	adds	r3, r3, r2
 800110e:	19db      	adds	r3, r3, r7
 8001110:	2200      	movs	r2, #0
 8001112:	5e9b      	ldrsh	r3, [r3, r2]
 8001114:	9300      	str	r3, [sp, #0]
 8001116:	0023      	movs	r3, r4
 8001118:	4662      	mov	r2, ip
 800111a:	f000 f82b 	bl	8001174 <drawChar>
 800111e:	232c      	movs	r3, #44	@ 0x2c
 8001120:	2108      	movs	r1, #8
 8001122:	185b      	adds	r3, r3, r1
 8001124:	19db      	adds	r3, r3, r7
 8001126:	781b      	ldrb	r3, [r3, #0]
 8001128:	b29b      	uxth	r3, r3
 800112a:	1c1a      	adds	r2, r3, #0
 800112c:	1c13      	adds	r3, r2, #0
 800112e:	18db      	adds	r3, r3, r3
 8001130:	189b      	adds	r3, r3, r2
 8001132:	18db      	adds	r3, r3, r3
 8001134:	b29a      	uxth	r2, r3
 8001136:	2330      	movs	r3, #48	@ 0x30
 8001138:	185b      	adds	r3, r3, r1
 800113a:	19db      	adds	r3, r3, r7
 800113c:	781b      	ldrb	r3, [r3, #0]
 800113e:	b29b      	uxth	r3, r3
 8001140:	18d3      	adds	r3, r2, r3
 8001142:	b29a      	uxth	r2, r3
 8001144:	19bb      	adds	r3, r7, r6
 8001146:	881b      	ldrh	r3, [r3, #0]
 8001148:	18d3      	adds	r3, r2, r3
 800114a:	b29a      	uxth	r2, r3
 800114c:	19bb      	adds	r3, r7, r6
 800114e:	801a      	strh	r2, [r3, #0]
 8001150:	197b      	adds	r3, r7, r5
 8001152:	881a      	ldrh	r2, [r3, #0]
 8001154:	197b      	adds	r3, r7, r5
 8001156:	3201      	adds	r2, #1
 8001158:	801a      	strh	r2, [r3, #0]
 800115a:	2316      	movs	r3, #22
 800115c:	18fb      	adds	r3, r7, r3
 800115e:	881b      	ldrh	r3, [r3, #0]
 8001160:	68ba      	ldr	r2, [r7, #8]
 8001162:	18d3      	adds	r3, r2, r3
 8001164:	781b      	ldrb	r3, [r3, #0]
 8001166:	2b00      	cmp	r3, #0
 8001168:	d1b7      	bne.n	80010da <drawString+0x2e>
 800116a:	46c0      	nop			@ (mov r8, r8)
 800116c:	46c0      	nop			@ (mov r8, r8)
 800116e:	46bd      	mov	sp, r7
 8001170:	b007      	add	sp, #28
 8001172:	bdf0      	pop	{r4, r5, r6, r7, pc}

08001174 <drawChar>:
 8001174:	b5b0      	push	{r4, r5, r7, lr}
 8001176:	b088      	sub	sp, #32
 8001178:	af02      	add	r7, sp, #8
 800117a:	0005      	movs	r5, r0
 800117c:	000c      	movs	r4, r1
 800117e:	0010      	movs	r0, r2
 8001180:	0019      	movs	r1, r3
 8001182:	1dbb      	adds	r3, r7, #6
 8001184:	1c2a      	adds	r2, r5, #0
 8001186:	801a      	strh	r2, [r3, #0]
 8001188:	1d3b      	adds	r3, r7, #4
 800118a:	1c22      	adds	r2, r4, #0
 800118c:	801a      	strh	r2, [r3, #0]
 800118e:	1cfb      	adds	r3, r7, #3
 8001190:	1c02      	adds	r2, r0, #0
 8001192:	701a      	strb	r2, [r3, #0]
 8001194:	003b      	movs	r3, r7
 8001196:	1c0a      	adds	r2, r1, #0
 8001198:	801a      	strh	r2, [r3, #0]
 800119a:	2300      	movs	r3, #0
 800119c:	613b      	str	r3, [r7, #16]
 800119e:	e0bd      	b.n	800131c <drawChar+0x1a8>
 80011a0:	693b      	ldr	r3, [r7, #16]
 80011a2:	2b05      	cmp	r3, #5
 80011a4:	d104      	bne.n	80011b0 <drawChar+0x3c>
 80011a6:	2317      	movs	r3, #23
 80011a8:	18fb      	adds	r3, r7, r3
 80011aa:	2200      	movs	r2, #0
 80011ac:	701a      	strb	r2, [r3, #0]
 80011ae:	e00b      	b.n	80011c8 <drawChar+0x54>
 80011b0:	1cfb      	adds	r3, r7, #3
 80011b2:	781a      	ldrb	r2, [r3, #0]
 80011b4:	0013      	movs	r3, r2
 80011b6:	009b      	lsls	r3, r3, #2
 80011b8:	189a      	adds	r2, r3, r2
 80011ba:	693b      	ldr	r3, [r7, #16]
 80011bc:	18d2      	adds	r2, r2, r3
 80011be:	2317      	movs	r3, #23
 80011c0:	18fb      	adds	r3, r7, r3
 80011c2:	495b      	ldr	r1, [pc, #364]	@ (8001330 <drawChar+0x1bc>)
 80011c4:	5c8a      	ldrb	r2, [r1, r2]
 80011c6:	701a      	strb	r2, [r3, #0]
 80011c8:	2300      	movs	r3, #0
 80011ca:	60fb      	str	r3, [r7, #12]
 80011cc:	e09f      	b.n	800130e <drawChar+0x19a>
 80011ce:	2317      	movs	r3, #23
 80011d0:	18fb      	adds	r3, r7, r3
 80011d2:	781b      	ldrb	r3, [r3, #0]
 80011d4:	2201      	movs	r2, #1
 80011d6:	4013      	ands	r3, r2
 80011d8:	d043      	beq.n	8001262 <drawChar+0xee>
 80011da:	232c      	movs	r3, #44	@ 0x2c
 80011dc:	18fb      	adds	r3, r7, r3
 80011de:	781b      	ldrb	r3, [r3, #0]
 80011e0:	2b01      	cmp	r3, #1
 80011e2:	d115      	bne.n	8001210 <drawChar+0x9c>
 80011e4:	693b      	ldr	r3, [r7, #16]
 80011e6:	b29a      	uxth	r2, r3
 80011e8:	1dbb      	adds	r3, r7, #6
 80011ea:	881b      	ldrh	r3, [r3, #0]
 80011ec:	18d3      	adds	r3, r2, r3
 80011ee:	b29b      	uxth	r3, r3
 80011f0:	b218      	sxth	r0, r3
 80011f2:	1d3b      	adds	r3, r7, #4
 80011f4:	881a      	ldrh	r2, [r3, #0]
 80011f6:	68fb      	ldr	r3, [r7, #12]
 80011f8:	b29b      	uxth	r3, r3
 80011fa:	1ad3      	subs	r3, r2, r3
 80011fc:	b29b      	uxth	r3, r3
 80011fe:	3307      	adds	r3, #7
 8001200:	b29b      	uxth	r3, r3
 8001202:	b219      	sxth	r1, r3
 8001204:	003b      	movs	r3, r7
 8001206:	881b      	ldrh	r3, [r3, #0]
 8001208:	001a      	movs	r2, r3
 800120a:	f7ff ff31 	bl	8001070 <writePixel>
 800120e:	e075      	b.n	80012fc <drawChar+0x188>
 8001210:	212c      	movs	r1, #44	@ 0x2c
 8001212:	187b      	adds	r3, r7, r1
 8001214:	781b      	ldrb	r3, [r3, #0]
 8001216:	b29b      	uxth	r3, r3
 8001218:	693a      	ldr	r2, [r7, #16]
 800121a:	b292      	uxth	r2, r2
 800121c:	4353      	muls	r3, r2
 800121e:	b29a      	uxth	r2, r3
 8001220:	1dbb      	adds	r3, r7, #6
 8001222:	881b      	ldrh	r3, [r3, #0]
 8001224:	18d3      	adds	r3, r2, r3
 8001226:	b29b      	uxth	r3, r3
 8001228:	b218      	sxth	r0, r3
 800122a:	68fb      	ldr	r3, [r7, #12]
 800122c:	2207      	movs	r2, #7
 800122e:	1ad3      	subs	r3, r2, r3
 8001230:	b29b      	uxth	r3, r3
 8001232:	000c      	movs	r4, r1
 8001234:	187a      	adds	r2, r7, r1
 8001236:	7812      	ldrb	r2, [r2, #0]
 8001238:	b292      	uxth	r2, r2
 800123a:	4353      	muls	r3, r2
 800123c:	b29a      	uxth	r2, r3
 800123e:	1d3b      	adds	r3, r7, #4
 8001240:	881b      	ldrh	r3, [r3, #0]
 8001242:	18d3      	adds	r3, r2, r3
 8001244:	b29b      	uxth	r3, r3
 8001246:	b219      	sxth	r1, r3
 8001248:	193b      	adds	r3, r7, r4
 800124a:	781b      	ldrb	r3, [r3, #0]
 800124c:	b21a      	sxth	r2, r3
 800124e:	193b      	adds	r3, r7, r4
 8001250:	781b      	ldrb	r3, [r3, #0]
 8001252:	b21c      	sxth	r4, r3
 8001254:	003b      	movs	r3, r7
 8001256:	881b      	ldrh	r3, [r3, #0]
 8001258:	9300      	str	r3, [sp, #0]
 800125a:	0023      	movs	r3, r4
 800125c:	f7ff fe84 	bl	8000f68 <fillRect>
 8001260:	e04c      	b.n	80012fc <drawChar+0x188>
 8001262:	2428      	movs	r4, #40	@ 0x28
 8001264:	193b      	adds	r3, r7, r4
 8001266:	0039      	movs	r1, r7
 8001268:	2200      	movs	r2, #0
 800126a:	5e9a      	ldrsh	r2, [r3, r2]
 800126c:	2300      	movs	r3, #0
 800126e:	5ecb      	ldrsh	r3, [r1, r3]
 8001270:	429a      	cmp	r2, r3
 8001272:	d043      	beq.n	80012fc <drawChar+0x188>
 8001274:	232c      	movs	r3, #44	@ 0x2c
 8001276:	18fb      	adds	r3, r7, r3
 8001278:	781b      	ldrb	r3, [r3, #0]
 800127a:	2b01      	cmp	r3, #1
 800127c:	d115      	bne.n	80012aa <drawChar+0x136>
 800127e:	693b      	ldr	r3, [r7, #16]
 8001280:	b29a      	uxth	r2, r3
 8001282:	1dbb      	adds	r3, r7, #6
 8001284:	881b      	ldrh	r3, [r3, #0]
 8001286:	18d3      	adds	r3, r2, r3
 8001288:	b29b      	uxth	r3, r3
 800128a:	b218      	sxth	r0, r3
 800128c:	1d3b      	adds	r3, r7, #4
 800128e:	881a      	ldrh	r2, [r3, #0]
 8001290:	68fb      	ldr	r3, [r7, #12]
 8001292:	b29b      	uxth	r3, r3
 8001294:	1ad3      	subs	r3, r2, r3
 8001296:	b29b      	uxth	r3, r3
 8001298:	3307      	adds	r3, #7
 800129a:	b29b      	uxth	r3, r3
 800129c:	b219      	sxth	r1, r3
 800129e:	193b      	adds	r3, r7, r4
 80012a0:	881b      	ldrh	r3, [r3, #0]
 80012a2:	001a      	movs	r2, r3
 80012a4:	f7ff fee4 	bl	8001070 <writePixel>
 80012a8:	e028      	b.n	80012fc <drawChar+0x188>
 80012aa:	212c      	movs	r1, #44	@ 0x2c
 80012ac:	187b      	adds	r3, r7, r1
 80012ae:	781b      	ldrb	r3, [r3, #0]
 80012b0:	b29b      	uxth	r3, r3
 80012b2:	693a      	ldr	r2, [r7, #16]
 80012b4:	b292      	uxth	r2, r2
 80012b6:	4353      	muls	r3, r2
 80012b8:	b29a      	uxth	r2, r3
 80012ba:	1dbb      	adds	r3, r7, #6
 80012bc:	881b      	ldrh	r3, [r3, #0]
 80012be:	18d3      	adds	r3, r2, r3
 80012c0:	b29b      	uxth	r3, r3
 80012c2:	b218      	sxth	r0, r3
 80012c4:	68fb      	ldr	r3, [r7, #12]
 80012c6:	2207      	movs	r2, #7
 80012c8:	1ad3      	subs	r3, r2, r3
 80012ca:	b29b      	uxth	r3, r3
 80012cc:	000c      	movs	r4, r1
 80012ce:	187a      	adds	r2, r7, r1
 80012d0:	7812      	ldrb	r2, [r2, #0]
 80012d2:	b292      	uxth	r2, r2
 80012d4:	4353      	muls	r3, r2
 80012d6:	b29a      	uxth	r2, r3
 80012d8:	1d3b      	adds	r3, r7, #4
 80012da:	881b      	ldrh	r3, [r3, #0]
 80012dc:	18d3      	adds	r3, r2, r3
 80012de:	b29b      	uxth	r3, r3
 80012e0:	b219      	sxth	r1, r3
 80012e2:	193b      	adds	r3, r7, r4
 80012e4:	781b      	ldrb	r3, [r3, #0]
 80012e6:	b21a      	sxth	r2, r3
 80012e8:	193b      	adds	r3, r7, r4
 80012ea:	781b      	ldrb	r3, [r3, #0]
 80012ec:	b21c      	sxth	r4, r3
 80012ee:	2328      	movs	r3, #40	@ 0x28
 80012f0:	18fb      	adds	r3, r7, r3
 80012f2:	881b      	ldrh	r3, [r3, #0]
 80012f4:	9300      	str	r3, [sp, #0]
 80012f6:	0023      	movs	r3, r4
 80012f8:	f7ff fe36 	bl	8000f68 <fillRect>
 80012fc:	2217      	movs	r2, #23
 80012fe:	18bb      	adds	r3, r7, r2
 8001300:	18ba      	adds	r2, r7, r2
 8001302:	7812      	ldrb	r2, [r2, #0]
 8001304:	0852      	lsrs	r2, r2, #1
 8001306:	701a      	strb	r2, [r3, #0]
 8001308:	68fb      	ldr	r3, [r7, #12]
 800130a:	3301      	adds	r3, #1
 800130c:	60fb      	str	r3, [r7, #12]
 800130e:	68fb      	ldr	r3, [r7, #12]
 8001310:	2b07      	cmp	r3, #7
 8001312:	dc00      	bgt.n	8001316 <drawChar+0x1a2>
 8001314:	e75b      	b.n	80011ce <drawChar+0x5a>
 8001316:	693b      	ldr	r3, [r7, #16]
 8001318:	3301      	adds	r3, #1
 800131a:	613b      	str	r3, [r7, #16]
 800131c:	693b      	ldr	r3, [r7, #16]
 800131e:	2b05      	cmp	r3, #5
 8001320:	dc00      	bgt.n	8001324 <drawChar+0x1b0>
 8001322:	e73d      	b.n	80011a0 <drawChar+0x2c>
 8001324:	46c0      	nop			@ (mov r8, r8)
 8001326:	46c0      	nop			@ (mov r8, r8)
 8001328:	46bd      	mov	sp, r7
 800132a:	b006      	add	sp, #24
 800132c:	bdb0      	pop	{r4, r5, r7, pc}
 800132e:	46c0      	nop			@ (mov r8, r8)
 8001330:	08008194 	.word	0x08008194

08001334 <fillScreen>:
 8001334:	b5f0      	push	{r4, r5, r6, r7, lr}
 8001336:	b091      	sub	sp, #68	@ 0x44
 8001338:	af04      	add	r7, sp, #16
 800133a:	231e      	movs	r3, #30
 800133c:	18f9      	adds	r1, r7, r3
 800133e:	8008      	strh	r0, [r1, #0]
 8001340:	4669      	mov	r1, sp
 8001342:	000e      	movs	r6, r1
 8001344:	210c      	movs	r1, #12
 8001346:	2318      	movs	r3, #24
 8001348:	18cb      	adds	r3, r1, r3
 800134a:	19d9      	adds	r1, r3, r7
 800134c:	231e      	movs	r3, #30
 800134e:	18f8      	adds	r0, r7, r3
 8001350:	8800      	ldrh	r0, [r0, #0]
 8001352:	8008      	strh	r0, [r1, #0]
 8001354:	492f      	ldr	r1, [pc, #188]	@ (8001414 <fillScreen+0xe0>)
 8001356:	2300      	movs	r3, #0
 8001358:	5ec9      	ldrsh	r1, [r1, r3]
 800135a:	0008      	movs	r0, r1
 800135c:	492e      	ldr	r1, [pc, #184]	@ (8001418 <fillScreen+0xe4>)
 800135e:	2300      	movs	r3, #0
 8001360:	5ec9      	ldrsh	r1, [r1, r3]
 8001362:	4341      	muls	r1, r0
 8001364:	1e48      	subs	r0, r1, #1
 8001366:	62f8      	str	r0, [r7, #44]	@ 0x2c
 8001368:	0008      	movs	r0, r1
 800136a:	6138      	str	r0, [r7, #16]
 800136c:	2000      	movs	r0, #0
 800136e:	6178      	str	r0, [r7, #20]
 8001370:	693a      	ldr	r2, [r7, #16]
 8001372:	697b      	ldr	r3, [r7, #20]
 8001374:	0010      	movs	r0, r2
 8001376:	0ec0      	lsrs	r0, r0, #27
 8001378:	613a      	str	r2, [r7, #16]
 800137a:	617b      	str	r3, [r7, #20]
 800137c:	015d      	lsls	r5, r3, #5
 800137e:	4305      	orrs	r5, r0
 8001380:	693b      	ldr	r3, [r7, #16]
 8001382:	015c      	lsls	r4, r3, #5
 8001384:	0008      	movs	r0, r1
 8001386:	6038      	str	r0, [r7, #0]
 8001388:	2000      	movs	r0, #0
 800138a:	6078      	str	r0, [r7, #4]
 800138c:	683c      	ldr	r4, [r7, #0]
 800138e:	687d      	ldr	r5, [r7, #4]
 8001390:	0023      	movs	r3, r4
 8001392:	0ed8      	lsrs	r0, r3, #27
 8001394:	002b      	movs	r3, r5
 8001396:	015b      	lsls	r3, r3, #5
 8001398:	60fb      	str	r3, [r7, #12]
 800139a:	68fb      	ldr	r3, [r7, #12]
 800139c:	4303      	orrs	r3, r0
 800139e:	60fb      	str	r3, [r7, #12]
 80013a0:	0023      	movs	r3, r4
 80013a2:	015b      	lsls	r3, r3, #5
 80013a4:	60bb      	str	r3, [r7, #8]
 80013a6:	000b      	movs	r3, r1
 80013a8:	009b      	lsls	r3, r3, #2
 80013aa:	3307      	adds	r3, #7
 80013ac:	08db      	lsrs	r3, r3, #3
 80013ae:	00db      	lsls	r3, r3, #3
 80013b0:	466a      	mov	r2, sp
 80013b2:	1ad3      	subs	r3, r2, r3
 80013b4:	469d      	mov	sp, r3
 80013b6:	ab04      	add	r3, sp, #16
 80013b8:	3301      	adds	r3, #1
 80013ba:	085b      	lsrs	r3, r3, #1
 80013bc:	005b      	lsls	r3, r3, #1
 80013be:	62bb      	str	r3, [r7, #40]	@ 0x28
 80013c0:	6abb      	ldr	r3, [r7, #40]	@ 0x28
 80013c2:	2200      	movs	r2, #0
 80013c4:	801a      	strh	r2, [r3, #0]
 80013c6:	4b13      	ldr	r3, [pc, #76]	@ (8001414 <fillScreen+0xe0>)
 80013c8:	2200      	movs	r2, #0
 80013ca:	5e9b      	ldrsh	r3, [r3, r2]
 80013cc:	b29b      	uxth	r3, r3
 80013ce:	4a12      	ldr	r2, [pc, #72]	@ (8001418 <fillScreen+0xe4>)
 80013d0:	2000      	movs	r0, #0
 80013d2:	5e12      	ldrsh	r2, [r2, r0]
 80013d4:	b292      	uxth	r2, r2
 80013d6:	4353      	muls	r3, r2
 80013d8:	b29a      	uxth	r2, r3
 80013da:	6abb      	ldr	r3, [r7, #40]	@ 0x28
 80013dc:	805a      	strh	r2, [r3, #2]
 80013de:	4b0d      	ldr	r3, [pc, #52]	@ (8001414 <fillScreen+0xe0>)
 80013e0:	2200      	movs	r2, #0
 80013e2:	5e9b      	ldrsh	r3, [r3, r2]
 80013e4:	b29b      	uxth	r3, r3
 80013e6:	4a0c      	ldr	r2, [pc, #48]	@ (8001418 <fillScreen+0xe4>)
 80013e8:	2000      	movs	r0, #0
 80013ea:	5e12      	ldrsh	r2, [r2, r0]
 80013ec:	b292      	uxth	r2, r2
 80013ee:	210c      	movs	r1, #12
 80013f0:	2018      	movs	r0, #24
 80013f2:	1809      	adds	r1, r1, r0
 80013f4:	19c9      	adds	r1, r1, r7
 80013f6:	6ab8      	ldr	r0, [r7, #40]	@ 0x28
 80013f8:	2401      	movs	r4, #1
 80013fa:	9402      	str	r4, [sp, #8]
 80013fc:	9201      	str	r2, [sp, #4]
 80013fe:	9300      	str	r3, [sp, #0]
 8001400:	2300      	movs	r3, #0
 8001402:	2200      	movs	r2, #0
 8001404:	f000 f80a 	bl	800141c <drawImage>
 8001408:	46b5      	mov	sp, r6
 800140a:	46c0      	nop			@ (mov r8, r8)
 800140c:	46bd      	mov	sp, r7
 800140e:	b00d      	add	sp, #52	@ 0x34
 8001410:	bdf0      	pop	{r4, r5, r6, r7, pc}
 8001412:	46c0      	nop			@ (mov r8, r8)
 8001414:	20000a5c 	.word	0x20000a5c
 8001418:	20000a5e 	.word	0x20000a5e

0800141c <drawImage>:
 800141c:	b5f0      	push	{r4, r5, r6, r7, lr}
 800141e:	46c6      	mov	lr, r8
 8001420:	b500      	push	{lr}
 8001422:	b092      	sub	sp, #72	@ 0x48
 8001424:	af02      	add	r7, sp, #8
 8001426:	6278      	str	r0, [r7, #36]	@ 0x24
 8001428:	6239      	str	r1, [r7, #32]
 800142a:	0019      	movs	r1, r3
 800142c:	231e      	movs	r3, #30
 800142e:	18fb      	adds	r3, r7, r3
 8001430:	801a      	strh	r2, [r3, #0]
 8001432:	231c      	movs	r3, #28
 8001434:	18fb      	adds	r3, r7, r3
 8001436:	1c0a      	adds	r2, r1, #0
 8001438:	801a      	strh	r2, [r3, #0]
 800143a:	466b      	mov	r3, sp
 800143c:	4698      	mov	r8, r3
 800143e:	2322      	movs	r3, #34	@ 0x22
 8001440:	2118      	movs	r1, #24
 8001442:	185b      	adds	r3, r3, r1
 8001444:	19db      	adds	r3, r3, r7
 8001446:	2200      	movs	r2, #0
 8001448:	801a      	strh	r2, [r3, #0]
 800144a:	2340      	movs	r3, #64	@ 0x40
 800144c:	185b      	adds	r3, r3, r1
 800144e:	19db      	adds	r3, r3, r7
 8001450:	881b      	ldrh	r3, [r3, #0]
 8001452:	2244      	movs	r2, #68	@ 0x44
 8001454:	1852      	adds	r2, r2, r1
 8001456:	19d2      	adds	r2, r2, r7
 8001458:	8812      	ldrh	r2, [r2, #0]
 800145a:	4353      	muls	r3, r2
 800145c:	1e5a      	subs	r2, r3, #1
 800145e:	637a      	str	r2, [r7, #52]	@ 0x34
 8001460:	001a      	movs	r2, r3
 8001462:	60ba      	str	r2, [r7, #8]
 8001464:	2200      	movs	r2, #0
 8001466:	60fa      	str	r2, [r7, #12]
 8001468:	68b8      	ldr	r0, [r7, #8]
 800146a:	68f9      	ldr	r1, [r7, #12]
 800146c:	0002      	movs	r2, r0
 800146e:	0f12      	lsrs	r2, r2, #28
 8001470:	000e      	movs	r6, r1
 8001472:	0136      	lsls	r6, r6, #4
 8001474:	617e      	str	r6, [r7, #20]
 8001476:	697e      	ldr	r6, [r7, #20]
 8001478:	4316      	orrs	r6, r2
 800147a:	617e      	str	r6, [r7, #20]
 800147c:	0002      	movs	r2, r0
 800147e:	0112      	lsls	r2, r2, #4
 8001480:	613a      	str	r2, [r7, #16]
 8001482:	001a      	movs	r2, r3
 8001484:	603a      	str	r2, [r7, #0]
 8001486:	2200      	movs	r2, #0
 8001488:	607a      	str	r2, [r7, #4]
 800148a:	6838      	ldr	r0, [r7, #0]
 800148c:	6879      	ldr	r1, [r7, #4]
 800148e:	0002      	movs	r2, r0
 8001490:	0f12      	lsrs	r2, r2, #28
 8001492:	000e      	movs	r6, r1
 8001494:	0135      	lsls	r5, r6, #4
 8001496:	4315      	orrs	r5, r2
 8001498:	0002      	movs	r2, r0
 800149a:	0114      	lsls	r4, r2, #4
 800149c:	005b      	lsls	r3, r3, #1
 800149e:	3307      	adds	r3, #7
 80014a0:	08db      	lsrs	r3, r3, #3
 80014a2:	00db      	lsls	r3, r3, #3
 80014a4:	466a      	mov	r2, sp
 80014a6:	1ad3      	subs	r3, r2, r3
 80014a8:	469d      	mov	sp, r3
 80014aa:	ab02      	add	r3, sp, #8
 80014ac:	3301      	adds	r3, #1
 80014ae:	085b      	lsrs	r3, r3, #1
 80014b0:	005b      	lsls	r3, r3, #1
 80014b2:	633b      	str	r3, [r7, #48]	@ 0x30
 80014b4:	2326      	movs	r3, #38	@ 0x26
 80014b6:	2118      	movs	r1, #24
 80014b8:	185b      	adds	r3, r3, r1
 80014ba:	19db      	adds	r3, r3, r7
 80014bc:	2200      	movs	r2, #0
 80014be:	801a      	strh	r2, [r3, #0]
 80014c0:	e04d      	b.n	800155e <drawImage+0x142>
 80014c2:	2126      	movs	r1, #38	@ 0x26
 80014c4:	2018      	movs	r0, #24
 80014c6:	180b      	adds	r3, r1, r0
 80014c8:	19db      	adds	r3, r3, r7
 80014ca:	881b      	ldrh	r3, [r3, #0]
 80014cc:	009b      	lsls	r3, r3, #2
 80014ce:	6a7a      	ldr	r2, [r7, #36]	@ 0x24
 80014d0:	18d2      	adds	r2, r2, r3
 80014d2:	2316      	movs	r3, #22
 80014d4:	181b      	adds	r3, r3, r0
 80014d6:	19db      	adds	r3, r3, r7
 80014d8:	8812      	ldrh	r2, [r2, #0]
 80014da:	801a      	strh	r2, [r3, #0]
 80014dc:	180b      	adds	r3, r1, r0
 80014de:	19db      	adds	r3, r3, r7
 80014e0:	881b      	ldrh	r3, [r3, #0]
 80014e2:	009b      	lsls	r3, r3, #2
 80014e4:	6a7a      	ldr	r2, [r7, #36]	@ 0x24
 80014e6:	18d2      	adds	r2, r2, r3
 80014e8:	2314      	movs	r3, #20
 80014ea:	181b      	adds	r3, r3, r0
 80014ec:	19db      	adds	r3, r3, r7
 80014ee:	8852      	ldrh	r2, [r2, #2]
 80014f0:	801a      	strh	r2, [r3, #0]
 80014f2:	2324      	movs	r3, #36	@ 0x24
 80014f4:	181b      	adds	r3, r3, r0
 80014f6:	19db      	adds	r3, r3, r7
 80014f8:	2200      	movs	r2, #0
 80014fa:	801a      	strh	r2, [r3, #0]
 80014fc:	e01c      	b.n	8001538 <drawImage+0x11c>
 80014fe:	2316      	movs	r3, #22
 8001500:	2418      	movs	r4, #24
 8001502:	191b      	adds	r3, r3, r4
 8001504:	19db      	adds	r3, r3, r7
 8001506:	881b      	ldrh	r3, [r3, #0]
 8001508:	005b      	lsls	r3, r3, #1
 800150a:	6a3a      	ldr	r2, [r7, #32]
 800150c:	18d2      	adds	r2, r2, r3
 800150e:	2122      	movs	r1, #34	@ 0x22
 8001510:	190b      	adds	r3, r1, r4
 8001512:	19db      	adds	r3, r3, r7
 8001514:	881b      	ldrh	r3, [r3, #0]
 8001516:	1909      	adds	r1, r1, r4
 8001518:	19c9      	adds	r1, r1, r7
 800151a:	1c58      	adds	r0, r3, #1
 800151c:	8008      	strh	r0, [r1, #0]
 800151e:	0018      	movs	r0, r3
 8001520:	8811      	ldrh	r1, [r2, #0]
 8001522:	6b3b      	ldr	r3, [r7, #48]	@ 0x30
 8001524:	0042      	lsls	r2, r0, #1
 8001526:	52d1      	strh	r1, [r2, r3]
 8001528:	2124      	movs	r1, #36	@ 0x24
 800152a:	190b      	adds	r3, r1, r4
 800152c:	19db      	adds	r3, r3, r7
 800152e:	881a      	ldrh	r2, [r3, #0]
 8001530:	190b      	adds	r3, r1, r4
 8001532:	19db      	adds	r3, r3, r7
 8001534:	3201      	adds	r2, #1
 8001536:	801a      	strh	r2, [r3, #0]
 8001538:	2324      	movs	r3, #36	@ 0x24
 800153a:	2018      	movs	r0, #24
 800153c:	181b      	adds	r3, r3, r0
 800153e:	19da      	adds	r2, r3, r7
 8001540:	2314      	movs	r3, #20
 8001542:	181b      	adds	r3, r3, r0
 8001544:	19db      	adds	r3, r3, r7
 8001546:	8812      	ldrh	r2, [r2, #0]
 8001548:	881b      	ldrh	r3, [r3, #0]
 800154a:	429a      	cmp	r2, r3
 800154c:	d3d7      	bcc.n	80014fe <drawImage+0xe2>
 800154e:	2126      	movs	r1, #38	@ 0x26
 8001550:	180b      	adds	r3, r1, r0
 8001552:	19db      	adds	r3, r3, r7
 8001554:	881a      	ldrh	r2, [r3, #0]
 8001556:	180b      	adds	r3, r1, r0
 8001558:	19db      	adds	r3, r3, r7
 800155a:	3201      	adds	r2, #1
 800155c:	801a      	strh	r2, [r3, #0]
 800155e:	2326      	movs	r3, #38	@ 0x26
 8001560:	2118      	movs	r1, #24
 8001562:	185b      	adds	r3, r3, r1
 8001564:	19da      	adds	r2, r3, r7
 8001566:	2348      	movs	r3, #72	@ 0x48
 8001568:	185b      	adds	r3, r3, r1
 800156a:	19db      	adds	r3, r3, r7
 800156c:	8812      	ldrh	r2, [r2, #0]
 800156e:	881b      	ldrh	r3, [r3, #0]
 8001570:	429a      	cmp	r2, r3
 8001572:	d3a6      	bcc.n	80014c2 <drawImage+0xa6>
 8001574:	2344      	movs	r3, #68	@ 0x44
 8001576:	185b      	adds	r3, r3, r1
 8001578:	19db      	adds	r3, r3, r7
 800157a:	881c      	ldrh	r4, [r3, #0]
 800157c:	2340      	movs	r3, #64	@ 0x40
 800157e:	185b      	adds	r3, r3, r1
 8001580:	19db      	adds	r3, r3, r7
 8001582:	881a      	ldrh	r2, [r3, #0]
 8001584:	231e      	movs	r3, #30
 8001586:	18fb      	adds	r3, r7, r3
 8001588:	8819      	ldrh	r1, [r3, #0]
 800158a:	231c      	movs	r3, #28
 800158c:	18fb      	adds	r3, r7, r3
 800158e:	8818      	ldrh	r0, [r3, #0]
 8001590:	6b3b      	ldr	r3, [r7, #48]	@ 0x30
 8001592:	9300      	str	r3, [sp, #0]
 8001594:	0023      	movs	r3, r4
 8001596:	f000 fa31 	bl	80019fc <ST7735_DrawImage>
 800159a:	46c5      	mov	sp, r8
 800159c:	46c0      	nop			@ (mov r8, r8)
 800159e:	46bd      	mov	sp, r7
 80015a0:	b010      	add	sp, #64	@ 0x40
 80015a2:	bc80      	pop	{r7}
 80015a4:	46b8      	mov	r8, r7
 80015a6:	bdf0      	pop	{r4, r5, r6, r7, pc}

080015a8 <ST7735_Select>:
 80015a8:	b580      	push	{r7, lr}
 80015aa:	af00      	add	r7, sp, #0
 80015ac:	23a0      	movs	r3, #160	@ 0xa0
 80015ae:	05db      	lsls	r3, r3, #23
 80015b0:	2200      	movs	r2, #0
 80015b2:	2120      	movs	r1, #32
 80015b4:	0018      	movs	r0, r3
 80015b6:	f001 fdda 	bl	800316e <HAL_GPIO_WritePin>
 80015ba:	46c0      	nop			@ (mov r8, r8)
 80015bc:	46bd      	mov	sp, r7
 80015be:	bd80      	pop	{r7, pc}

080015c0 <ST7735_Unselect>:
 80015c0:	b580      	push	{r7, lr}
 80015c2:	af00      	add	r7, sp, #0
 80015c4:	23a0      	movs	r3, #160	@ 0xa0
 80015c6:	05db      	lsls	r3, r3, #23
 80015c8:	2201      	movs	r2, #1
 80015ca:	2120      	movs	r1, #32
 80015cc:	0018      	movs	r0, r3
 80015ce:	f001 fdce 	bl	800316e <HAL_GPIO_WritePin>
 80015d2:	46c0      	nop			@ (mov r8, r8)
 80015d4:	46bd      	mov	sp, r7
 80015d6:	bd80      	pop	{r7, pc}

080015d8 <ST7735_Reset>:
 80015d8:	b580      	push	{r7, lr}
 80015da:	af00      	add	r7, sp, #0
 80015dc:	2380      	movs	r3, #128	@ 0x80
 80015de:	0219      	lsls	r1, r3, #8
 80015e0:	23a0      	movs	r3, #160	@ 0xa0
 80015e2:	05db      	lsls	r3, r3, #23
 80015e4:	2200      	movs	r2, #0
 80015e6:	0018      	movs	r0, r3
 80015e8:	f001 fdc1 	bl	800316e <HAL_GPIO_WritePin>
 80015ec:	2005      	movs	r0, #5
 80015ee:	f001 fb47 	bl	8002c80 <HAL_Delay>
 80015f2:	2380      	movs	r3, #128	@ 0x80
 80015f4:	0219      	lsls	r1, r3, #8
 80015f6:	23a0      	movs	r3, #160	@ 0xa0
 80015f8:	05db      	lsls	r3, r3, #23
 80015fa:	2201      	movs	r2, #1
 80015fc:	0018      	movs	r0, r3
 80015fe:	f001 fdb6 	bl	800316e <HAL_GPIO_WritePin>
 8001602:	46c0      	nop			@ (mov r8, r8)
 8001604:	46bd      	mov	sp, r7
 8001606:	bd80      	pop	{r7, pc}

08001608 <ST7735_WriteCommand>:
 8001608:	b580      	push	{r7, lr}
 800160a:	b082      	sub	sp, #8
 800160c:	af00      	add	r7, sp, #0
 800160e:	0002      	movs	r2, r0
 8001610:	1dfb      	adds	r3, r7, #7
 8001612:	701a      	strb	r2, [r3, #0]
 8001614:	23a0      	movs	r3, #160	@ 0xa0
 8001616:	05db      	lsls	r3, r3, #23
 8001618:	2200      	movs	r2, #0
 800161a:	2110      	movs	r1, #16
 800161c:	0018      	movs	r0, r3
 800161e:	f001 fda6 	bl	800316e <HAL_GPIO_WritePin>
 8001622:	2301      	movs	r3, #1
 8001624:	425b      	negs	r3, r3
 8001626:	1df9      	adds	r1, r7, #7
 8001628:	4803      	ldr	r0, [pc, #12]	@ (8001638 <ST7735_WriteCommand+0x30>)
 800162a:	2201      	movs	r2, #1
 800162c:	f003 ff02 	bl	8005434 <HAL_SPI_Transmit>
 8001630:	46c0      	nop			@ (mov r8, r8)
 8001632:	46bd      	mov	sp, r7
 8001634:	b002      	add	sp, #8
 8001636:	bd80      	pop	{r7, pc}
 8001638:	20000d54 	.word	0x20000d54

0800163c <ST7735_WriteData>:
 800163c:	b580      	push	{r7, lr}
 800163e:	b082      	sub	sp, #8
 8001640:	af00      	add	r7, sp, #0
 8001642:	6078      	str	r0, [r7, #4]
 8001644:	6039      	str	r1, [r7, #0]
 8001646:	23a0      	movs	r3, #160	@ 0xa0
 8001648:	05db      	lsls	r3, r3, #23
 800164a:	2201      	movs	r2, #1
 800164c:	2110      	movs	r1, #16
 800164e:	0018      	movs	r0, r3
 8001650:	f001 fd8d 	bl	800316e <HAL_GPIO_WritePin>
 8001654:	683b      	ldr	r3, [r7, #0]
 8001656:	b29a      	uxth	r2, r3
 8001658:	2301      	movs	r3, #1
 800165a:	425b      	negs	r3, r3
 800165c:	6879      	ldr	r1, [r7, #4]
 800165e:	4803      	ldr	r0, [pc, #12]	@ (800166c <ST7735_WriteData+0x30>)
 8001660:	f003 fee8 	bl	8005434 <HAL_SPI_Transmit>
 8001664:	46c0      	nop			@ (mov r8, r8)
 8001666:	46bd      	mov	sp, r7
 8001668:	b002      	add	sp, #8
 800166a:	bd80      	pop	{r7, pc}
 800166c:	20000d54 	.word	0x20000d54

08001670 <DisplayInit>:
 8001670:	b590      	push	{r4, r7, lr}
 8001672:	b085      	sub	sp, #20
 8001674:	af00      	add	r7, sp, #0
 8001676:	6078      	str	r0, [r7, #4]
 8001678:	687b      	ldr	r3, [r7, #4]
 800167a:	1c5a      	adds	r2, r3, #1
 800167c:	607a      	str	r2, [r7, #4]
 800167e:	220f      	movs	r2, #15
 8001680:	18ba      	adds	r2, r7, r2
 8001682:	781b      	ldrb	r3, [r3, #0]
 8001684:	7013      	strb	r3, [r2, #0]
 8001686:	e04a      	b.n	800171e <DisplayInit+0xae>
 8001688:	687b      	ldr	r3, [r7, #4]
 800168a:	1c5a      	adds	r2, r3, #1
 800168c:	607a      	str	r2, [r7, #4]
 800168e:	210b      	movs	r1, #11
 8001690:	187a      	adds	r2, r7, r1
 8001692:	781b      	ldrb	r3, [r3, #0]
 8001694:	7013      	strb	r3, [r2, #0]
 8001696:	187b      	adds	r3, r7, r1
 8001698:	781b      	ldrb	r3, [r3, #0]
 800169a:	0018      	movs	r0, r3
 800169c:	f7ff ffb4 	bl	8001608 <ST7735_WriteCommand>
 80016a0:	687b      	ldr	r3, [r7, #4]
 80016a2:	1c5a      	adds	r2, r3, #1
 80016a4:	607a      	str	r2, [r7, #4]
 80016a6:	200a      	movs	r0, #10
 80016a8:	183a      	adds	r2, r7, r0
 80016aa:	781b      	ldrb	r3, [r3, #0]
 80016ac:	7013      	strb	r3, [r2, #0]
 80016ae:	183b      	adds	r3, r7, r0
 80016b0:	781b      	ldrb	r3, [r3, #0]
 80016b2:	b29a      	uxth	r2, r3
 80016b4:	230c      	movs	r3, #12
 80016b6:	18fb      	adds	r3, r7, r3
 80016b8:	2180      	movs	r1, #128	@ 0x80
 80016ba:	400a      	ands	r2, r1
 80016bc:	801a      	strh	r2, [r3, #0]
 80016be:	183b      	adds	r3, r7, r0
 80016c0:	183a      	adds	r2, r7, r0
 80016c2:	7812      	ldrb	r2, [r2, #0]
 80016c4:	217f      	movs	r1, #127	@ 0x7f
 80016c6:	400a      	ands	r2, r1
 80016c8:	701a      	strb	r2, [r3, #0]
 80016ca:	183b      	adds	r3, r7, r0
 80016cc:	781b      	ldrb	r3, [r3, #0]
 80016ce:	2b00      	cmp	r3, #0
 80016d0:	d00c      	beq.n	80016ec <DisplayInit+0x7c>
 80016d2:	0004      	movs	r4, r0
 80016d4:	183b      	adds	r3, r7, r0
 80016d6:	781a      	ldrb	r2, [r3, #0]
 80016d8:	687b      	ldr	r3, [r7, #4]
 80016da:	0011      	movs	r1, r2
 80016dc:	0018      	movs	r0, r3
 80016de:	f7ff ffad 	bl	800163c <ST7735_WriteData>
 80016e2:	193b      	adds	r3, r7, r4
 80016e4:	781b      	ldrb	r3, [r3, #0]
 80016e6:	687a      	ldr	r2, [r7, #4]
 80016e8:	18d3      	adds	r3, r2, r3
 80016ea:	607b      	str	r3, [r7, #4]
 80016ec:	210c      	movs	r1, #12
 80016ee:	187b      	adds	r3, r7, r1
 80016f0:	881b      	ldrh	r3, [r3, #0]
 80016f2:	2b00      	cmp	r3, #0
 80016f4:	d013      	beq.n	800171e <DisplayInit+0xae>
 80016f6:	687b      	ldr	r3, [r7, #4]
 80016f8:	1c5a      	adds	r2, r3, #1
 80016fa:	607a      	str	r2, [r7, #4]
 80016fc:	781a      	ldrb	r2, [r3, #0]
 80016fe:	187b      	adds	r3, r7, r1
 8001700:	801a      	strh	r2, [r3, #0]
 8001702:	187b      	adds	r3, r7, r1
 8001704:	881b      	ldrh	r3, [r3, #0]
 8001706:	2bff      	cmp	r3, #255	@ 0xff
 8001708:	d103      	bne.n	8001712 <DisplayInit+0xa2>
 800170a:	187b      	adds	r3, r7, r1
 800170c:	22fa      	movs	r2, #250	@ 0xfa
 800170e:	0052      	lsls	r2, r2, #1
 8001710:	801a      	strh	r2, [r3, #0]
 8001712:	230c      	movs	r3, #12
 8001714:	18fb      	adds	r3, r7, r3
 8001716:	881b      	ldrh	r3, [r3, #0]
 8001718:	0018      	movs	r0, r3
 800171a:	f001 fab1 	bl	8002c80 <HAL_Delay>
 800171e:	220f      	movs	r2, #15
 8001720:	18bb      	adds	r3, r7, r2
 8001722:	781b      	ldrb	r3, [r3, #0]
 8001724:	18ba      	adds	r2, r7, r2
 8001726:	1e59      	subs	r1, r3, #1
 8001728:	7011      	strb	r1, [r2, #0]
 800172a:	2b00      	cmp	r3, #0
 800172c:	d1ac      	bne.n	8001688 <DisplayInit+0x18>
 800172e:	46c0      	nop			@ (mov r8, r8)
 8001730:	46c0      	nop			@ (mov r8, r8)
 8001732:	46bd      	mov	sp, r7
 8001734:	b005      	add	sp, #20
 8001736:	bd90      	pop	{r4, r7, pc}

08001738 <ST7735_SetAddressWindow>:
 8001738:	b5b0      	push	{r4, r5, r7, lr}
 800173a:	b084      	sub	sp, #16
 800173c:	af00      	add	r7, sp, #0
 800173e:	0005      	movs	r5, r0
 8001740:	000c      	movs	r4, r1
 8001742:	0010      	movs	r0, r2
 8001744:	0019      	movs	r1, r3
 8001746:	1dfb      	adds	r3, r7, #7
 8001748:	1c2a      	adds	r2, r5, #0
 800174a:	701a      	strb	r2, [r3, #0]
 800174c:	1dbb      	adds	r3, r7, #6
 800174e:	1c22      	adds	r2, r4, #0
 8001750:	701a      	strb	r2, [r3, #0]
 8001752:	1d7b      	adds	r3, r7, #5
 8001754:	1c02      	adds	r2, r0, #0
 8001756:	701a      	strb	r2, [r3, #0]
 8001758:	1d3b      	adds	r3, r7, #4
 800175a:	1c0a      	adds	r2, r1, #0
 800175c:	701a      	strb	r2, [r3, #0]
 800175e:	202a      	movs	r0, #42	@ 0x2a
 8001760:	f7ff ff52 	bl	8001608 <ST7735_WriteCommand>
 8001764:	210c      	movs	r1, #12
 8001766:	187b      	adds	r3, r7, r1
 8001768:	2200      	movs	r2, #0
 800176a:	701a      	strb	r2, [r3, #0]
 800176c:	4b1c      	ldr	r3, [pc, #112]	@ (80017e0 <ST7735_SetAddressWindow+0xa8>)
 800176e:	781a      	ldrb	r2, [r3, #0]
 8001770:	1dfb      	adds	r3, r7, #7
 8001772:	781b      	ldrb	r3, [r3, #0]
 8001774:	18d3      	adds	r3, r2, r3
 8001776:	b2da      	uxtb	r2, r3
 8001778:	187b      	adds	r3, r7, r1
 800177a:	705a      	strb	r2, [r3, #1]
 800177c:	187b      	adds	r3, r7, r1
 800177e:	2200      	movs	r2, #0
 8001780:	709a      	strb	r2, [r3, #2]
 8001782:	4b17      	ldr	r3, [pc, #92]	@ (80017e0 <ST7735_SetAddressWindow+0xa8>)
 8001784:	781a      	ldrb	r2, [r3, #0]
 8001786:	1d7b      	adds	r3, r7, #5
 8001788:	781b      	ldrb	r3, [r3, #0]
 800178a:	18d3      	adds	r3, r2, r3
 800178c:	b2da      	uxtb	r2, r3
 800178e:	187b      	adds	r3, r7, r1
 8001790:	70da      	strb	r2, [r3, #3]
 8001792:	000c      	movs	r4, r1
 8001794:	187b      	adds	r3, r7, r1
 8001796:	2104      	movs	r1, #4
 8001798:	0018      	movs	r0, r3
 800179a:	f7ff ff4f 	bl	800163c <ST7735_WriteData>
 800179e:	202b      	movs	r0, #43	@ 0x2b
 80017a0:	f7ff ff32 	bl	8001608 <ST7735_WriteCommand>
 80017a4:	4b0f      	ldr	r3, [pc, #60]	@ (80017e4 <ST7735_SetAddressWindow+0xac>)
 80017a6:	781a      	ldrb	r2, [r3, #0]
 80017a8:	1dbb      	adds	r3, r7, #6
 80017aa:	781b      	ldrb	r3, [r3, #0]
 80017ac:	18d3      	adds	r3, r2, r3
 80017ae:	b2da      	uxtb	r2, r3
 80017b0:	0021      	movs	r1, r4
 80017b2:	187b      	adds	r3, r7, r1
 80017b4:	705a      	strb	r2, [r3, #1]
 80017b6:	4b0b      	ldr	r3, [pc, #44]	@ (80017e4 <ST7735_SetAddressWindow+0xac>)
 80017b8:	781a      	ldrb	r2, [r3, #0]
 80017ba:	1d3b      	adds	r3, r7, #4
 80017bc:	781b      	ldrb	r3, [r3, #0]
 80017be:	18d3      	adds	r3, r2, r3
 80017c0:	b2da      	uxtb	r2, r3
 80017c2:	187b      	adds	r3, r7, r1
 80017c4:	70da      	strb	r2, [r3, #3]
 80017c6:	187b      	adds	r3, r7, r1
 80017c8:	2104      	movs	r1, #4
 80017ca:	0018      	movs	r0, r3
 80017cc:	f7ff ff36 	bl	800163c <ST7735_WriteData>
 80017d0:	202c      	movs	r0, #44	@ 0x2c
 80017d2:	f7ff ff19 	bl	8001608 <ST7735_WriteCommand>
 80017d6:	46c0      	nop			@ (mov r8, r8)
 80017d8:	46bd      	mov	sp, r7
 80017da:	b004      	add	sp, #16
 80017dc:	bdb0      	pop	{r4, r5, r7, pc}
 80017de:	46c0      	nop			@ (mov r8, r8)
 80017e0:	20000a63 	.word	0x20000a63
 80017e4:	20000a64 	.word	0x20000a64

080017e8 <ST7735_Init>:
 80017e8:	b580      	push	{r7, lr}
 80017ea:	b082      	sub	sp, #8
 80017ec:	af00      	add	r7, sp, #0
 80017ee:	0002      	movs	r2, r0
 80017f0:	1dfb      	adds	r3, r7, #7
 80017f2:	701a      	strb	r2, [r3, #0]
 80017f4:	f7ff fed8 	bl	80015a8 <ST7735_Select>
 80017f8:	f7ff feee 	bl	80015d8 <ST7735_Reset>
 80017fc:	4b0e      	ldr	r3, [pc, #56]	@ (8001838 <ST7735_Init+0x50>)
 80017fe:	0018      	movs	r0, r3
 8001800:	f7ff ff36 	bl	8001670 <DisplayInit>
 8001804:	4b0d      	ldr	r3, [pc, #52]	@ (800183c <ST7735_Init+0x54>)
 8001806:	0018      	movs	r0, r3
 8001808:	f7ff ff32 	bl	8001670 <DisplayInit>
 800180c:	4b0c      	ldr	r3, [pc, #48]	@ (8001840 <ST7735_Init+0x58>)
 800180e:	0018      	movs	r0, r3
 8001810:	f7ff ff2e 	bl	8001670 <DisplayInit>
 8001814:	4b0b      	ldr	r3, [pc, #44]	@ (8001844 <ST7735_Init+0x5c>)
 8001816:	2200      	movs	r2, #0
 8001818:	701a      	strb	r2, [r3, #0]
 800181a:	4b0b      	ldr	r3, [pc, #44]	@ (8001848 <ST7735_Init+0x60>)
 800181c:	2200      	movs	r2, #0
 800181e:	701a      	strb	r2, [r3, #0]
 8001820:	1dfb      	adds	r3, r7, #7
 8001822:	781b      	ldrb	r3, [r3, #0]
 8001824:	0018      	movs	r0, r3
 8001826:	f000 f811 	bl	800184c <ST7735_SetRotation>
 800182a:	f7ff fec9 	bl	80015c0 <ST7735_Unselect>
 800182e:	46c0      	nop			@ (mov r8, r8)
 8001830:	46bd      	mov	sp, r7
 8001832:	b002      	add	sp, #8
 8001834:	bd80      	pop	{r7, pc}
 8001836:	46c0      	nop			@ (mov r8, r8)
 8001838:	08008690 	.word	0x08008690
 800183c:	080086c8 	.word	0x080086c8
 8001840:	080086d8 	.word	0x080086d8
 8001844:	20000a61 	.word	0x20000a61
 8001848:	20000a62 	.word	0x20000a62

0800184c <ST7735_SetRotation>:
 800184c:	b580      	push	{r7, lr}
 800184e:	b084      	sub	sp, #16
 8001850:	af00      	add	r7, sp, #0
 8001852:	0002      	movs	r2, r0
 8001854:	1dfb      	adds	r3, r7, #7
 8001856:	701a      	strb	r2, [r3, #0]
 8001858:	230f      	movs	r3, #15
 800185a:	18fb      	adds	r3, r7, r3
 800185c:	2200      	movs	r2, #0
 800185e:	701a      	strb	r2, [r3, #0]
 8001860:	1dfb      	adds	r3, r7, #7
 8001862:	781b      	ldrb	r3, [r3, #0]
 8001864:	2203      	movs	r2, #3
 8001866:	4013      	ands	r3, r2
 8001868:	b2da      	uxtb	r2, r3
 800186a:	4b36      	ldr	r3, [pc, #216]	@ (8001944 <ST7735_SetRotation+0xf8>)
 800186c:	701a      	strb	r2, [r3, #0]
 800186e:	4b35      	ldr	r3, [pc, #212]	@ (8001944 <ST7735_SetRotation+0xf8>)
 8001870:	781b      	ldrb	r3, [r3, #0]
 8001872:	2b03      	cmp	r3, #3
 8001874:	d041      	beq.n	80018fa <ST7735_SetRotation+0xae>
 8001876:	dc53      	bgt.n	8001920 <ST7735_SetRotation+0xd4>
 8001878:	2b02      	cmp	r3, #2
 800187a:	d02b      	beq.n	80018d4 <ST7735_SetRotation+0x88>
 800187c:	dc50      	bgt.n	8001920 <ST7735_SetRotation+0xd4>
 800187e:	2b00      	cmp	r3, #0
 8001880:	d002      	beq.n	8001888 <ST7735_SetRotation+0x3c>
 8001882:	2b01      	cmp	r3, #1
 8001884:	d013      	beq.n	80018ae <ST7735_SetRotation+0x62>
 8001886:	e04b      	b.n	8001920 <ST7735_SetRotation+0xd4>
 8001888:	230f      	movs	r3, #15
 800188a:	18fb      	adds	r3, r7, r3
 800188c:	22c0      	movs	r2, #192	@ 0xc0
 800188e:	701a      	strb	r2, [r3, #0]
 8001890:	4b2d      	ldr	r3, [pc, #180]	@ (8001948 <ST7735_SetRotation+0xfc>)
 8001892:	22a0      	movs	r2, #160	@ 0xa0
 8001894:	801a      	strh	r2, [r3, #0]
 8001896:	4b2d      	ldr	r3, [pc, #180]	@ (800194c <ST7735_SetRotation+0x100>)
 8001898:	2280      	movs	r2, #128	@ 0x80
 800189a:	801a      	strh	r2, [r3, #0]
 800189c:	4b2c      	ldr	r3, [pc, #176]	@ (8001950 <ST7735_SetRotation+0x104>)
 800189e:	781a      	ldrb	r2, [r3, #0]
 80018a0:	4b2c      	ldr	r3, [pc, #176]	@ (8001954 <ST7735_SetRotation+0x108>)
 80018a2:	701a      	strb	r2, [r3, #0]
 80018a4:	4b2c      	ldr	r3, [pc, #176]	@ (8001958 <ST7735_SetRotation+0x10c>)
 80018a6:	781a      	ldrb	r2, [r3, #0]
 80018a8:	4b2c      	ldr	r3, [pc, #176]	@ (800195c <ST7735_SetRotation+0x110>)
 80018aa:	701a      	strb	r2, [r3, #0]
 80018ac:	e038      	b.n	8001920 <ST7735_SetRotation+0xd4>
 80018ae:	230f      	movs	r3, #15
 80018b0:	18fb      	adds	r3, r7, r3
 80018b2:	22a0      	movs	r2, #160	@ 0xa0
 80018b4:	701a      	strb	r2, [r3, #0]
 80018b6:	4b25      	ldr	r3, [pc, #148]	@ (800194c <ST7735_SetRotation+0x100>)
 80018b8:	22a0      	movs	r2, #160	@ 0xa0
 80018ba:	801a      	strh	r2, [r3, #0]
 80018bc:	4b22      	ldr	r3, [pc, #136]	@ (8001948 <ST7735_SetRotation+0xfc>)
 80018be:	2280      	movs	r2, #128	@ 0x80
 80018c0:	801a      	strh	r2, [r3, #0]
 80018c2:	4b23      	ldr	r3, [pc, #140]	@ (8001950 <ST7735_SetRotation+0x104>)
 80018c4:	781a      	ldrb	r2, [r3, #0]
 80018c6:	4b25      	ldr	r3, [pc, #148]	@ (800195c <ST7735_SetRotation+0x110>)
 80018c8:	701a      	strb	r2, [r3, #0]
 80018ca:	4b23      	ldr	r3, [pc, #140]	@ (8001958 <ST7735_SetRotation+0x10c>)
 80018cc:	781a      	ldrb	r2, [r3, #0]
 80018ce:	4b21      	ldr	r3, [pc, #132]	@ (8001954 <ST7735_SetRotation+0x108>)
 80018d0:	701a      	strb	r2, [r3, #0]
 80018d2:	e025      	b.n	8001920 <ST7735_SetRotation+0xd4>
 80018d4:	230f      	movs	r3, #15
 80018d6:	18fb      	adds	r3, r7, r3
 80018d8:	2200      	movs	r2, #0
 80018da:	701a      	strb	r2, [r3, #0]
 80018dc:	4b1a      	ldr	r3, [pc, #104]	@ (8001948 <ST7735_SetRotation+0xfc>)
 80018de:	22a0      	movs	r2, #160	@ 0xa0
 80018e0:	801a      	strh	r2, [r3, #0]
 80018e2:	4b1a      	ldr	r3, [pc, #104]	@ (800194c <ST7735_SetRotation+0x100>)
 80018e4:	2280      	movs	r2, #128	@ 0x80
 80018e6:	801a      	strh	r2, [r3, #0]
 80018e8:	4b19      	ldr	r3, [pc, #100]	@ (8001950 <ST7735_SetRotation+0x104>)
 80018ea:	781a      	ldrb	r2, [r3, #0]
 80018ec:	4b19      	ldr	r3, [pc, #100]	@ (8001954 <ST7735_SetRotation+0x108>)
 80018ee:	701a      	strb	r2, [r3, #0]
 80018f0:	4b19      	ldr	r3, [pc, #100]	@ (8001958 <ST7735_SetRotation+0x10c>)
 80018f2:	781a      	ldrb	r2, [r3, #0]
 80018f4:	4b19      	ldr	r3, [pc, #100]	@ (800195c <ST7735_SetRotation+0x110>)
 80018f6:	701a      	strb	r2, [r3, #0]
 80018f8:	e012      	b.n	8001920 <ST7735_SetRotation+0xd4>
 80018fa:	230f      	movs	r3, #15
 80018fc:	18fb      	adds	r3, r7, r3
 80018fe:	2260      	movs	r2, #96	@ 0x60
 8001900:	701a      	strb	r2, [r3, #0]
 8001902:	4b12      	ldr	r3, [pc, #72]	@ (800194c <ST7735_SetRotation+0x100>)
 8001904:	22a0      	movs	r2, #160	@ 0xa0
 8001906:	801a      	strh	r2, [r3, #0]
 8001908:	4b0f      	ldr	r3, [pc, #60]	@ (8001948 <ST7735_SetRotation+0xfc>)
 800190a:	2280      	movs	r2, #128	@ 0x80
 800190c:	801a      	strh	r2, [r3, #0]
 800190e:	4b10      	ldr	r3, [pc, #64]	@ (8001950 <ST7735_SetRotation+0x104>)
 8001910:	781a      	ldrb	r2, [r3, #0]
 8001912:	4b12      	ldr	r3, [pc, #72]	@ (800195c <ST7735_SetRotation+0x110>)
 8001914:	701a      	strb	r2, [r3, #0]
 8001916:	4b10      	ldr	r3, [pc, #64]	@ (8001958 <ST7735_SetRotation+0x10c>)
 8001918:	781a      	ldrb	r2, [r3, #0]
 800191a:	4b0e      	ldr	r3, [pc, #56]	@ (8001954 <ST7735_SetRotation+0x108>)
 800191c:	701a      	strb	r2, [r3, #0]
 800191e:	46c0      	nop			@ (mov r8, r8)
 8001920:	f7ff fe42 	bl	80015a8 <ST7735_Select>
 8001924:	2036      	movs	r0, #54	@ 0x36
 8001926:	f7ff fe6f 	bl	8001608 <ST7735_WriteCommand>
 800192a:	230f      	movs	r3, #15
 800192c:	18fb      	adds	r3, r7, r3
 800192e:	2101      	movs	r1, #1
 8001930:	0018      	movs	r0, r3
 8001932:	f7ff fe83 	bl	800163c <ST7735_WriteData>
 8001936:	f7ff fe43 	bl	80015c0 <ST7735_Unselect>
 800193a:	46c0      	nop			@ (mov r8, r8)
 800193c:	46bd      	mov	sp, r7
 800193e:	b004      	add	sp, #16
 8001940:	bd80      	pop	{r7, pc}
 8001942:	46c0      	nop			@ (mov r8, r8)
 8001944:	20000a60 	.word	0x20000a60
 8001948:	20000a5e 	.word	0x20000a5e
 800194c:	20000a5c 	.word	0x20000a5c
 8001950:	20000a61 	.word	0x20000a61
 8001954:	20000a63 	.word	0x20000a63
 8001958:	20000a62 	.word	0x20000a62
 800195c:	20000a64 	.word	0x20000a64

08001960 <ST7735_DrawPixel>:
 8001960:	b590      	push	{r4, r7, lr}
 8001962:	b085      	sub	sp, #20
 8001964:	af00      	add	r7, sp, #0
 8001966:	0004      	movs	r4, r0
 8001968:	0008      	movs	r0, r1
 800196a:	0011      	movs	r1, r2
 800196c:	1dbb      	adds	r3, r7, #6
 800196e:	1c22      	adds	r2, r4, #0
 8001970:	801a      	strh	r2, [r3, #0]
 8001972:	1d3b      	adds	r3, r7, #4
 8001974:	1c02      	adds	r2, r0, #0
 8001976:	801a      	strh	r2, [r3, #0]
 8001978:	1cbb      	adds	r3, r7, #2
 800197a:	1c0a      	adds	r2, r1, #0
 800197c:	801a      	strh	r2, [r3, #0]
 800197e:	1dbb      	adds	r3, r7, #6
 8001980:	881b      	ldrh	r3, [r3, #0]
 8001982:	4a1c      	ldr	r2, [pc, #112]	@ (80019f4 <ST7735_DrawPixel+0x94>)
 8001984:	2100      	movs	r1, #0
 8001986:	5e52      	ldrsh	r2, [r2, r1]
 8001988:	4293      	cmp	r3, r2
 800198a:	da2f      	bge.n	80019ec <ST7735_DrawPixel+0x8c>
 800198c:	1d3b      	adds	r3, r7, #4
 800198e:	881b      	ldrh	r3, [r3, #0]
 8001990:	4a19      	ldr	r2, [pc, #100]	@ (80019f8 <ST7735_DrawPixel+0x98>)
 8001992:	2100      	movs	r1, #0
 8001994:	5e52      	ldrsh	r2, [r2, r1]
 8001996:	4293      	cmp	r3, r2
 8001998:	da28      	bge.n	80019ec <ST7735_DrawPixel+0x8c>
 800199a:	f7ff fe05 	bl	80015a8 <ST7735_Select>
 800199e:	1dbb      	adds	r3, r7, #6
 80019a0:	881b      	ldrh	r3, [r3, #0]
 80019a2:	b2d8      	uxtb	r0, r3
 80019a4:	1d3b      	adds	r3, r7, #4
 80019a6:	881b      	ldrh	r3, [r3, #0]
 80019a8:	b2d9      	uxtb	r1, r3
 80019aa:	1dbb      	adds	r3, r7, #6
 80019ac:	881b      	ldrh	r3, [r3, #0]
 80019ae:	b2db      	uxtb	r3, r3
 80019b0:	3301      	adds	r3, #1
 80019b2:	b2da      	uxtb	r2, r3
 80019b4:	1d3b      	adds	r3, r7, #4
 80019b6:	881b      	ldrh	r3, [r3, #0]
 80019b8:	b2db      	uxtb	r3, r3
 80019ba:	3301      	adds	r3, #1
 80019bc:	b2db      	uxtb	r3, r3
 80019be:	f7ff febb 	bl	8001738 <ST7735_SetAddressWindow>
 80019c2:	1cbb      	adds	r3, r7, #2
 80019c4:	881b      	ldrh	r3, [r3, #0]
 80019c6:	0a1b      	lsrs	r3, r3, #8
 80019c8:	b29b      	uxth	r3, r3
 80019ca:	b2da      	uxtb	r2, r3
 80019cc:	210c      	movs	r1, #12
 80019ce:	187b      	adds	r3, r7, r1
 80019d0:	701a      	strb	r2, [r3, #0]
 80019d2:	1cbb      	adds	r3, r7, #2
 80019d4:	881b      	ldrh	r3, [r3, #0]
 80019d6:	b2da      	uxtb	r2, r3
 80019d8:	187b      	adds	r3, r7, r1
 80019da:	705a      	strb	r2, [r3, #1]
 80019dc:	187b      	adds	r3, r7, r1
 80019de:	2102      	movs	r1, #2
 80019e0:	0018      	movs	r0, r3
 80019e2:	f7ff fe2b 	bl	800163c <ST7735_WriteData>
 80019e6:	f7ff fdeb 	bl	80015c0 <ST7735_Unselect>
 80019ea:	e000      	b.n	80019ee <ST7735_DrawPixel+0x8e>
 80019ec:	46c0      	nop			@ (mov r8, r8)
 80019ee:	46bd      	mov	sp, r7
 80019f0:	b005      	add	sp, #20
 80019f2:	bd90      	pop	{r4, r7, pc}
 80019f4:	20000a5c 	.word	0x20000a5c
 80019f8:	20000a5e 	.word	0x20000a5e

080019fc <ST7735_DrawImage>:
 80019fc:	b5b0      	push	{r4, r5, r7, lr}
 80019fe:	b082      	sub	sp, #8
 8001a00:	af00      	add	r7, sp, #0
 8001a02:	0005      	movs	r5, r0
 8001a04:	000c      	movs	r4, r1
 8001a06:	0010      	movs	r0, r2
 8001a08:	0019      	movs	r1, r3
 8001a0a:	1dbb      	adds	r3, r7, #6
 8001a0c:	1c2a      	adds	r2, r5, #0
 8001a0e:	801a      	strh	r2, [r3, #0]
 8001a10:	1d3b      	adds	r3, r7, #4
 8001a12:	1c22      	adds	r2, r4, #0
 8001a14:	801a      	strh	r2, [r3, #0]
 8001a16:	1cbb      	adds	r3, r7, #2
 8001a18:	1c02      	adds	r2, r0, #0
 8001a1a:	801a      	strh	r2, [r3, #0]
 8001a1c:	003b      	movs	r3, r7
 8001a1e:	1c0a      	adds	r2, r1, #0
 8001a20:	801a      	strh	r2, [r3, #0]
 8001a22:	1dbb      	adds	r3, r7, #6
 8001a24:	881b      	ldrh	r3, [r3, #0]
 8001a26:	4a2a      	ldr	r2, [pc, #168]	@ (8001ad0 <ST7735_DrawImage+0xd4>)
 8001a28:	2100      	movs	r1, #0
 8001a2a:	5e52      	ldrsh	r2, [r2, r1]
 8001a2c:	4293      	cmp	r3, r2
 8001a2e:	da47      	bge.n	8001ac0 <ST7735_DrawImage+0xc4>
 8001a30:	1d3b      	adds	r3, r7, #4
 8001a32:	881b      	ldrh	r3, [r3, #0]
 8001a34:	4a27      	ldr	r2, [pc, #156]	@ (8001ad4 <ST7735_DrawImage+0xd8>)
 8001a36:	2100      	movs	r1, #0
 8001a38:	5e52      	ldrsh	r2, [r2, r1]
 8001a3a:	4293      	cmp	r3, r2
 8001a3c:	da40      	bge.n	8001ac0 <ST7735_DrawImage+0xc4>
 8001a3e:	1dbb      	adds	r3, r7, #6
 8001a40:	881a      	ldrh	r2, [r3, #0]
 8001a42:	1cbb      	adds	r3, r7, #2
 8001a44:	881b      	ldrh	r3, [r3, #0]
 8001a46:	18d3      	adds	r3, r2, r3
 8001a48:	4a21      	ldr	r2, [pc, #132]	@ (8001ad0 <ST7735_DrawImage+0xd4>)
 8001a4a:	2100      	movs	r1, #0
 8001a4c:	5e52      	ldrsh	r2, [r2, r1]
 8001a4e:	4293      	cmp	r3, r2
 8001a50:	dc38      	bgt.n	8001ac4 <ST7735_DrawImage+0xc8>
 8001a52:	1d3b      	adds	r3, r7, #4
 8001a54:	881a      	ldrh	r2, [r3, #0]
 8001a56:	003b      	movs	r3, r7
 8001a58:	881b      	ldrh	r3, [r3, #0]
 8001a5a:	18d3      	adds	r3, r2, r3
 8001a5c:	4a1d      	ldr	r2, [pc, #116]	@ (8001ad4 <ST7735_DrawImage+0xd8>)
 8001a5e:	2100      	movs	r1, #0
 8001a60:	5e52      	ldrsh	r2, [r2, r1]
 8001a62:	4293      	cmp	r3, r2
 8001a64:	dc30      	bgt.n	8001ac8 <ST7735_DrawImage+0xcc>
 8001a66:	f7ff fd9f 	bl	80015a8 <ST7735_Select>
 8001a6a:	1dbb      	adds	r3, r7, #6
 8001a6c:	881b      	ldrh	r3, [r3, #0]
 8001a6e:	b2d8      	uxtb	r0, r3
 8001a70:	1d3b      	adds	r3, r7, #4
 8001a72:	881b      	ldrh	r3, [r3, #0]
 8001a74:	b2d9      	uxtb	r1, r3
 8001a76:	1dbb      	adds	r3, r7, #6
 8001a78:	881b      	ldrh	r3, [r3, #0]
 8001a7a:	b2da      	uxtb	r2, r3
 8001a7c:	1cbb      	adds	r3, r7, #2
 8001a7e:	881b      	ldrh	r3, [r3, #0]
 8001a80:	b2db      	uxtb	r3, r3
 8001a82:	18d3      	adds	r3, r2, r3
 8001a84:	b2db      	uxtb	r3, r3
 8001a86:	3b01      	subs	r3, #1
 8001a88:	b2dc      	uxtb	r4, r3
 8001a8a:	1d3b      	adds	r3, r7, #4
 8001a8c:	881b      	ldrh	r3, [r3, #0]
 8001a8e:	b2da      	uxtb	r2, r3
 8001a90:	003b      	movs	r3, r7
 8001a92:	881b      	ldrh	r3, [r3, #0]
 8001a94:	b2db      	uxtb	r3, r3
 8001a96:	18d3      	adds	r3, r2, r3
 8001a98:	b2db      	uxtb	r3, r3
 8001a9a:	3b01      	subs	r3, #1
 8001a9c:	b2db      	uxtb	r3, r3
 8001a9e:	0022      	movs	r2, r4
 8001aa0:	f7ff fe4a 	bl	8001738 <ST7735_SetAddressWindow>
 8001aa4:	1cbb      	adds	r3, r7, #2
 8001aa6:	881b      	ldrh	r3, [r3, #0]
 8001aa8:	003a      	movs	r2, r7
 8001aaa:	8812      	ldrh	r2, [r2, #0]
 8001aac:	4353      	muls	r3, r2
 8001aae:	005a      	lsls	r2, r3, #1
 8001ab0:	69bb      	ldr	r3, [r7, #24]
 8001ab2:	0011      	movs	r1, r2
 8001ab4:	0018      	movs	r0, r3
 8001ab6:	f7ff fdc1 	bl	800163c <ST7735_WriteData>
 8001aba:	f7ff fd81 	bl	80015c0 <ST7735_Unselect>
 8001abe:	e004      	b.n	8001aca <ST7735_DrawImage+0xce>
 8001ac0:	46c0      	nop			@ (mov r8, r8)
 8001ac2:	e002      	b.n	8001aca <ST7735_DrawImage+0xce>
 8001ac4:	46c0      	nop			@ (mov r8, r8)
 8001ac6:	e000      	b.n	8001aca <ST7735_DrawImage+0xce>
 8001ac8:	46c0      	nop			@ (mov r8, r8)
 8001aca:	46bd      	mov	sp, r7
 8001acc:	b002      	add	sp, #8
 8001ace:	bdb0      	pop	{r4, r5, r7, pc}
 8001ad0:	20000a5c 	.word	0x20000a5c
 8001ad4:	20000a5e 	.word	0x20000a5e

08001ad8 <main>:
/**
  * @brief  The application entry point.
  * @retval int
  */
int main(void)
{
 8001ad8:	b590      	push	{r4, r7, lr}
 8001ada:	b087      	sub	sp, #28
 8001adc:	af04      	add	r7, sp, #16
  /* USER CODE END 1 */

  /* MCU Configuration--------------------------------------------------------*/

  /* Reset of all peripherals, Initializes the Flash interface and the Systick. */
  HAL_Init();
 8001ade:	f001 f849 	bl	8002b74 <HAL_Init>
  /* USER CODE BEGIN Init */

  /* USER CODE END Init */

  /* Configure the system clock */
  SystemClock_Config();
 8001ae2:	f000 fa57 	bl	8001f94 <SystemClock_Config>

  /* USER CODE BEGIN SysInit */
  steps=0;
 8001ae6:	4be6      	ldr	r3, [pc, #920]	@ (8001e80 <main+0x3a8>)
 8001ae8:	2200      	movs	r2, #0
 8001aea:	701a      	strb	r2, [r3, #0]
  sitting0.Body = *imgSitting0;
 8001aec:	4be5      	ldr	r3, [pc, #916]	@ (8001e84 <main+0x3ac>)
 8001aee:	4ae6      	ldr	r2, [pc, #920]	@ (8001e88 <main+0x3b0>)
 8001af0:	601a      	str	r2, [r3, #0]
  sitting0.Size = 307;
 8001af2:	4be4      	ldr	r3, [pc, #912]	@ (8001e84 <main+0x3ac>)
 8001af4:	2234      	movs	r2, #52	@ 0x34
 8001af6:	32ff      	adds	r2, #255	@ 0xff
 8001af8:	605a      	str	r2, [r3, #4]
  sitting1.Body = *imgSitting1;
 8001afa:	4be4      	ldr	r3, [pc, #912]	@ (8001e8c <main+0x3b4>)
 8001afc:	4ae4      	ldr	r2, [pc, #912]	@ (8001e90 <main+0x3b8>)
 8001afe:	601a      	str	r2, [r3, #0]
  sitting1.Size = 305;
 8001b00:	4be2      	ldr	r3, [pc, #904]	@ (8001e8c <main+0x3b4>)
 8001b02:	2232      	movs	r2, #50	@ 0x32
 8001b04:	32ff      	adds	r2, #255	@ 0xff
 8001b06:	605a      	str	r2, [r3, #4]
  animSitting[0] = sitting0;
 8001b08:	4be2      	ldr	r3, [pc, #904]	@ (8001e94 <main+0x3bc>)
 8001b0a:	4ade      	ldr	r2, [pc, #888]	@ (8001e84 <main+0x3ac>)
 8001b0c:	ca03      	ldmia	r2!, {r0, r1}
 8001b0e:	c303      	stmia	r3!, {r0, r1}
  animSitting[1] = sitting1;
 8001b10:	4be0      	ldr	r3, [pc, #896]	@ (8001e94 <main+0x3bc>)
 8001b12:	4ade      	ldr	r2, [pc, #888]	@ (8001e8c <main+0x3b4>)
 8001b14:	3308      	adds	r3, #8
 8001b16:	ca03      	ldmia	r2!, {r0, r1}
 8001b18:	c303      	stmia	r3!, {r0, r1}
  game.evo=0;
 8001b1a:	4bdf      	ldr	r3, [pc, #892]	@ (8001e98 <main+0x3c0>)
 8001b1c:	2200      	movs	r2, #0
 8001b1e:	741a      	strb	r2, [r3, #16]
  game.uid[0]='h';
 8001b20:	4add      	ldr	r2, [pc, #884]	@ (8001e98 <main+0x3c0>)
 8001b22:	2394      	movs	r3, #148	@ 0x94
 8001b24:	005b      	lsls	r3, r3, #1
 8001b26:	2168      	movs	r1, #104	@ 0x68
 8001b28:	54d1      	strb	r1, [r2, r3]
  game.uid[1]='i';
 8001b2a:	4adb      	ldr	r2, [pc, #876]	@ (8001e98 <main+0x3c0>)
 8001b2c:	232a      	movs	r3, #42	@ 0x2a
 8001b2e:	33ff      	adds	r3, #255	@ 0xff
 8001b30:	2169      	movs	r1, #105	@ 0x69
 8001b32:	54d1      	strb	r1, [r2, r3]
  game.allSteps=0;
 8001b34:	4ad8      	ldr	r2, [pc, #864]	@ (8001e98 <main+0x3c0>)
 8001b36:	238c      	movs	r3, #140	@ 0x8c
 8001b38:	005b      	lsls	r3, r3, #1
 8001b3a:	2100      	movs	r1, #0
 8001b3c:	50d1      	str	r1, [r2, r3]
  game.mood=100;
 8001b3e:	4bd6      	ldr	r3, [pc, #856]	@ (8001e98 <main+0x3c0>)
 8001b40:	2264      	movs	r2, #100	@ 0x64
 8001b42:	745a      	strb	r2, [r3, #17]
  game.numLocations=3;
 8001b44:	4bd4      	ldr	r3, [pc, #848]	@ (8001e98 <main+0x3c0>)
 8001b46:	2203      	movs	r2, #3
 8001b48:	615a      	str	r2, [r3, #20]
  game.stepsToday=0;
 8001b4a:	4ad3      	ldr	r2, [pc, #844]	@ (8001e98 <main+0x3c0>)
 8001b4c:	2390      	movs	r3, #144	@ 0x90
 8001b4e:	005b      	lsls	r3, r3, #1
 8001b50:	2100      	movs	r1, #0
 8001b52:	50d1      	str	r1, [r2, r3]
  game.weeklySteps=0;
 8001b54:	4ad0      	ldr	r2, [pc, #832]	@ (8001e98 <main+0x3c0>)
 8001b56:	238e      	movs	r3, #142	@ 0x8e
 8001b58:	005b      	lsls	r3, r3, #1
 8001b5a:	2100      	movs	r1, #0
 8001b5c:	50d1      	str	r1, [r2, r3]
  game.challengeGoal=20000;
 8001b5e:	4ace      	ldr	r2, [pc, #824]	@ (8001e98 <main+0x3c0>)
 8001b60:	2392      	movs	r3, #146	@ 0x92
 8001b62:	005b      	lsls	r3, r3, #1
 8001b64:	49cd      	ldr	r1, [pc, #820]	@ (8001e9c <main+0x3c4>)
 8001b66:	50d1      	str	r1, [r2, r3]
  dummy.lat=12.34567;
 8001b68:	4bcd      	ldr	r3, [pc, #820]	@ (8001ea0 <main+0x3c8>)
 8001b6a:	4ace      	ldr	r2, [pc, #824]	@ (8001ea4 <main+0x3cc>)
 8001b6c:	601a      	str	r2, [r3, #0]
  dummy.lon=-89.10111;
 8001b6e:	4bcc      	ldr	r3, [pc, #816]	@ (8001ea0 <main+0x3c8>)
 8001b70:	4acd      	ldr	r2, [pc, #820]	@ (8001ea8 <main+0x3d0>)
 8001b72:	605a      	str	r2, [r3, #4]
  game.positions[0]=dummy;
 8001b74:	4bc8      	ldr	r3, [pc, #800]	@ (8001e98 <main+0x3c0>)
 8001b76:	4aca      	ldr	r2, [pc, #808]	@ (8001ea0 <main+0x3c8>)
 8001b78:	3318      	adds	r3, #24
 8001b7a:	ca03      	ldmia	r2!, {r0, r1}
 8001b7c:	c303      	stmia	r3!, {r0, r1}
  game.positions[1]=dummy;
 8001b7e:	4bc6      	ldr	r3, [pc, #792]	@ (8001e98 <main+0x3c0>)
 8001b80:	4ac7      	ldr	r2, [pc, #796]	@ (8001ea0 <main+0x3c8>)
 8001b82:	3320      	adds	r3, #32
 8001b84:	ca03      	ldmia	r2!, {r0, r1}
 8001b86:	c303      	stmia	r3!, {r0, r1}
  game.positions[2]=dummy;
 8001b88:	4bc3      	ldr	r3, [pc, #780]	@ (8001e98 <main+0x3c0>)
 8001b8a:	4ac5      	ldr	r2, [pc, #788]	@ (8001ea0 <main+0x3c8>)
 8001b8c:	3328      	adds	r3, #40	@ 0x28
 8001b8e:	ca03      	ldmia	r2!, {r0, r1}
 8001b90:	c303      	stmia	r3!, {r0, r1}
  /* USER CODE END SysInit */

  /* Initialize all configured peripherals */
  MX_GPIO_Init();
 8001b92:	f000 fc05 	bl	80023a0 <MX_GPIO_Init>
  MX_I2C1_Init();
 8001b96:	f000 fa5f 	bl	8002058 <MX_I2C1_Init>
  MX_SPI1_Init();
 8001b9a:	f000 fa9d 	bl	80020d8 <MX_SPI1_Init>
  MX_TIM17_Init();
 8001b9e:	f000 fadb 	bl	8002158 <MX_TIM17_Init>
  MX_USART1_UART_Init();
 8001ba2:	f000 fb61 	bl	8002268 <MX_USART1_UART_Init>
  MX_USART2_UART_Init();
 8001ba6:	f000 fbad 	bl	8002304 <MX_USART2_UART_Init>
  //MX_RTC_Init();
  /* USER CODE BEGIN 2 */
  //HAL_TIM_PWM_Start(&htim17, TIM_CHANNEL_1);
  ST7735_Unselect();
 8001baa:	f7ff fd09 	bl	80015c0 <ST7735_Unselect>
  ST7735_Init(1);
 8001bae:	2001      	movs	r0, #1
 8001bb0:	f7ff fe1a 	bl	80017e8 <ST7735_Init>
  //testAll();
  buffer[0] = 'A';
 8001bb4:	4bbd      	ldr	r3, [pc, #756]	@ (8001eac <main+0x3d4>)
 8001bb6:	2241      	movs	r2, #65	@ 0x41
 8001bb8:	701a      	strb	r2, [r3, #0]
  buffer[1] = 'B';
 8001bba:	4bbc      	ldr	r3, [pc, #752]	@ (8001eac <main+0x3d4>)
 8001bbc:	2242      	movs	r2, #66	@ 0x42
 8001bbe:	705a      	strb	r2, [r3, #1]
  TIM17->CCR1 = 5;
 8001bc0:	4bbb      	ldr	r3, [pc, #748]	@ (8001eb0 <main+0x3d8>)
 8001bc2:	2205      	movs	r2, #5
 8001bc4:	635a      	str	r2, [r3, #52]	@ 0x34
  TIM17->PSC=64;
 8001bc6:	4bba      	ldr	r3, [pc, #744]	@ (8001eb0 <main+0x3d8>)
 8001bc8:	2240      	movs	r2, #64	@ 0x40
 8001bca:	629a      	str	r2, [r3, #40]	@ 0x28
  uint8_t ret=0;
 8001bcc:	1dfb      	adds	r3, r7, #7
 8001bce:	2200      	movs	r2, #0
 8001bd0:	701a      	strb	r2, [r3, #0]
    //_ADXL343_Init();

      //Pedometer Setup
      _ADXL343_WriteReg8(0x19, 0x02);
 8001bd2:	2102      	movs	r1, #2
 8001bd4:	2019      	movs	r0, #25
 8001bd6:	f000 fcd9 	bl	800258c <_ADXL343_WriteReg8>
      ////wait

      _ADXL343_WriteReg8(0x7C, 0x01);
 8001bda:	2101      	movs	r1, #1
 8001bdc:	207c      	movs	r0, #124	@ 0x7c
 8001bde:	f000 fcd5 	bl	800258c <_ADXL343_WriteReg8>
       _ADXL343_WriteReg8(0x1A, 0x38);
 8001be2:	2138      	movs	r1, #56	@ 0x38
 8001be4:	201a      	movs	r0, #26
 8001be6:	f000 fcd1 	bl	800258c <_ADXL343_WriteReg8>
      _ADXL343_WriteReg8(0x1B, 0x04);
 8001bea:	2104      	movs	r1, #4
 8001bec:	201b      	movs	r0, #27
 8001bee:	f000 fccd 	bl	800258c <_ADXL343_WriteReg8>
      _ADXL343_WriteReg8(0x1F, 0x80);
 8001bf2:	2180      	movs	r1, #128	@ 0x80
 8001bf4:	201f      	movs	r0, #31
 8001bf6:	f000 fcc9 	bl	800258c <_ADXL343_WriteReg8>
      _ADXL343_WriteReg8(0x21, 0x80);
 8001bfa:	2180      	movs	r1, #128	@ 0x80
 8001bfc:	2021      	movs	r0, #33	@ 0x21
 8001bfe:	f000 fcc5 	bl	800258c <_ADXL343_WriteReg8>



      //  //Step Counter
      _ADXL343_WriteReg8(0x18, 0x01); // enable walking mode
 8001c02:	2101      	movs	r1, #1
 8001c04:	2018      	movs	r0, #24
 8001c06:	f000 fcc1 	bl	800258c <_ADXL343_WriteReg8>
      _ADXL343_WriteReg8(0x20, 0x01); // enable step interrupt
 8001c0a:	2101      	movs	r1, #1
 8001c0c:	2020      	movs	r0, #32
 8001c0e:	f000 fcbd 	bl	800258c <_ADXL343_WriteReg8>
  /* USER CODE END 2 */

  /* Infinite loop */
  /* USER CODE BEGIN WHILE */
      //Before entering the while, fill the screen to clear it once
      fillScreen(BLACK);
 8001c12:	2000      	movs	r0, #0
 8001c14:	f7ff fb8e 	bl	8001334 <fillScreen>
  {

	  //if((totalFrames++)%600==0) GetLatLon();
	  //SendData();
	  //ReceiveData();
	  if(((game.time.hours%dayLength)==0) && game.time.hours>0) game.stepsToday=0;
 8001c18:	4b9f      	ldr	r3, [pc, #636]	@ (8001e98 <main+0x3c0>)
 8001c1a:	681b      	ldr	r3, [r3, #0]
 8001c1c:	2218      	movs	r2, #24
 8001c1e:	0011      	movs	r1, r2
 8001c20:	0018      	movs	r0, r3
 8001c22:	f7fe fbe9 	bl	80003f8 <__aeabi_idivmod>
 8001c26:	1e0b      	subs	r3, r1, #0
 8001c28:	d108      	bne.n	8001c3c <main+0x164>
 8001c2a:	4b9b      	ldr	r3, [pc, #620]	@ (8001e98 <main+0x3c0>)
 8001c2c:	681b      	ldr	r3, [r3, #0]
 8001c2e:	2b00      	cmp	r3, #0
 8001c30:	dd04      	ble.n	8001c3c <main+0x164>
 8001c32:	4a99      	ldr	r2, [pc, #612]	@ (8001e98 <main+0x3c0>)
 8001c34:	2390      	movs	r3, #144	@ 0x90
 8001c36:	005b      	lsls	r3, r3, #1
 8001c38:	2100      	movs	r1, #0
 8001c3a:	50d1      	str	r1, [r2, r3]
	  if(((game.time.hours%weekLength)==0) && game.time.hours>0) game.weeklySteps=0;
 8001c3c:	4b96      	ldr	r3, [pc, #600]	@ (8001e98 <main+0x3c0>)
 8001c3e:	681b      	ldr	r3, [r3, #0]
 8001c40:	22a8      	movs	r2, #168	@ 0xa8
 8001c42:	0011      	movs	r1, r2
 8001c44:	0018      	movs	r0, r3
 8001c46:	f7fe fbd7 	bl	80003f8 <__aeabi_idivmod>
 8001c4a:	1e0b      	subs	r3, r1, #0
 8001c4c:	d108      	bne.n	8001c60 <main+0x188>
 8001c4e:	4b92      	ldr	r3, [pc, #584]	@ (8001e98 <main+0x3c0>)
 8001c50:	681b      	ldr	r3, [r3, #0]
 8001c52:	2b00      	cmp	r3, #0
 8001c54:	dd04      	ble.n	8001c60 <main+0x188>
 8001c56:	4a90      	ldr	r2, [pc, #576]	@ (8001e98 <main+0x3c0>)
 8001c58:	238e      	movs	r3, #142	@ 0x8e
 8001c5a:	005b      	lsls	r3, r3, #1
 8001c5c:	2100      	movs	r1, #0
 8001c5e:	50d1      	str	r1, [r2, r3]
	  if(steps!=0){
 8001c60:	4b87      	ldr	r3, [pc, #540]	@ (8001e80 <main+0x3a8>)
 8001c62:	781b      	ldrb	r3, [r3, #0]
 8001c64:	2b00      	cmp	r3, #0
 8001c66:	d033      	beq.n	8001cd0 <main+0x1f8>
	  game.stepsToday +=steps*game.numLocations;
 8001c68:	4a8b      	ldr	r2, [pc, #556]	@ (8001e98 <main+0x3c0>)
 8001c6a:	2390      	movs	r3, #144	@ 0x90
 8001c6c:	005b      	lsls	r3, r3, #1
 8001c6e:	58d2      	ldr	r2, [r2, r3]
 8001c70:	4b83      	ldr	r3, [pc, #524]	@ (8001e80 <main+0x3a8>)
 8001c72:	781b      	ldrb	r3, [r3, #0]
 8001c74:	0019      	movs	r1, r3
 8001c76:	4b88      	ldr	r3, [pc, #544]	@ (8001e98 <main+0x3c0>)
 8001c78:	695b      	ldr	r3, [r3, #20]
 8001c7a:	434b      	muls	r3, r1
 8001c7c:	18d1      	adds	r1, r2, r3
 8001c7e:	4a86      	ldr	r2, [pc, #536]	@ (8001e98 <main+0x3c0>)
 8001c80:	2390      	movs	r3, #144	@ 0x90
 8001c82:	005b      	lsls	r3, r3, #1
 8001c84:	50d1      	str	r1, [r2, r3]
	  game.weeklySteps+=steps*game.numLocations;
 8001c86:	4a84      	ldr	r2, [pc, #528]	@ (8001e98 <main+0x3c0>)
 8001c88:	238e      	movs	r3, #142	@ 0x8e
 8001c8a:	005b      	lsls	r3, r3, #1
 8001c8c:	58d2      	ldr	r2, [r2, r3]
 8001c8e:	4b7c      	ldr	r3, [pc, #496]	@ (8001e80 <main+0x3a8>)
 8001c90:	781b      	ldrb	r3, [r3, #0]
 8001c92:	0019      	movs	r1, r3
 8001c94:	4b80      	ldr	r3, [pc, #512]	@ (8001e98 <main+0x3c0>)
 8001c96:	695b      	ldr	r3, [r3, #20]
 8001c98:	434b      	muls	r3, r1
 8001c9a:	18d1      	adds	r1, r2, r3
 8001c9c:	4a7e      	ldr	r2, [pc, #504]	@ (8001e98 <main+0x3c0>)
 8001c9e:	238e      	movs	r3, #142	@ 0x8e
 8001ca0:	005b      	lsls	r3, r3, #1
 8001ca2:	50d1      	str	r1, [r2, r3]
	  game.allSteps+=steps*game.numLocations;
 8001ca4:	4a7c      	ldr	r2, [pc, #496]	@ (8001e98 <main+0x3c0>)
 8001ca6:	238c      	movs	r3, #140	@ 0x8c
 8001ca8:	005b      	lsls	r3, r3, #1
 8001caa:	58d2      	ldr	r2, [r2, r3]
 8001cac:	4b74      	ldr	r3, [pc, #464]	@ (8001e80 <main+0x3a8>)
 8001cae:	781b      	ldrb	r3, [r3, #0]
 8001cb0:	0019      	movs	r1, r3
 8001cb2:	4b79      	ldr	r3, [pc, #484]	@ (8001e98 <main+0x3c0>)
 8001cb4:	695b      	ldr	r3, [r3, #20]
 8001cb6:	434b      	muls	r3, r1
 8001cb8:	18d1      	adds	r1, r2, r3
 8001cba:	4a77      	ldr	r2, [pc, #476]	@ (8001e98 <main+0x3c0>)
 8001cbc:	238c      	movs	r3, #140	@ 0x8c
 8001cbe:	005b      	lsls	r3, r3, #1
 8001cc0:	50d1      	str	r1, [r2, r3]
	  steps=0;
 8001cc2:	4b6f      	ldr	r3, [pc, #444]	@ (8001e80 <main+0x3a8>)
 8001cc4:	2200      	movs	r2, #0
 8001cc6:	701a      	strb	r2, [r3, #0]
	  _ADXL343_WriteReg8(0x7E, 0xB1);
 8001cc8:	21b1      	movs	r1, #177	@ 0xb1
 8001cca:	207e      	movs	r0, #126	@ 0x7e
 8001ccc:	f000 fc5e 	bl	800258c <_ADXL343_WriteReg8>
	  }
	  //SendData();
	  //HAL_UART_Transmit(&huart2, "hello", 5, 100);
	  switch(currentMenu){
 8001cd0:	4b78      	ldr	r3, [pc, #480]	@ (8001eb4 <main+0x3dc>)
 8001cd2:	781b      	ldrb	r3, [r3, #0]
 8001cd4:	2b02      	cmp	r3, #2
 8001cd6:	d100      	bne.n	8001cda <main+0x202>
 8001cd8:	e102      	b.n	8001ee0 <main+0x408>
 8001cda:	dc9d      	bgt.n	8001c18 <main+0x140>
 8001cdc:	2b00      	cmp	r3, #0
 8001cde:	d05d      	beq.n	8001d9c <main+0x2c4>
 8001ce0:	2b01      	cmp	r3, #1
 8001ce2:	d199      	bne.n	8001c18 <main+0x140>
	  case Main:


		  if((++updateScreen)>=5)
 8001ce4:	4b74      	ldr	r3, [pc, #464]	@ (8001eb8 <main+0x3e0>)
 8001ce6:	681b      	ldr	r3, [r3, #0]
 8001ce8:	1c5a      	adds	r2, r3, #1
 8001cea:	4b73      	ldr	r3, [pc, #460]	@ (8001eb8 <main+0x3e0>)
 8001cec:	601a      	str	r2, [r3, #0]
 8001cee:	4b72      	ldr	r3, [pc, #456]	@ (8001eb8 <main+0x3e0>)
 8001cf0:	681b      	ldr	r3, [r3, #0]
 8001cf2:	2b04      	cmp	r3, #4
 8001cf4:	d922      	bls.n	8001d3c <main+0x264>
		  {
			  //Animate character
			  Animate(animSitting,1);
 8001cf6:	4b67      	ldr	r3, [pc, #412]	@ (8001e94 <main+0x3bc>)
 8001cf8:	2101      	movs	r1, #1
 8001cfa:	0018      	movs	r0, r3
 8001cfc:	f000 fbe2 	bl	80024c4 <Animate>
			  updateScreen = 0;
 8001d00:	4b6d      	ldr	r3, [pc, #436]	@ (8001eb8 <main+0x3e0>)
 8001d02:	2200      	movs	r2, #0
 8001d04:	601a      	str	r2, [r3, #0]
			  //Update steps
			  _ADXL343_ReadReg8(0x15, &steps, 1);
 8001d06:	4b5e      	ldr	r3, [pc, #376]	@ (8001e80 <main+0x3a8>)
 8001d08:	2201      	movs	r2, #1
 8001d0a:	0019      	movs	r1, r3
 8001d0c:	2015      	movs	r0, #21
 8001d0e:	f000 fc0b 	bl	8002528 <_ADXL343_ReadReg8>
			  sprintf(buffer2, "Steps today: %d ", steps);
 8001d12:	4b5b      	ldr	r3, [pc, #364]	@ (8001e80 <main+0x3a8>)
 8001d14:	781b      	ldrb	r3, [r3, #0]
 8001d16:	001a      	movs	r2, r3
 8001d18:	4968      	ldr	r1, [pc, #416]	@ (8001ebc <main+0x3e4>)
 8001d1a:	4b69      	ldr	r3, [pc, #420]	@ (8001ec0 <main+0x3e8>)
 8001d1c:	0018      	movs	r0, r3
 8001d1e:	f005 fca9 	bl	8007674 <siprintf>
			  drawString(0, 20, buffer2, WHITE, BLACK, 1, 1);
 8001d22:	2301      	movs	r3, #1
 8001d24:	425b      	negs	r3, r3
 8001d26:	4a66      	ldr	r2, [pc, #408]	@ (8001ec0 <main+0x3e8>)
 8001d28:	2101      	movs	r1, #1
 8001d2a:	9102      	str	r1, [sp, #8]
 8001d2c:	2101      	movs	r1, #1
 8001d2e:	9101      	str	r1, [sp, #4]
 8001d30:	2100      	movs	r1, #0
 8001d32:	9100      	str	r1, [sp, #0]
 8001d34:	2114      	movs	r1, #20
 8001d36:	2000      	movs	r0, #0
 8001d38:	f7ff f9b8 	bl	80010ac <drawString>
		  }


		  //Change current Menu
		  if(HAL_GPIO_ReadPin(GPIOB, GPIO_PIN_2) == GPIO_PIN_SET ) {
 8001d3c:	4b61      	ldr	r3, [pc, #388]	@ (8001ec4 <main+0x3ec>)
 8001d3e:	2104      	movs	r1, #4
 8001d40:	0018      	movs	r0, r3
 8001d42:	f001 f9f7 	bl	8003134 <HAL_GPIO_ReadPin>
 8001d46:	0003      	movs	r3, r0
 8001d48:	2b01      	cmp	r3, #1
 8001d4a:	d10e      	bne.n	8001d6a <main+0x292>
			  HAL_TIM_PWM_Start(&htim17, TIM_CHANNEL_1);
 8001d4c:	4b5e      	ldr	r3, [pc, #376]	@ (8001ec8 <main+0x3f0>)
 8001d4e:	2100      	movs	r1, #0
 8001d50:	0018      	movs	r0, r3
 8001d52:	f003 fefd 	bl	8005b50 <HAL_TIM_PWM_Start>
			  currentMenu = MusicTest;
 8001d56:	4b57      	ldr	r3, [pc, #348]	@ (8001eb4 <main+0x3dc>)
 8001d58:	2202      	movs	r2, #2
 8001d5a:	701a      	strb	r2, [r3, #0]
			  canChange = 0;
 8001d5c:	4b5b      	ldr	r3, [pc, #364]	@ (8001ecc <main+0x3f4>)
 8001d5e:	2200      	movs	r2, #0
 8001d60:	701a      	strb	r2, [r3, #0]
			  fillScreen(BLACK);
 8001d62:	2000      	movs	r0, #0
 8001d64:	f7ff fae6 	bl	8001334 <fillScreen>
		  }
		  else
			  canChange = 1;


		  break;
 8001d68:	e102      	b.n	8001f70 <main+0x498>
		  else if(HAL_GPIO_ReadPin(GPIOA, GPIO_PIN_11) == GPIO_PIN_SET ) {
 8001d6a:	2380      	movs	r3, #128	@ 0x80
 8001d6c:	011a      	lsls	r2, r3, #4
 8001d6e:	23a0      	movs	r3, #160	@ 0xa0
 8001d70:	05db      	lsls	r3, r3, #23
 8001d72:	0011      	movs	r1, r2
 8001d74:	0018      	movs	r0, r3
 8001d76:	f001 f9dd 	bl	8003134 <HAL_GPIO_ReadPin>
 8001d7a:	0003      	movs	r3, r0
 8001d7c:	2b01      	cmp	r3, #1
 8001d7e:	d109      	bne.n	8001d94 <main+0x2bc>
			  currentMenu = StatsDisplay;
 8001d80:	4b4c      	ldr	r3, [pc, #304]	@ (8001eb4 <main+0x3dc>)
 8001d82:	2200      	movs	r2, #0
 8001d84:	701a      	strb	r2, [r3, #0]
			  canChange = 0;
 8001d86:	4b51      	ldr	r3, [pc, #324]	@ (8001ecc <main+0x3f4>)
 8001d88:	2200      	movs	r2, #0
 8001d8a:	701a      	strb	r2, [r3, #0]
			  fillScreen(BLACK);
 8001d8c:	2000      	movs	r0, #0
 8001d8e:	f7ff fad1 	bl	8001334 <fillScreen>
		  break;
 8001d92:	e0ed      	b.n	8001f70 <main+0x498>
			  canChange = 1;
 8001d94:	4b4d      	ldr	r3, [pc, #308]	@ (8001ecc <main+0x3f4>)
 8001d96:	2201      	movs	r2, #1
 8001d98:	701a      	strb	r2, [r3, #0]
		  break;
 8001d9a:	e0e9      	b.n	8001f70 <main+0x498>
	  case StatsDisplay:

		  if((++updateScreen)>=5)
 8001d9c:	4b46      	ldr	r3, [pc, #280]	@ (8001eb8 <main+0x3e0>)
 8001d9e:	681b      	ldr	r3, [r3, #0]
 8001da0:	1c5a      	adds	r2, r3, #1
 8001da2:	4b45      	ldr	r3, [pc, #276]	@ (8001eb8 <main+0x3e0>)
 8001da4:	601a      	str	r2, [r3, #0]
 8001da6:	4b44      	ldr	r3, [pc, #272]	@ (8001eb8 <main+0x3e0>)
 8001da8:	681b      	ldr	r3, [r3, #0]
 8001daa:	2b04      	cmp	r3, #4
 8001dac:	d951      	bls.n	8001e52 <main+0x37a>
		  {
			  //fillScreen(BLACK);

			  drawString(0, 150, "STEPS", WHITE, BLACK, 1, 1);
 8001dae:	2301      	movs	r3, #1
 8001db0:	425b      	negs	r3, r3
 8001db2:	4a47      	ldr	r2, [pc, #284]	@ (8001ed0 <main+0x3f8>)
 8001db4:	2101      	movs	r1, #1
 8001db6:	9102      	str	r1, [sp, #8]
 8001db8:	2101      	movs	r1, #1
 8001dba:	9101      	str	r1, [sp, #4]
 8001dbc:	2100      	movs	r1, #0
 8001dbe:	9100      	str	r1, [sp, #0]
 8001dc0:	2196      	movs	r1, #150	@ 0x96
 8001dc2:	2000      	movs	r0, #0
 8001dc4:	f7ff f972 	bl	80010ac <drawString>
			  sprintf(buffer2, "Today: %d ", game.stepsToday);
 8001dc8:	4a33      	ldr	r2, [pc, #204]	@ (8001e98 <main+0x3c0>)
 8001dca:	2390      	movs	r3, #144	@ 0x90
 8001dcc:	005b      	lsls	r3, r3, #1
 8001dce:	58d2      	ldr	r2, [r2, r3]
 8001dd0:	4940      	ldr	r1, [pc, #256]	@ (8001ed4 <main+0x3fc>)
 8001dd2:	4b3b      	ldr	r3, [pc, #236]	@ (8001ec0 <main+0x3e8>)
 8001dd4:	0018      	movs	r0, r3
 8001dd6:	f005 fc4d 	bl	8007674 <siprintf>
			  drawString(0, 140, buffer2, WHITE, BLACK, 1, 1);
 8001dda:	2301      	movs	r3, #1
 8001ddc:	425b      	negs	r3, r3
 8001dde:	4a38      	ldr	r2, [pc, #224]	@ (8001ec0 <main+0x3e8>)
 8001de0:	2101      	movs	r1, #1
 8001de2:	9102      	str	r1, [sp, #8]
 8001de4:	2101      	movs	r1, #1
 8001de6:	9101      	str	r1, [sp, #4]
 8001de8:	2100      	movs	r1, #0
 8001dea:	9100      	str	r1, [sp, #0]
 8001dec:	218c      	movs	r1, #140	@ 0x8c
 8001dee:	2000      	movs	r0, #0
 8001df0:	f7ff f95c 	bl	80010ac <drawString>
			  sprintf(buffer2, "This week: %d ", game.weeklySteps);
 8001df4:	4a28      	ldr	r2, [pc, #160]	@ (8001e98 <main+0x3c0>)
 8001df6:	238e      	movs	r3, #142	@ 0x8e
 8001df8:	005b      	lsls	r3, r3, #1
 8001dfa:	58d2      	ldr	r2, [r2, r3]
 8001dfc:	4936      	ldr	r1, [pc, #216]	@ (8001ed8 <main+0x400>)
 8001dfe:	4b30      	ldr	r3, [pc, #192]	@ (8001ec0 <main+0x3e8>)
 8001e00:	0018      	movs	r0, r3
 8001e02:	f005 fc37 	bl	8007674 <siprintf>
			  drawString(0, 130, buffer2, WHITE, BLACK, 1, 1);
 8001e06:	2301      	movs	r3, #1
 8001e08:	425b      	negs	r3, r3
 8001e0a:	4a2d      	ldr	r2, [pc, #180]	@ (8001ec0 <main+0x3e8>)
 8001e0c:	2101      	movs	r1, #1
 8001e0e:	9102      	str	r1, [sp, #8]
 8001e10:	2101      	movs	r1, #1
 8001e12:	9101      	str	r1, [sp, #4]
 8001e14:	2100      	movs	r1, #0
 8001e16:	9100      	str	r1, [sp, #0]
 8001e18:	2182      	movs	r1, #130	@ 0x82
 8001e1a:	2000      	movs	r0, #0
 8001e1c:	f7ff f946 	bl	80010ac <drawString>
			  sprintf(buffer2, "All time: %d ", game.allSteps);
 8001e20:	4a1d      	ldr	r2, [pc, #116]	@ (8001e98 <main+0x3c0>)
 8001e22:	238c      	movs	r3, #140	@ 0x8c
 8001e24:	005b      	lsls	r3, r3, #1
 8001e26:	58d2      	ldr	r2, [r2, r3]
 8001e28:	492c      	ldr	r1, [pc, #176]	@ (8001edc <main+0x404>)
 8001e2a:	4b25      	ldr	r3, [pc, #148]	@ (8001ec0 <main+0x3e8>)
 8001e2c:	0018      	movs	r0, r3
 8001e2e:	f005 fc21 	bl	8007674 <siprintf>
			  drawString(0, 120, buffer2, WHITE, BLACK, 1, 1);
 8001e32:	2301      	movs	r3, #1
 8001e34:	425b      	negs	r3, r3
 8001e36:	4a22      	ldr	r2, [pc, #136]	@ (8001ec0 <main+0x3e8>)
 8001e38:	2101      	movs	r1, #1
 8001e3a:	9102      	str	r1, [sp, #8]
 8001e3c:	2101      	movs	r1, #1
 8001e3e:	9101      	str	r1, [sp, #4]
 8001e40:	2100      	movs	r1, #0
 8001e42:	9100      	str	r1, [sp, #0]
 8001e44:	2178      	movs	r1, #120	@ 0x78
 8001e46:	2000      	movs	r0, #0
 8001e48:	f7ff f930 	bl	80010ac <drawString>

			  //drawString(0, 70, "PET", WHITE, BLACK, 1, 1);
			  updateScreen = 0;
 8001e4c:	4b1a      	ldr	r3, [pc, #104]	@ (8001eb8 <main+0x3e0>)
 8001e4e:	2200      	movs	r2, #0
 8001e50:	601a      	str	r2, [r3, #0]
		  }
	  	  if(HAL_GPIO_ReadPin(GPIOB, GPIO_PIN_2) == GPIO_PIN_SET ){
 8001e52:	4b1c      	ldr	r3, [pc, #112]	@ (8001ec4 <main+0x3ec>)
 8001e54:	2104      	movs	r1, #4
 8001e56:	0018      	movs	r0, r3
 8001e58:	f001 f96c 	bl	8003134 <HAL_GPIO_ReadPin>
 8001e5c:	0003      	movs	r3, r0
 8001e5e:	2b01      	cmp	r3, #1
 8001e60:	d109      	bne.n	8001e76 <main+0x39e>
	  		currentMenu = Main;
 8001e62:	4b14      	ldr	r3, [pc, #80]	@ (8001eb4 <main+0x3dc>)
 8001e64:	2201      	movs	r2, #1
 8001e66:	701a      	strb	r2, [r3, #0]
	  		canChange = 0;
 8001e68:	4b18      	ldr	r3, [pc, #96]	@ (8001ecc <main+0x3f4>)
 8001e6a:	2200      	movs	r2, #0
 8001e6c:	701a      	strb	r2, [r3, #0]
	  		fillScreen(BLACK);
 8001e6e:	2000      	movs	r0, #0
 8001e70:	f7ff fa60 	bl	8001334 <fillScreen>
	  	  }
	  	  else
	  	      canChange = 1;

	  	  break;
 8001e74:	e07c      	b.n	8001f70 <main+0x498>
	  	      canChange = 1;
 8001e76:	4b15      	ldr	r3, [pc, #84]	@ (8001ecc <main+0x3f4>)
 8001e78:	2201      	movs	r2, #1
 8001e7a:	701a      	strb	r2, [r3, #0]
	  	  break;
 8001e7c:	e078      	b.n	8001f70 <main+0x498>
 8001e7e:	46c0      	nop			@ (mov r8, r8)
 8001e80:	20000cd0 	.word	0x20000cd0
 8001e84:	20000c3c 	.word	0x20000c3c
 8001e88:	20000000 	.word	0x20000000
 8001e8c:	20000c44 	.word	0x20000c44
 8001e90:	200004cc 	.word	0x200004cc
 8001e94:	20000c4c 	.word	0x20000c4c
 8001e98:	20000a68 	.word	0x20000a68
 8001e9c:	00004e20 	.word	0x00004e20
 8001ea0:	20000bb0 	.word	0x20000bb0
 8001ea4:	414587dd 	.word	0x414587dd
 8001ea8:	c2b233c5 	.word	0xc2b233c5
 8001eac:	20000bb8 	.word	0x20000bb8
 8001eb0:	40014800 	.word	0x40014800
 8001eb4:	200009e0 	.word	0x200009e0
 8001eb8:	20000c38 	.word	0x20000c38
 8001ebc:	08007fc8 	.word	0x08007fc8
 8001ec0:	20000c6c 	.word	0x20000c6c
 8001ec4:	50000400 	.word	0x50000400
 8001ec8:	20000db8 	.word	0x20000db8
 8001ecc:	200009e1 	.word	0x200009e1
 8001ed0:	08007fdc 	.word	0x08007fdc
 8001ed4:	08007fe4 	.word	0x08007fe4
 8001ed8:	08007ff0 	.word	0x08007ff0
 8001edc:	08008000 	.word	0x08008000
	  case MusicTest:
		  //fillScreen(BLUE);
		  HAL_Delay(500);
 8001ee0:	23fa      	movs	r3, #250	@ 0xfa
 8001ee2:	005b      	lsls	r3, r3, #1
 8001ee4:	0018      	movs	r0, r3
 8001ee6:	f000 fecb 	bl	8002c80 <HAL_Delay>
		  freq = freqs[(toneIndex++)%8];
 8001eea:	4b22      	ldr	r3, [pc, #136]	@ (8001f74 <main+0x49c>)
 8001eec:	881b      	ldrh	r3, [r3, #0]
 8001eee:	b29b      	uxth	r3, r3
 8001ef0:	1c5a      	adds	r2, r3, #1
 8001ef2:	b291      	uxth	r1, r2
 8001ef4:	4a1f      	ldr	r2, [pc, #124]	@ (8001f74 <main+0x49c>)
 8001ef6:	8011      	strh	r1, [r2, #0]
 8001ef8:	001a      	movs	r2, r3
 8001efa:	2307      	movs	r3, #7
 8001efc:	4013      	ands	r3, r2
 8001efe:	4a1e      	ldr	r2, [pc, #120]	@ (8001f78 <main+0x4a0>)
 8001f00:	00db      	lsls	r3, r3, #3
 8001f02:	18d3      	adds	r3, r2, r3
 8001f04:	681a      	ldr	r2, [r3, #0]
 8001f06:	685b      	ldr	r3, [r3, #4]
 8001f08:	491c      	ldr	r1, [pc, #112]	@ (8001f7c <main+0x4a4>)
 8001f0a:	600a      	str	r2, [r1, #0]
 8001f0c:	604b      	str	r3, [r1, #4]
		  TIM17->ARR=(uint32_t)(987*(float)1000/(float)freq);
 8001f0e:	4b1b      	ldr	r3, [pc, #108]	@ (8001f7c <main+0x4a4>)
 8001f10:	681a      	ldr	r2, [r3, #0]
 8001f12:	685b      	ldr	r3, [r3, #4]
 8001f14:	0010      	movs	r0, r2
 8001f16:	0019      	movs	r1, r3
 8001f18:	f7fe ff5c 	bl	8000dd4 <__aeabi_d2f>
 8001f1c:	1c03      	adds	r3, r0, #0
 8001f1e:	1c19      	adds	r1, r3, #0
 8001f20:	4817      	ldr	r0, [pc, #92]	@ (8001f80 <main+0x4a8>)
 8001f22:	f7fe fbad 	bl	8000680 <__aeabi_fdiv>
 8001f26:	1c03      	adds	r3, r0, #0
 8001f28:	4c16      	ldr	r4, [pc, #88]	@ (8001f84 <main+0x4ac>)
 8001f2a:	1c18      	adds	r0, r3, #0
 8001f2c:	f7fe fac4 	bl	80004b8 <__aeabi_f2uiz>
 8001f30:	0003      	movs	r3, r0
 8001f32:	62e3      	str	r3, [r4, #44]	@ 0x2c

		  if(HAL_GPIO_ReadPin(GPIOA, GPIO_PIN_11) == GPIO_PIN_SET) {
 8001f34:	2380      	movs	r3, #128	@ 0x80
 8001f36:	011a      	lsls	r2, r3, #4
 8001f38:	23a0      	movs	r3, #160	@ 0xa0
 8001f3a:	05db      	lsls	r3, r3, #23
 8001f3c:	0011      	movs	r1, r2
 8001f3e:	0018      	movs	r0, r3
 8001f40:	f001 f8f8 	bl	8003134 <HAL_GPIO_ReadPin>
 8001f44:	0003      	movs	r3, r0
 8001f46:	2b01      	cmp	r3, #1
 8001f48:	d10e      	bne.n	8001f68 <main+0x490>
			  currentMenu = Main;
 8001f4a:	4b0f      	ldr	r3, [pc, #60]	@ (8001f88 <main+0x4b0>)
 8001f4c:	2201      	movs	r2, #1
 8001f4e:	701a      	strb	r2, [r3, #0]
			  canChange = 0;
 8001f50:	4b0e      	ldr	r3, [pc, #56]	@ (8001f8c <main+0x4b4>)
 8001f52:	2200      	movs	r2, #0
 8001f54:	701a      	strb	r2, [r3, #0]
			  HAL_TIM_PWM_Stop(&htim17, TIM_CHANNEL_1);
 8001f56:	4b0e      	ldr	r3, [pc, #56]	@ (8001f90 <main+0x4b8>)
 8001f58:	2100      	movs	r1, #0
 8001f5a:	0018      	movs	r0, r3
 8001f5c:	f003 fee8 	bl	8005d30 <HAL_TIM_PWM_Stop>
			  fillScreen(BLACK);
 8001f60:	2000      	movs	r0, #0
 8001f62:	f7ff f9e7 	bl	8001334 <fillScreen>
		  }
		  else
			  canChange = 1;

		  break;
 8001f66:	e002      	b.n	8001f6e <main+0x496>
			  canChange = 1;
 8001f68:	4b08      	ldr	r3, [pc, #32]	@ (8001f8c <main+0x4b4>)
 8001f6a:	2201      	movs	r2, #1
 8001f6c:	701a      	strb	r2, [r3, #0]
		  break;
 8001f6e:	46c0      	nop			@ (mov r8, r8)
	  if(((game.time.hours%dayLength)==0) && game.time.hours>0) game.stepsToday=0;
 8001f70:	e652      	b.n	8001c18 <main+0x140>
 8001f72:	46c0      	nop			@ (mov r8, r8)
 8001f74:	20000c68 	.word	0x20000c68
 8001f78:	200009a0 	.word	0x200009a0
 8001f7c:	20000c60 	.word	0x20000c60
 8001f80:	4970f780 	.word	0x4970f780
 8001f84:	40014800 	.word	0x40014800
 8001f88:	200009e0 	.word	0x200009e0
 8001f8c:	200009e1 	.word	0x200009e1
 8001f90:	20000db8 	.word	0x20000db8

08001f94 <SystemClock_Config>:
/**
  * @brief System Clock Configuration
  * @retval None
  */
void SystemClock_Config(void)
{
 8001f94:	b590      	push	{r4, r7, lr}
 8001f96:	b095      	sub	sp, #84	@ 0x54
 8001f98:	af00      	add	r7, sp, #0
  RCC_OscInitTypeDef RCC_OscInitStruct = {0};
 8001f9a:	2414      	movs	r4, #20
 8001f9c:	193b      	adds	r3, r7, r4
 8001f9e:	0018      	movs	r0, r3
 8001fa0:	233c      	movs	r3, #60	@ 0x3c
 8001fa2:	001a      	movs	r2, r3
 8001fa4:	2100      	movs	r1, #0
 8001fa6:	f005 fb85 	bl	80076b4 <memset>
  RCC_ClkInitTypeDef RCC_ClkInitStruct = {0};
 8001faa:	1d3b      	adds	r3, r7, #4
 8001fac:	0018      	movs	r0, r3
 8001fae:	2310      	movs	r3, #16
 8001fb0:	001a      	movs	r2, r3
 8001fb2:	2100      	movs	r1, #0
 8001fb4:	f005 fb7e 	bl	80076b4 <memset>

  /** Configure the main internal regulator output voltage
  */
  HAL_PWREx_ControlVoltageScaling(PWR_REGULATOR_VOLTAGE_SCALE1);
 8001fb8:	2380      	movs	r3, #128	@ 0x80
 8001fba:	009b      	lsls	r3, r3, #2
 8001fbc:	0018      	movs	r0, r3
 8001fbe:	f001 ff37 	bl	8003e30 <HAL_PWREx_ControlVoltageScaling>

  /** Initializes the RCC Oscillators according to the specified parameters
  * in the RCC_OscInitTypeDef structure.
  */
  RCC_OscInitStruct.OscillatorType = RCC_OSCILLATORTYPE_HSI|RCC_OSCILLATORTYPE_LSI;
 8001fc2:	193b      	adds	r3, r7, r4
 8001fc4:	220a      	movs	r2, #10
 8001fc6:	601a      	str	r2, [r3, #0]
  RCC_OscInitStruct.HSIState = RCC_HSI_ON;
 8001fc8:	193b      	adds	r3, r7, r4
 8001fca:	2280      	movs	r2, #128	@ 0x80
 8001fcc:	0052      	lsls	r2, r2, #1
 8001fce:	60da      	str	r2, [r3, #12]
  RCC_OscInitStruct.HSIDiv = RCC_HSI_DIV1;
 8001fd0:	0021      	movs	r1, r4
 8001fd2:	187b      	adds	r3, r7, r1
 8001fd4:	2200      	movs	r2, #0
 8001fd6:	611a      	str	r2, [r3, #16]
  RCC_OscInitStruct.HSICalibrationValue = RCC_HSICALIBRATION_DEFAULT;
 8001fd8:	187b      	adds	r3, r7, r1
 8001fda:	2240      	movs	r2, #64	@ 0x40
 8001fdc:	615a      	str	r2, [r3, #20]
  RCC_OscInitStruct.LSIState = RCC_LSI_ON;
 8001fde:	187b      	adds	r3, r7, r1
 8001fe0:	2201      	movs	r2, #1
 8001fe2:	619a      	str	r2, [r3, #24]
  RCC_OscInitStruct.PLL.PLLState = RCC_PLL_ON;
 8001fe4:	187b      	adds	r3, r7, r1
 8001fe6:	2202      	movs	r2, #2
 8001fe8:	621a      	str	r2, [r3, #32]
  RCC_OscInitStruct.PLL.PLLSource = RCC_PLLSOURCE_HSI;
 8001fea:	187b      	adds	r3, r7, r1
 8001fec:	2202      	movs	r2, #2
 8001fee:	625a      	str	r2, [r3, #36]	@ 0x24
  RCC_OscInitStruct.PLL.PLLM = RCC_PLLM_DIV1;
 8001ff0:	187b      	adds	r3, r7, r1
 8001ff2:	2200      	movs	r2, #0
 8001ff4:	629a      	str	r2, [r3, #40]	@ 0x28
  RCC_OscInitStruct.PLL.PLLN = 8;
 8001ff6:	187b      	adds	r3, r7, r1
 8001ff8:	2208      	movs	r2, #8
 8001ffa:	62da      	str	r2, [r3, #44]	@ 0x2c
  RCC_OscInitStruct.PLL.PLLP = RCC_PLLP_DIV2;
 8001ffc:	187b      	adds	r3, r7, r1
 8001ffe:	2280      	movs	r2, #128	@ 0x80
 8002000:	0292      	lsls	r2, r2, #10
 8002002:	631a      	str	r2, [r3, #48]	@ 0x30
  RCC_OscInitStruct.PLL.PLLQ = RCC_PLLQ_DIV2;
 8002004:	187b      	adds	r3, r7, r1
 8002006:	2280      	movs	r2, #128	@ 0x80
 8002008:	0492      	lsls	r2, r2, #18
 800200a:	635a      	str	r2, [r3, #52]	@ 0x34
  RCC_OscInitStruct.PLL.PLLR = RCC_PLLR_DIV2;
 800200c:	187b      	adds	r3, r7, r1
 800200e:	2280      	movs	r2, #128	@ 0x80
 8002010:	0592      	lsls	r2, r2, #22
 8002012:	639a      	str	r2, [r3, #56]	@ 0x38
  if (HAL_RCC_OscConfig(&RCC_OscInitStruct) != HAL_OK)
 8002014:	187b      	adds	r3, r7, r1
 8002016:	0018      	movs	r0, r3
 8002018:	f001 ff56 	bl	8003ec8 <HAL_RCC_OscConfig>
 800201c:	1e03      	subs	r3, r0, #0
 800201e:	d001      	beq.n	8002024 <SystemClock_Config+0x90>
  {
    Error_Handler();
 8002020:	f000 fb14 	bl	800264c <Error_Handler>
  }

  /** Initializes the CPU, AHB and APB buses clocks
  */
  RCC_ClkInitStruct.ClockType = RCC_CLOCKTYPE_HCLK|RCC_CLOCKTYPE_SYSCLK
 8002024:	1d3b      	adds	r3, r7, #4
 8002026:	2207      	movs	r2, #7
 8002028:	601a      	str	r2, [r3, #0]
                              |RCC_CLOCKTYPE_PCLK1;
  RCC_ClkInitStruct.SYSCLKSource = RCC_SYSCLKSOURCE_PLLCLK;
 800202a:	1d3b      	adds	r3, r7, #4
 800202c:	2202      	movs	r2, #2
 800202e:	605a      	str	r2, [r3, #4]
  RCC_ClkInitStruct.AHBCLKDivider = RCC_SYSCLK_DIV1;
 8002030:	1d3b      	adds	r3, r7, #4
 8002032:	2200      	movs	r2, #0
 8002034:	609a      	str	r2, [r3, #8]
  RCC_ClkInitStruct.APB1CLKDivider = RCC_HCLK_DIV1;
 8002036:	1d3b      	adds	r3, r7, #4
 8002038:	2200      	movs	r2, #0
 800203a:	60da      	str	r2, [r3, #12]

  if (HAL_RCC_ClockConfig(&RCC_ClkInitStruct, FLASH_LATENCY_2) != HAL_OK)
 800203c:	1d3b      	adds	r3, r7, #4
 800203e:	2102      	movs	r1, #2
 8002040:	0018      	movs	r0, r3
 8002042:	f002 faa1 	bl	8004588 <HAL_RCC_ClockConfig>
 8002046:	1e03      	subs	r3, r0, #0
 8002048:	d001      	beq.n	800204e <SystemClock_Config+0xba>
  {
    Error_Handler();
 800204a:	f000 faff 	bl	800264c <Error_Handler>
  }
}
 800204e:	46c0      	nop			@ (mov r8, r8)
 8002050:	46bd      	mov	sp, r7
 8002052:	b015      	add	sp, #84	@ 0x54
 8002054:	bd90      	pop	{r4, r7, pc}
	...

08002058 <MX_I2C1_Init>:
  * @brief I2C1 Initialization Function
  * @param None
  * @retval None
  */
static void MX_I2C1_Init(void)
{
 8002058:	b580      	push	{r7, lr}
 800205a:	af00      	add	r7, sp, #0
  /* USER CODE END I2C1_Init 0 */

  /* USER CODE BEGIN I2C1_Init 1 */

  /* USER CODE END I2C1_Init 1 */
  hi2c1.Instance = I2C1;
 800205c:	4b1b      	ldr	r3, [pc, #108]	@ (80020cc <MX_I2C1_Init+0x74>)
 800205e:	4a1c      	ldr	r2, [pc, #112]	@ (80020d0 <MX_I2C1_Init+0x78>)
 8002060:	601a      	str	r2, [r3, #0]
  hi2c1.Init.Timing = 0x10B17DB5;
 8002062:	4b1a      	ldr	r3, [pc, #104]	@ (80020cc <MX_I2C1_Init+0x74>)
 8002064:	4a1b      	ldr	r2, [pc, #108]	@ (80020d4 <MX_I2C1_Init+0x7c>)
 8002066:	605a      	str	r2, [r3, #4]
  hi2c1.Init.OwnAddress1 = 0;
 8002068:	4b18      	ldr	r3, [pc, #96]	@ (80020cc <MX_I2C1_Init+0x74>)
 800206a:	2200      	movs	r2, #0
 800206c:	609a      	str	r2, [r3, #8]
  hi2c1.Init.AddressingMode = I2C_ADDRESSINGMODE_7BIT;
 800206e:	4b17      	ldr	r3, [pc, #92]	@ (80020cc <MX_I2C1_Init+0x74>)
 8002070:	2201      	movs	r2, #1
 8002072:	60da      	str	r2, [r3, #12]
  hi2c1.Init.DualAddressMode = I2C_DUALADDRESS_DISABLE;
 8002074:	4b15      	ldr	r3, [pc, #84]	@ (80020cc <MX_I2C1_Init+0x74>)
 8002076:	2200      	movs	r2, #0
 8002078:	611a      	str	r2, [r3, #16]
  hi2c1.Init.OwnAddress2 = 0;
 800207a:	4b14      	ldr	r3, [pc, #80]	@ (80020cc <MX_I2C1_Init+0x74>)
 800207c:	2200      	movs	r2, #0
 800207e:	615a      	str	r2, [r3, #20]
  hi2c1.Init.OwnAddress2Masks = I2C_OA2_NOMASK;
 8002080:	4b12      	ldr	r3, [pc, #72]	@ (80020cc <MX_I2C1_Init+0x74>)
 8002082:	2200      	movs	r2, #0
 8002084:	619a      	str	r2, [r3, #24]
  hi2c1.Init.GeneralCallMode = I2C_GENERALCALL_DISABLE;
 8002086:	4b11      	ldr	r3, [pc, #68]	@ (80020cc <MX_I2C1_Init+0x74>)
 8002088:	2200      	movs	r2, #0
 800208a:	61da      	str	r2, [r3, #28]
  hi2c1.Init.NoStretchMode = I2C_NOSTRETCH_DISABLE;
 800208c:	4b0f      	ldr	r3, [pc, #60]	@ (80020cc <MX_I2C1_Init+0x74>)
 800208e:	2200      	movs	r2, #0
 8002090:	621a      	str	r2, [r3, #32]
  if (HAL_I2C_Init(&hi2c1) != HAL_OK)
 8002092:	4b0e      	ldr	r3, [pc, #56]	@ (80020cc <MX_I2C1_Init+0x74>)
 8002094:	0018      	movs	r0, r3
 8002096:	f001 f887 	bl	80031a8 <HAL_I2C_Init>
 800209a:	1e03      	subs	r3, r0, #0
 800209c:	d001      	beq.n	80020a2 <MX_I2C1_Init+0x4a>
  {
    Error_Handler();
 800209e:	f000 fad5 	bl	800264c <Error_Handler>
  }

  /** Configure Analogue filter
  */
  if (HAL_I2CEx_ConfigAnalogFilter(&hi2c1, I2C_ANALOGFILTER_ENABLE) != HAL_OK)
 80020a2:	4b0a      	ldr	r3, [pc, #40]	@ (80020cc <MX_I2C1_Init+0x74>)
 80020a4:	2100      	movs	r1, #0
 80020a6:	0018      	movs	r0, r3
 80020a8:	f001 fe2a 	bl	8003d00 <HAL_I2CEx_ConfigAnalogFilter>
 80020ac:	1e03      	subs	r3, r0, #0
 80020ae:	d001      	beq.n	80020b4 <MX_I2C1_Init+0x5c>
  {
    Error_Handler();
 80020b0:	f000 facc 	bl	800264c <Error_Handler>
  }

  /** Configure Digital filter
  */
  if (HAL_I2CEx_ConfigDigitalFilter(&hi2c1, 0) != HAL_OK)
 80020b4:	4b05      	ldr	r3, [pc, #20]	@ (80020cc <MX_I2C1_Init+0x74>)
 80020b6:	2100      	movs	r1, #0
 80020b8:	0018      	movs	r0, r3
 80020ba:	f001 fe6d 	bl	8003d98 <HAL_I2CEx_ConfigDigitalFilter>
 80020be:	1e03      	subs	r3, r0, #0
 80020c0:	d001      	beq.n	80020c6 <MX_I2C1_Init+0x6e>
  {
    Error_Handler();
 80020c2:	f000 fac3 	bl	800264c <Error_Handler>
  }
  /* USER CODE BEGIN I2C1_Init 2 */

  /* USER CODE END I2C1_Init 2 */

}
 80020c6:	46c0      	nop			@ (mov r8, r8)
 80020c8:	46bd      	mov	sp, r7
 80020ca:	bd80      	pop	{r7, pc}
 80020cc:	20000cd4 	.word	0x20000cd4
 80020d0:	40005400 	.word	0x40005400
 80020d4:	10b17db5 	.word	0x10b17db5

080020d8 <MX_SPI1_Init>:
  * @brief SPI1 Initialization Function
  * @param None
  * @retval None
  */
static void MX_SPI1_Init(void)
{
 80020d8:	b580      	push	{r7, lr}
 80020da:	af00      	add	r7, sp, #0

  /* USER CODE BEGIN SPI1_Init 1 */

  /* USER CODE END SPI1_Init 1 */
  /* SPI1 parameter configuration*/
  hspi1.Instance = SPI1;
 80020dc:	4b1c      	ldr	r3, [pc, #112]	@ (8002150 <MX_SPI1_Init+0x78>)
 80020de:	4a1d      	ldr	r2, [pc, #116]	@ (8002154 <MX_SPI1_Init+0x7c>)
 80020e0:	601a      	str	r2, [r3, #0]
  hspi1.Init.Mode = SPI_MODE_MASTER;
 80020e2:	4b1b      	ldr	r3, [pc, #108]	@ (8002150 <MX_SPI1_Init+0x78>)
 80020e4:	2282      	movs	r2, #130	@ 0x82
 80020e6:	0052      	lsls	r2, r2, #1
 80020e8:	605a      	str	r2, [r3, #4]
  hspi1.Init.Direction = SPI_DIRECTION_1LINE;
 80020ea:	4b19      	ldr	r3, [pc, #100]	@ (8002150 <MX_SPI1_Init+0x78>)
 80020ec:	2280      	movs	r2, #128	@ 0x80
 80020ee:	0212      	lsls	r2, r2, #8
 80020f0:	609a      	str	r2, [r3, #8]
  hspi1.Init.DataSize = SPI_DATASIZE_8BIT;
 80020f2:	4b17      	ldr	r3, [pc, #92]	@ (8002150 <MX_SPI1_Init+0x78>)
 80020f4:	22e0      	movs	r2, #224	@ 0xe0
 80020f6:	00d2      	lsls	r2, r2, #3
 80020f8:	60da      	str	r2, [r3, #12]
  hspi1.Init.CLKPolarity = SPI_POLARITY_LOW;
 80020fa:	4b15      	ldr	r3, [pc, #84]	@ (8002150 <MX_SPI1_Init+0x78>)
 80020fc:	2200      	movs	r2, #0
 80020fe:	611a      	str	r2, [r3, #16]
  hspi1.Init.CLKPhase = SPI_PHASE_1EDGE;
 8002100:	4b13      	ldr	r3, [pc, #76]	@ (8002150 <MX_SPI1_Init+0x78>)
 8002102:	2200      	movs	r2, #0
 8002104:	615a      	str	r2, [r3, #20]
  hspi1.Init.NSS = SPI_NSS_SOFT;
 8002106:	4b12      	ldr	r3, [pc, #72]	@ (8002150 <MX_SPI1_Init+0x78>)
 8002108:	2280      	movs	r2, #128	@ 0x80
 800210a:	0092      	lsls	r2, r2, #2
 800210c:	619a      	str	r2, [r3, #24]
  hspi1.Init.BaudRatePrescaler = SPI_BAUDRATEPRESCALER_32;
 800210e:	4b10      	ldr	r3, [pc, #64]	@ (8002150 <MX_SPI1_Init+0x78>)
 8002110:	2220      	movs	r2, #32
 8002112:	61da      	str	r2, [r3, #28]
  hspi1.Init.FirstBit = SPI_FIRSTBIT_MSB;
 8002114:	4b0e      	ldr	r3, [pc, #56]	@ (8002150 <MX_SPI1_Init+0x78>)
 8002116:	2200      	movs	r2, #0
 8002118:	621a      	str	r2, [r3, #32]
  hspi1.Init.TIMode = SPI_TIMODE_DISABLE;
 800211a:	4b0d      	ldr	r3, [pc, #52]	@ (8002150 <MX_SPI1_Init+0x78>)
 800211c:	2200      	movs	r2, #0
 800211e:	625a      	str	r2, [r3, #36]	@ 0x24
  hspi1.Init.CRCCalculation = SPI_CRCCALCULATION_DISABLE;
 8002120:	4b0b      	ldr	r3, [pc, #44]	@ (8002150 <MX_SPI1_Init+0x78>)
 8002122:	2200      	movs	r2, #0
 8002124:	629a      	str	r2, [r3, #40]	@ 0x28
  hspi1.Init.CRCPolynomial = 7;
 8002126:	4b0a      	ldr	r3, [pc, #40]	@ (8002150 <MX_SPI1_Init+0x78>)
 8002128:	2207      	movs	r2, #7
 800212a:	62da      	str	r2, [r3, #44]	@ 0x2c
  hspi1.Init.CRCLength = SPI_CRC_LENGTH_DATASIZE;
 800212c:	4b08      	ldr	r3, [pc, #32]	@ (8002150 <MX_SPI1_Init+0x78>)
 800212e:	2200      	movs	r2, #0
 8002130:	631a      	str	r2, [r3, #48]	@ 0x30
  hspi1.Init.NSSPMode = SPI_NSS_PULSE_ENABLE;
 8002132:	4b07      	ldr	r3, [pc, #28]	@ (8002150 <MX_SPI1_Init+0x78>)
 8002134:	2208      	movs	r2, #8
 8002136:	635a      	str	r2, [r3, #52]	@ 0x34
  if (HAL_SPI_Init(&hspi1) != HAL_OK)
 8002138:	4b05      	ldr	r3, [pc, #20]	@ (8002150 <MX_SPI1_Init+0x78>)
 800213a:	0018      	movs	r0, r3
 800213c:	f003 f8c2 	bl	80052c4 <HAL_SPI_Init>
 8002140:	1e03      	subs	r3, r0, #0
 8002142:	d001      	beq.n	8002148 <MX_SPI1_Init+0x70>
  {
    Error_Handler();
 8002144:	f000 fa82 	bl	800264c <Error_Handler>
  }
  /* USER CODE BEGIN SPI1_Init 2 */

  /* USER CODE END SPI1_Init 2 */

}
 8002148:	46c0      	nop			@ (mov r8, r8)
 800214a:	46bd      	mov	sp, r7
 800214c:	bd80      	pop	{r7, pc}
 800214e:	46c0      	nop			@ (mov r8, r8)
 8002150:	20000d54 	.word	0x20000d54
 8002154:	40013000 	.word	0x40013000

08002158 <MX_TIM17_Init>:
  * @brief TIM17 Initialization Function
  * @param None
  * @retval None
  */
static void MX_TIM17_Init(void)
{
 8002158:	b580      	push	{r7, lr}
 800215a:	b094      	sub	sp, #80	@ 0x50
 800215c:	af00      	add	r7, sp, #0

  /* USER CODE BEGIN TIM17_Init 0 */

  /* USER CODE END TIM17_Init 0 */

  TIM_OC_InitTypeDef sConfigOC = {0};
 800215e:	2334      	movs	r3, #52	@ 0x34
 8002160:	18fb      	adds	r3, r7, r3
 8002162:	0018      	movs	r0, r3
 8002164:	231c      	movs	r3, #28
 8002166:	001a      	movs	r2, r3
 8002168:	2100      	movs	r1, #0
 800216a:	f005 faa3 	bl	80076b4 <memset>
  TIM_BreakDeadTimeConfigTypeDef sBreakDeadTimeConfig = {0};
 800216e:	003b      	movs	r3, r7
 8002170:	0018      	movs	r0, r3
 8002172:	2334      	movs	r3, #52	@ 0x34
 8002174:	001a      	movs	r2, r3
 8002176:	2100      	movs	r1, #0
 8002178:	f005 fa9c 	bl	80076b4 <memset>

  /* USER CODE BEGIN TIM17_Init 1 */

  /* USER CODE END TIM17_Init 1 */
  htim17.Instance = TIM17;
 800217c:	4b37      	ldr	r3, [pc, #220]	@ (800225c <MX_TIM17_Init+0x104>)
 800217e:	4a38      	ldr	r2, [pc, #224]	@ (8002260 <MX_TIM17_Init+0x108>)
 8002180:	601a      	str	r2, [r3, #0]
  htim17.Init.Prescaler = 0;
 8002182:	4b36      	ldr	r3, [pc, #216]	@ (800225c <MX_TIM17_Init+0x104>)
 8002184:	2200      	movs	r2, #0
 8002186:	605a      	str	r2, [r3, #4]
  htim17.Init.CounterMode = TIM_COUNTERMODE_UP;
 8002188:	4b34      	ldr	r3, [pc, #208]	@ (800225c <MX_TIM17_Init+0x104>)
 800218a:	2200      	movs	r2, #0
 800218c:	609a      	str	r2, [r3, #8]
  htim17.Init.Period = 65535;
 800218e:	4b33      	ldr	r3, [pc, #204]	@ (800225c <MX_TIM17_Init+0x104>)
 8002190:	4a34      	ldr	r2, [pc, #208]	@ (8002264 <MX_TIM17_Init+0x10c>)
 8002192:	60da      	str	r2, [r3, #12]
  htim17.Init.ClockDivision = TIM_CLOCKDIVISION_DIV1;
 8002194:	4b31      	ldr	r3, [pc, #196]	@ (800225c <MX_TIM17_Init+0x104>)
 8002196:	2200      	movs	r2, #0
 8002198:	611a      	str	r2, [r3, #16]
  htim17.Init.RepetitionCounter = 0;
 800219a:	4b30      	ldr	r3, [pc, #192]	@ (800225c <MX_TIM17_Init+0x104>)
 800219c:	2200      	movs	r2, #0
 800219e:	615a      	str	r2, [r3, #20]
  htim17.Init.AutoReloadPreload = TIM_AUTORELOAD_PRELOAD_DISABLE;
 80021a0:	4b2e      	ldr	r3, [pc, #184]	@ (800225c <MX_TIM17_Init+0x104>)
 80021a2:	2200      	movs	r2, #0
 80021a4:	619a      	str	r2, [r3, #24]
  if (HAL_TIM_Base_Init(&htim17) != HAL_OK)
 80021a6:	4b2d      	ldr	r3, [pc, #180]	@ (800225c <MX_TIM17_Init+0x104>)
 80021a8:	0018      	movs	r0, r3
 80021aa:	f003 fc19 	bl	80059e0 <HAL_TIM_Base_Init>
 80021ae:	1e03      	subs	r3, r0, #0
 80021b0:	d001      	beq.n	80021b6 <MX_TIM17_Init+0x5e>
  {
    Error_Handler();
 80021b2:	f000 fa4b 	bl	800264c <Error_Handler>
  }
  if (HAL_TIM_PWM_Init(&htim17) != HAL_OK)
 80021b6:	4b29      	ldr	r3, [pc, #164]	@ (800225c <MX_TIM17_Init+0x104>)
 80021b8:	0018      	movs	r0, r3
 80021ba:	f003 fc69 	bl	8005a90 <HAL_TIM_PWM_Init>
 80021be:	1e03      	subs	r3, r0, #0
 80021c0:	d001      	beq.n	80021c6 <MX_TIM17_Init+0x6e>
  {
    Error_Handler();
 80021c2:	f000 fa43 	bl	800264c <Error_Handler>
  }
  sConfigOC.OCMode = TIM_OCMODE_PWM1;
 80021c6:	2134      	movs	r1, #52	@ 0x34
 80021c8:	187b      	adds	r3, r7, r1
 80021ca:	2260      	movs	r2, #96	@ 0x60
 80021cc:	601a      	str	r2, [r3, #0]
  sConfigOC.Pulse = 0;
 80021ce:	187b      	adds	r3, r7, r1
 80021d0:	2200      	movs	r2, #0
 80021d2:	605a      	str	r2, [r3, #4]
  sConfigOC.OCPolarity = TIM_OCPOLARITY_HIGH;
 80021d4:	187b      	adds	r3, r7, r1
 80021d6:	2200      	movs	r2, #0
 80021d8:	609a      	str	r2, [r3, #8]
  sConfigOC.OCNPolarity = TIM_OCNPOLARITY_HIGH;
 80021da:	187b      	adds	r3, r7, r1
 80021dc:	2200      	movs	r2, #0
 80021de:	60da      	str	r2, [r3, #12]
  sConfigOC.OCFastMode = TIM_OCFAST_DISABLE;
 80021e0:	187b      	adds	r3, r7, r1
 80021e2:	2200      	movs	r2, #0
 80021e4:	611a      	str	r2, [r3, #16]
  sConfigOC.OCIdleState = TIM_OCIDLESTATE_RESET;
 80021e6:	187b      	adds	r3, r7, r1
 80021e8:	2200      	movs	r2, #0
 80021ea:	615a      	str	r2, [r3, #20]
  sConfigOC.OCNIdleState = TIM_OCNIDLESTATE_RESET;
 80021ec:	187b      	adds	r3, r7, r1
 80021ee:	2200      	movs	r2, #0
 80021f0:	619a      	str	r2, [r3, #24]
  if (HAL_TIM_PWM_ConfigChannel(&htim17, &sConfigOC, TIM_CHANNEL_1) != HAL_OK)
 80021f2:	1879      	adds	r1, r7, r1
 80021f4:	4b19      	ldr	r3, [pc, #100]	@ (800225c <MX_TIM17_Init+0x104>)
 80021f6:	2200      	movs	r2, #0
 80021f8:	0018      	movs	r0, r3
 80021fa:	f003 fe25 	bl	8005e48 <HAL_TIM_PWM_ConfigChannel>
 80021fe:	1e03      	subs	r3, r0, #0
 8002200:	d001      	beq.n	8002206 <MX_TIM17_Init+0xae>
  {
    Error_Handler();
 8002202:	f000 fa23 	bl	800264c <Error_Handler>
  }
  sBreakDeadTimeConfig.OffStateRunMode = TIM_OSSR_DISABLE;
 8002206:	003b      	movs	r3, r7
 8002208:	2200      	movs	r2, #0
 800220a:	601a      	str	r2, [r3, #0]
  sBreakDeadTimeConfig.OffStateIDLEMode = TIM_OSSI_DISABLE;
 800220c:	003b      	movs	r3, r7
 800220e:	2200      	movs	r2, #0
 8002210:	605a      	str	r2, [r3, #4]
  sBreakDeadTimeConfig.LockLevel = TIM_LOCKLEVEL_OFF;
 8002212:	003b      	movs	r3, r7
 8002214:	2200      	movs	r2, #0
 8002216:	609a      	str	r2, [r3, #8]
  sBreakDeadTimeConfig.DeadTime = 0;
 8002218:	003b      	movs	r3, r7
 800221a:	2200      	movs	r2, #0
 800221c:	60da      	str	r2, [r3, #12]
  sBreakDeadTimeConfig.BreakState = TIM_BREAK_DISABLE;
 800221e:	003b      	movs	r3, r7
 8002220:	2200      	movs	r2, #0
 8002222:	611a      	str	r2, [r3, #16]
  sBreakDeadTimeConfig.BreakPolarity = TIM_BREAKPOLARITY_HIGH;
 8002224:	003b      	movs	r3, r7
 8002226:	2280      	movs	r2, #128	@ 0x80
 8002228:	0192      	lsls	r2, r2, #6
 800222a:	615a      	str	r2, [r3, #20]
  sBreakDeadTimeConfig.BreakFilter = 0;
 800222c:	003b      	movs	r3, r7
 800222e:	2200      	movs	r2, #0
 8002230:	619a      	str	r2, [r3, #24]
  sBreakDeadTimeConfig.AutomaticOutput = TIM_AUTOMATICOUTPUT_DISABLE;
 8002232:	003b      	movs	r3, r7
 8002234:	2200      	movs	r2, #0
 8002236:	631a      	str	r2, [r3, #48]	@ 0x30
  if (HAL_TIMEx_ConfigBreakDeadTime(&htim17, &sBreakDeadTimeConfig) != HAL_OK)
 8002238:	003a      	movs	r2, r7
 800223a:	4b08      	ldr	r3, [pc, #32]	@ (800225c <MX_TIM17_Init+0x104>)
 800223c:	0011      	movs	r1, r2
 800223e:	0018      	movs	r0, r3
 8002240:	f004 fa82 	bl	8006748 <HAL_TIMEx_ConfigBreakDeadTime>
 8002244:	1e03      	subs	r3, r0, #0
 8002246:	d001      	beq.n	800224c <MX_TIM17_Init+0xf4>
  {
    Error_Handler();
 8002248:	f000 fa00 	bl	800264c <Error_Handler>
  }
  /* USER CODE BEGIN TIM17_Init 2 */

  /* USER CODE END TIM17_Init 2 */
  HAL_TIM_MspPostInit(&htim17);
 800224c:	4b03      	ldr	r3, [pc, #12]	@ (800225c <MX_TIM17_Init+0x104>)
 800224e:	0018      	movs	r0, r3
 8002250:	f000 fb1a 	bl	8002888 <HAL_TIM_MspPostInit>

}
 8002254:	46c0      	nop			@ (mov r8, r8)
 8002256:	46bd      	mov	sp, r7
 8002258:	b014      	add	sp, #80	@ 0x50
 800225a:	bd80      	pop	{r7, pc}
 800225c:	20000db8 	.word	0x20000db8
 8002260:	40014800 	.word	0x40014800
 8002264:	0000ffff 	.word	0x0000ffff

08002268 <MX_USART1_UART_Init>:
  * @brief USART1 Initialization Function
  * @param None
  * @retval None
  */
static void MX_USART1_UART_Init(void)
{
 8002268:	b580      	push	{r7, lr}
 800226a:	af00      	add	r7, sp, #0
  /* USER CODE END USART1_Init 0 */

  /* USER CODE BEGIN USART1_Init 1 */

  /* USER CODE END USART1_Init 1 */
  huart1.Instance = USART1;
 800226c:	4b23      	ldr	r3, [pc, #140]	@ (80022fc <MX_USART1_UART_Init+0x94>)
 800226e:	4a24      	ldr	r2, [pc, #144]	@ (8002300 <MX_USART1_UART_Init+0x98>)
 8002270:	601a      	str	r2, [r3, #0]
  huart1.Init.BaudRate = 9600;
 8002272:	4b22      	ldr	r3, [pc, #136]	@ (80022fc <MX_USART1_UART_Init+0x94>)
 8002274:	2296      	movs	r2, #150	@ 0x96
 8002276:	0192      	lsls	r2, r2, #6
 8002278:	605a      	str	r2, [r3, #4]
  huart1.Init.WordLength = UART_WORDLENGTH_8B;
 800227a:	4b20      	ldr	r3, [pc, #128]	@ (80022fc <MX_USART1_UART_Init+0x94>)
 800227c:	2200      	movs	r2, #0
 800227e:	609a      	str	r2, [r3, #8]
  huart1.Init.StopBits = UART_STOPBITS_1;
 8002280:	4b1e      	ldr	r3, [pc, #120]	@ (80022fc <MX_USART1_UART_Init+0x94>)
 8002282:	2200      	movs	r2, #0
 8002284:	60da      	str	r2, [r3, #12]
  huart1.Init.Parity = UART_PARITY_NONE;
 8002286:	4b1d      	ldr	r3, [pc, #116]	@ (80022fc <MX_USART1_UART_Init+0x94>)
 8002288:	2200      	movs	r2, #0
 800228a:	611a      	str	r2, [r3, #16]
  huart1.Init.Mode = UART_MODE_TX_RX;
 800228c:	4b1b      	ldr	r3, [pc, #108]	@ (80022fc <MX_USART1_UART_Init+0x94>)
 800228e:	220c      	movs	r2, #12
 8002290:	615a      	str	r2, [r3, #20]
  huart1.Init.HwFlowCtl = UART_HWCONTROL_NONE;
 8002292:	4b1a      	ldr	r3, [pc, #104]	@ (80022fc <MX_USART1_UART_Init+0x94>)
 8002294:	2200      	movs	r2, #0
 8002296:	619a      	str	r2, [r3, #24]
  huart1.Init.OverSampling = UART_OVERSAMPLING_16;
 8002298:	4b18      	ldr	r3, [pc, #96]	@ (80022fc <MX_USART1_UART_Init+0x94>)
 800229a:	2200      	movs	r2, #0
 800229c:	61da      	str	r2, [r3, #28]
  huart1.Init.OneBitSampling = UART_ONE_BIT_SAMPLE_DISABLE;
 800229e:	4b17      	ldr	r3, [pc, #92]	@ (80022fc <MX_USART1_UART_Init+0x94>)
 80022a0:	2200      	movs	r2, #0
 80022a2:	621a      	str	r2, [r3, #32]
  huart1.Init.ClockPrescaler = UART_PRESCALER_DIV1;
 80022a4:	4b15      	ldr	r3, [pc, #84]	@ (80022fc <MX_USART1_UART_Init+0x94>)
 80022a6:	2200      	movs	r2, #0
 80022a8:	625a      	str	r2, [r3, #36]	@ 0x24
  huart1.AdvancedInit.AdvFeatureInit = UART_ADVFEATURE_NO_INIT;
 80022aa:	4b14      	ldr	r3, [pc, #80]	@ (80022fc <MX_USART1_UART_Init+0x94>)
 80022ac:	2200      	movs	r2, #0
 80022ae:	629a      	str	r2, [r3, #40]	@ 0x28
  if (HAL_UART_Init(&huart1) != HAL_OK)
 80022b0:	4b12      	ldr	r3, [pc, #72]	@ (80022fc <MX_USART1_UART_Init+0x94>)
 80022b2:	0018      	movs	r0, r3
 80022b4:	f004 fae4 	bl	8006880 <HAL_UART_Init>
 80022b8:	1e03      	subs	r3, r0, #0
 80022ba:	d001      	beq.n	80022c0 <MX_USART1_UART_Init+0x58>
  {
    Error_Handler();
 80022bc:	f000 f9c6 	bl	800264c <Error_Handler>
  }
  if (HAL_UARTEx_SetTxFifoThreshold(&huart1, UART_TXFIFO_THRESHOLD_1_8) != HAL_OK)
 80022c0:	4b0e      	ldr	r3, [pc, #56]	@ (80022fc <MX_USART1_UART_Init+0x94>)
 80022c2:	2100      	movs	r1, #0
 80022c4:	0018      	movs	r0, r3
 80022c6:	f005 f8f5 	bl	80074b4 <HAL_UARTEx_SetTxFifoThreshold>
 80022ca:	1e03      	subs	r3, r0, #0
 80022cc:	d001      	beq.n	80022d2 <MX_USART1_UART_Init+0x6a>
  {
    Error_Handler();
 80022ce:	f000 f9bd 	bl	800264c <Error_Handler>
  }
  if (HAL_UARTEx_SetRxFifoThreshold(&huart1, UART_RXFIFO_THRESHOLD_1_8) != HAL_OK)
 80022d2:	4b0a      	ldr	r3, [pc, #40]	@ (80022fc <MX_USART1_UART_Init+0x94>)
 80022d4:	2100      	movs	r1, #0
 80022d6:	0018      	movs	r0, r3
 80022d8:	f005 f92c 	bl	8007534 <HAL_UARTEx_SetRxFifoThreshold>
 80022dc:	1e03      	subs	r3, r0, #0
 80022de:	d001      	beq.n	80022e4 <MX_USART1_UART_Init+0x7c>
  {
    Error_Handler();
 80022e0:	f000 f9b4 	bl	800264c <Error_Handler>
  }
  if (HAL_UARTEx_DisableFifoMode(&huart1) != HAL_OK)
 80022e4:	4b05      	ldr	r3, [pc, #20]	@ (80022fc <MX_USART1_UART_Init+0x94>)
 80022e6:	0018      	movs	r0, r3
 80022e8:	f005 f8aa 	bl	8007440 <HAL_UARTEx_DisableFifoMode>
 80022ec:	1e03      	subs	r3, r0, #0
 80022ee:	d001      	beq.n	80022f4 <MX_USART1_UART_Init+0x8c>
  {
    Error_Handler();
 80022f0:	f000 f9ac 	bl	800264c <Error_Handler>
  }
  /* USER CODE BEGIN USART1_Init 2 */

  /* USER CODE END USART1_Init 2 */

}
 80022f4:	46c0      	nop			@ (mov r8, r8)
 80022f6:	46bd      	mov	sp, r7
 80022f8:	bd80      	pop	{r7, pc}
 80022fa:	46c0      	nop			@ (mov r8, r8)
 80022fc:	20000e04 	.word	0x20000e04
 8002300:	40013800 	.word	0x40013800

08002304 <MX_USART2_UART_Init>:
  * @brief USART2 Initialization Function
  * @param None
  * @retval None
  */
static void MX_USART2_UART_Init(void)
{
 8002304:	b580      	push	{r7, lr}
 8002306:	af00      	add	r7, sp, #0
  /* USER CODE END USART2_Init 0 */

  /* USER CODE BEGIN USART2_Init 1 */

  /* USER CODE END USART2_Init 1 */
  huart2.Instance = USART2;
 8002308:	4b23      	ldr	r3, [pc, #140]	@ (8002398 <MX_USART2_UART_Init+0x94>)
 800230a:	4a24      	ldr	r2, [pc, #144]	@ (800239c <MX_USART2_UART_Init+0x98>)
 800230c:	601a      	str	r2, [r3, #0]
  huart2.Init.BaudRate = 115200;
 800230e:	4b22      	ldr	r3, [pc, #136]	@ (8002398 <MX_USART2_UART_Init+0x94>)
 8002310:	22e1      	movs	r2, #225	@ 0xe1
 8002312:	0252      	lsls	r2, r2, #9
 8002314:	605a      	str	r2, [r3, #4]
  huart2.Init.WordLength = UART_WORDLENGTH_8B;
 8002316:	4b20      	ldr	r3, [pc, #128]	@ (8002398 <MX_USART2_UART_Init+0x94>)
 8002318:	2200      	movs	r2, #0
 800231a:	609a      	str	r2, [r3, #8]
  huart2.Init.StopBits = UART_STOPBITS_1;
 800231c:	4b1e      	ldr	r3, [pc, #120]	@ (8002398 <MX_USART2_UART_Init+0x94>)
 800231e:	2200      	movs	r2, #0
 8002320:	60da      	str	r2, [r3, #12]
  huart2.Init.Parity = UART_PARITY_NONE;
 8002322:	4b1d      	ldr	r3, [pc, #116]	@ (8002398 <MX_USART2_UART_Init+0x94>)
 8002324:	2200      	movs	r2, #0
 8002326:	611a      	str	r2, [r3, #16]
  huart2.Init.Mode = UART_MODE_TX_RX;
 8002328:	4b1b      	ldr	r3, [pc, #108]	@ (8002398 <MX_USART2_UART_Init+0x94>)
 800232a:	220c      	movs	r2, #12
 800232c:	615a      	str	r2, [r3, #20]
  huart2.Init.HwFlowCtl = UART_HWCONTROL_NONE;
 800232e:	4b1a      	ldr	r3, [pc, #104]	@ (8002398 <MX_USART2_UART_Init+0x94>)
 8002330:	2200      	movs	r2, #0
 8002332:	619a      	str	r2, [r3, #24]
  huart2.Init.OverSampling = UART_OVERSAMPLING_16;
 8002334:	4b18      	ldr	r3, [pc, #96]	@ (8002398 <MX_USART2_UART_Init+0x94>)
 8002336:	2200      	movs	r2, #0
 8002338:	61da      	str	r2, [r3, #28]
  huart2.Init.OneBitSampling = UART_ONE_BIT_SAMPLE_DISABLE;
 800233a:	4b17      	ldr	r3, [pc, #92]	@ (8002398 <MX_USART2_UART_Init+0x94>)
 800233c:	2200      	movs	r2, #0
 800233e:	621a      	str	r2, [r3, #32]
  huart2.Init.ClockPrescaler = UART_PRESCALER_DIV1;
 8002340:	4b15      	ldr	r3, [pc, #84]	@ (8002398 <MX_USART2_UART_Init+0x94>)
 8002342:	2200      	movs	r2, #0
 8002344:	625a      	str	r2, [r3, #36]	@ 0x24
  huart2.AdvancedInit.AdvFeatureInit = UART_ADVFEATURE_NO_INIT;
 8002346:	4b14      	ldr	r3, [pc, #80]	@ (8002398 <MX_USART2_UART_Init+0x94>)
 8002348:	2200      	movs	r2, #0
 800234a:	629a      	str	r2, [r3, #40]	@ 0x28
  if (HAL_UART_Init(&huart2) != HAL_OK)
 800234c:	4b12      	ldr	r3, [pc, #72]	@ (8002398 <MX_USART2_UART_Init+0x94>)
 800234e:	0018      	movs	r0, r3
 8002350:	f004 fa96 	bl	8006880 <HAL_UART_Init>
 8002354:	1e03      	subs	r3, r0, #0
 8002356:	d001      	beq.n	800235c <MX_USART2_UART_Init+0x58>
  {
    Error_Handler();
 8002358:	f000 f978 	bl	800264c <Error_Handler>
  }
  if (HAL_UARTEx_SetTxFifoThreshold(&huart2, UART_TXFIFO_THRESHOLD_1_8) != HAL_OK)
 800235c:	4b0e      	ldr	r3, [pc, #56]	@ (8002398 <MX_USART2_UART_Init+0x94>)
 800235e:	2100      	movs	r1, #0
 8002360:	0018      	movs	r0, r3
 8002362:	f005 f8a7 	bl	80074b4 <HAL_UARTEx_SetTxFifoThreshold>
 8002366:	1e03      	subs	r3, r0, #0
 8002368:	d001      	beq.n	800236e <MX_USART2_UART_Init+0x6a>
  {
    Error_Handler();
 800236a:	f000 f96f 	bl	800264c <Error_Handler>
  }
  if (HAL_UARTEx_SetRxFifoThreshold(&huart2, UART_RXFIFO_THRESHOLD_1_8) != HAL_OK)
 800236e:	4b0a      	ldr	r3, [pc, #40]	@ (8002398 <MX_USART2_UART_Init+0x94>)
 8002370:	2100      	movs	r1, #0
 8002372:	0018      	movs	r0, r3
 8002374:	f005 f8de 	bl	8007534 <HAL_UARTEx_SetRxFifoThreshold>
 8002378:	1e03      	subs	r3, r0, #0
 800237a:	d001      	beq.n	8002380 <MX_USART2_UART_Init+0x7c>
  {
    Error_Handler();
 800237c:	f000 f966 	bl	800264c <Error_Handler>
  }
  if (HAL_UARTEx_DisableFifoMode(&huart2) != HAL_OK)
 8002380:	4b05      	ldr	r3, [pc, #20]	@ (8002398 <MX_USART2_UART_Init+0x94>)
 8002382:	0018      	movs	r0, r3
 8002384:	f005 f85c 	bl	8007440 <HAL_UARTEx_DisableFifoMode>
 8002388:	1e03      	subs	r3, r0, #0
 800238a:	d001      	beq.n	8002390 <MX_USART2_UART_Init+0x8c>
  {
    Error_Handler();
 800238c:	f000 f95e 	bl	800264c <Error_Handler>
  }
  /* USER CODE BEGIN USART2_Init 2 */

  /* USER CODE END USART2_Init 2 */

}
 8002390:	46c0      	nop			@ (mov r8, r8)
 8002392:	46bd      	mov	sp, r7
 8002394:	bd80      	pop	{r7, pc}
 8002396:	46c0      	nop			@ (mov r8, r8)
 8002398:	20000e98 	.word	0x20000e98
 800239c:	40004400 	.word	0x40004400

080023a0 <MX_GPIO_Init>:
  * @brief GPIO Initialization Function
  * @param None
  * @retval None
  */
static void MX_GPIO_Init(void)
{
 80023a0:	b590      	push	{r4, r7, lr}
 80023a2:	b08b      	sub	sp, #44	@ 0x2c
 80023a4:	af00      	add	r7, sp, #0
  GPIO_InitTypeDef GPIO_InitStruct = {0};
 80023a6:	2414      	movs	r4, #20
 80023a8:	193b      	adds	r3, r7, r4
 80023aa:	0018      	movs	r0, r3
 80023ac:	2314      	movs	r3, #20
 80023ae:	001a      	movs	r2, r3
 80023b0:	2100      	movs	r1, #0
 80023b2:	f005 f97f 	bl	80076b4 <memset>
  /* USER CODE BEGIN MX_GPIO_Init_1 */
  /* USER CODE END MX_GPIO_Init_1 */

  /* GPIO Ports Clock Enable */
  __HAL_RCC_GPIOC_CLK_ENABLE();
 80023b6:	4b3f      	ldr	r3, [pc, #252]	@ (80024b4 <MX_GPIO_Init+0x114>)
 80023b8:	6b5a      	ldr	r2, [r3, #52]	@ 0x34
 80023ba:	4b3e      	ldr	r3, [pc, #248]	@ (80024b4 <MX_GPIO_Init+0x114>)
 80023bc:	2104      	movs	r1, #4
 80023be:	430a      	orrs	r2, r1
 80023c0:	635a      	str	r2, [r3, #52]	@ 0x34
 80023c2:	4b3c      	ldr	r3, [pc, #240]	@ (80024b4 <MX_GPIO_Init+0x114>)
 80023c4:	6b5b      	ldr	r3, [r3, #52]	@ 0x34
 80023c6:	2204      	movs	r2, #4
 80023c8:	4013      	ands	r3, r2
 80023ca:	613b      	str	r3, [r7, #16]
 80023cc:	693b      	ldr	r3, [r7, #16]
  __HAL_RCC_GPIOA_CLK_ENABLE();
 80023ce:	4b39      	ldr	r3, [pc, #228]	@ (80024b4 <MX_GPIO_Init+0x114>)
 80023d0:	6b5a      	ldr	r2, [r3, #52]	@ 0x34
 80023d2:	4b38      	ldr	r3, [pc, #224]	@ (80024b4 <MX_GPIO_Init+0x114>)
 80023d4:	2101      	movs	r1, #1
 80023d6:	430a      	orrs	r2, r1
 80023d8:	635a      	str	r2, [r3, #52]	@ 0x34
 80023da:	4b36      	ldr	r3, [pc, #216]	@ (80024b4 <MX_GPIO_Init+0x114>)
 80023dc:	6b5b      	ldr	r3, [r3, #52]	@ 0x34
 80023de:	2201      	movs	r2, #1
 80023e0:	4013      	ands	r3, r2
 80023e2:	60fb      	str	r3, [r7, #12]
 80023e4:	68fb      	ldr	r3, [r7, #12]
  __HAL_RCC_GPIOB_CLK_ENABLE();
 80023e6:	4b33      	ldr	r3, [pc, #204]	@ (80024b4 <MX_GPIO_Init+0x114>)
 80023e8:	6b5a      	ldr	r2, [r3, #52]	@ 0x34
 80023ea:	4b32      	ldr	r3, [pc, #200]	@ (80024b4 <MX_GPIO_Init+0x114>)
 80023ec:	2102      	movs	r1, #2
 80023ee:	430a      	orrs	r2, r1
 80023f0:	635a      	str	r2, [r3, #52]	@ 0x34
 80023f2:	4b30      	ldr	r3, [pc, #192]	@ (80024b4 <MX_GPIO_Init+0x114>)
 80023f4:	6b5b      	ldr	r3, [r3, #52]	@ 0x34
 80023f6:	2202      	movs	r2, #2
 80023f8:	4013      	ands	r3, r2
 80023fa:	60bb      	str	r3, [r7, #8]
 80023fc:	68bb      	ldr	r3, [r7, #8]
  __HAL_RCC_GPIOD_CLK_ENABLE();
 80023fe:	4b2d      	ldr	r3, [pc, #180]	@ (80024b4 <MX_GPIO_Init+0x114>)
 8002400:	6b5a      	ldr	r2, [r3, #52]	@ 0x34
 8002402:	4b2c      	ldr	r3, [pc, #176]	@ (80024b4 <MX_GPIO_Init+0x114>)
 8002404:	2108      	movs	r1, #8
 8002406:	430a      	orrs	r2, r1
 8002408:	635a      	str	r2, [r3, #52]	@ 0x34
 800240a:	4b2a      	ldr	r3, [pc, #168]	@ (80024b4 <MX_GPIO_Init+0x114>)
 800240c:	6b5b      	ldr	r3, [r3, #52]	@ 0x34
 800240e:	2208      	movs	r2, #8
 8002410:	4013      	ands	r3, r2
 8002412:	607b      	str	r3, [r7, #4]
 8002414:	687b      	ldr	r3, [r7, #4]

  /*Configure GPIO pin Output Level */
  HAL_GPIO_WritePin(GPIOA, GPIO_PIN_4|GPIO_PIN_5|GPIO_PIN_15, GPIO_PIN_RESET);
 8002416:	4928      	ldr	r1, [pc, #160]	@ (80024b8 <MX_GPIO_Init+0x118>)
 8002418:	23a0      	movs	r3, #160	@ 0xa0
 800241a:	05db      	lsls	r3, r3, #23
 800241c:	2200      	movs	r2, #0
 800241e:	0018      	movs	r0, r3
 8002420:	f000 fea5 	bl	800316e <HAL_GPIO_WritePin>

  /*Configure GPIO pin : PC1 */
  GPIO_InitStruct.Pin = GPIO_PIN_1;
 8002424:	193b      	adds	r3, r7, r4
 8002426:	2202      	movs	r2, #2
 8002428:	601a      	str	r2, [r3, #0]
  GPIO_InitStruct.Mode = GPIO_MODE_INPUT;
 800242a:	193b      	adds	r3, r7, r4
 800242c:	2200      	movs	r2, #0
 800242e:	605a      	str	r2, [r3, #4]
  GPIO_InitStruct.Pull = GPIO_NOPULL;
 8002430:	193b      	adds	r3, r7, r4
 8002432:	2200      	movs	r2, #0
 8002434:	609a      	str	r2, [r3, #8]
  HAL_GPIO_Init(GPIOC, &GPIO_InitStruct);
 8002436:	193b      	adds	r3, r7, r4
 8002438:	4a20      	ldr	r2, [pc, #128]	@ (80024bc <MX_GPIO_Init+0x11c>)
 800243a:	0019      	movs	r1, r3
 800243c:	0010      	movs	r0, r2
 800243e:	f000 fd0d 	bl	8002e5c <HAL_GPIO_Init>

  /*Configure GPIO pins : PA4 PA5 PA15 */
  GPIO_InitStruct.Pin = GPIO_PIN_4|GPIO_PIN_5|GPIO_PIN_15;
 8002442:	193b      	adds	r3, r7, r4
 8002444:	4a1c      	ldr	r2, [pc, #112]	@ (80024b8 <MX_GPIO_Init+0x118>)
 8002446:	601a      	str	r2, [r3, #0]
  GPIO_InitStruct.Mode = GPIO_MODE_OUTPUT_PP;
 8002448:	193b      	adds	r3, r7, r4
 800244a:	2201      	movs	r2, #1
 800244c:	605a      	str	r2, [r3, #4]
  GPIO_InitStruct.Pull = GPIO_NOPULL;
 800244e:	193b      	adds	r3, r7, r4
 8002450:	2200      	movs	r2, #0
 8002452:	609a      	str	r2, [r3, #8]
  GPIO_InitStruct.Speed = GPIO_SPEED_FREQ_LOW;
 8002454:	193b      	adds	r3, r7, r4
 8002456:	2200      	movs	r2, #0
 8002458:	60da      	str	r2, [r3, #12]
  HAL_GPIO_Init(GPIOA, &GPIO_InitStruct);
 800245a:	193a      	adds	r2, r7, r4
 800245c:	23a0      	movs	r3, #160	@ 0xa0
 800245e:	05db      	lsls	r3, r3, #23
 8002460:	0011      	movs	r1, r2
 8002462:	0018      	movs	r0, r3
 8002464:	f000 fcfa 	bl	8002e5c <HAL_GPIO_Init>

  /*Configure GPIO pin : PB2 */
  GPIO_InitStruct.Pin = GPIO_PIN_2;
 8002468:	193b      	adds	r3, r7, r4
 800246a:	2204      	movs	r2, #4
 800246c:	601a      	str	r2, [r3, #0]
  GPIO_InitStruct.Mode = GPIO_MODE_INPUT;
 800246e:	193b      	adds	r3, r7, r4
 8002470:	2200      	movs	r2, #0
 8002472:	605a      	str	r2, [r3, #4]
  GPIO_InitStruct.Pull = GPIO_NOPULL;
 8002474:	193b      	adds	r3, r7, r4
 8002476:	2200      	movs	r2, #0
 8002478:	609a      	str	r2, [r3, #8]
  HAL_GPIO_Init(GPIOB, &GPIO_InitStruct);
 800247a:	193b      	adds	r3, r7, r4
 800247c:	4a10      	ldr	r2, [pc, #64]	@ (80024c0 <MX_GPIO_Init+0x120>)
 800247e:	0019      	movs	r1, r3
 8002480:	0010      	movs	r0, r2
 8002482:	f000 fceb 	bl	8002e5c <HAL_GPIO_Init>

  /*Configure GPIO pin : PA11 */
  GPIO_InitStruct.Pin = GPIO_PIN_11;
 8002486:	0021      	movs	r1, r4
 8002488:	187b      	adds	r3, r7, r1
 800248a:	2280      	movs	r2, #128	@ 0x80
 800248c:	0112      	lsls	r2, r2, #4
 800248e:	601a      	str	r2, [r3, #0]
  GPIO_InitStruct.Mode = GPIO_MODE_INPUT;
 8002490:	187b      	adds	r3, r7, r1
 8002492:	2200      	movs	r2, #0
 8002494:	605a      	str	r2, [r3, #4]
  GPIO_InitStruct.Pull = GPIO_NOPULL;
 8002496:	187b      	adds	r3, r7, r1
 8002498:	2200      	movs	r2, #0
 800249a:	609a      	str	r2, [r3, #8]
  HAL_GPIO_Init(GPIOA, &GPIO_InitStruct);
 800249c:	187a      	adds	r2, r7, r1
 800249e:	23a0      	movs	r3, #160	@ 0xa0
 80024a0:	05db      	lsls	r3, r3, #23
 80024a2:	0011      	movs	r1, r2
 80024a4:	0018      	movs	r0, r3
 80024a6:	f000 fcd9 	bl	8002e5c <HAL_GPIO_Init>

  /* USER CODE BEGIN MX_GPIO_Init_2 */
  /* USER CODE END MX_GPIO_Init_2 */
}
 80024aa:	46c0      	nop			@ (mov r8, r8)
 80024ac:	46bd      	mov	sp, r7
 80024ae:	b00b      	add	sp, #44	@ 0x2c
 80024b0:	bd90      	pop	{r4, r7, pc}
 80024b2:	46c0      	nop			@ (mov r8, r8)
 80024b4:	40021000 	.word	0x40021000
 80024b8:	00008030 	.word	0x00008030
 80024bc:	50000800 	.word	0x50000800
 80024c0:	50000400 	.word	0x50000400

080024c4 <Animate>:

/* USER CODE BEGIN 4 */
//AURORA: Put custom functions here!
void Animate (struct Img* animation, unsigned int size)
{
 80024c4:	b580      	push	{r7, lr}
 80024c6:	b086      	sub	sp, #24
 80024c8:	af04      	add	r7, sp, #16
 80024ca:	6078      	str	r0, [r7, #4]
 80024cc:	6039      	str	r1, [r7, #0]
	++currentFrame;
 80024ce:	4b14      	ldr	r3, [pc, #80]	@ (8002520 <Animate+0x5c>)
 80024d0:	681b      	ldr	r3, [r3, #0]
 80024d2:	1c5a      	adds	r2, r3, #1
 80024d4:	4b12      	ldr	r3, [pc, #72]	@ (8002520 <Animate+0x5c>)
 80024d6:	601a      	str	r2, [r3, #0]
	if(currentFrame > size)
 80024d8:	4b11      	ldr	r3, [pc, #68]	@ (8002520 <Animate+0x5c>)
 80024da:	681b      	ldr	r3, [r3, #0]
 80024dc:	683a      	ldr	r2, [r7, #0]
 80024de:	429a      	cmp	r2, r3
 80024e0:	d202      	bcs.n	80024e8 <Animate+0x24>
	{
		currentFrame = 0;
 80024e2:	4b0f      	ldr	r3, [pc, #60]	@ (8002520 <Animate+0x5c>)
 80024e4:	2200      	movs	r2, #0
 80024e6:	601a      	str	r2, [r3, #0]
	}
	drawImage(animation[currentFrame].Body, palette, 40, 40, 64, 64, animation[currentFrame].Size);
 80024e8:	4b0d      	ldr	r3, [pc, #52]	@ (8002520 <Animate+0x5c>)
 80024ea:	681b      	ldr	r3, [r3, #0]
 80024ec:	00db      	lsls	r3, r3, #3
 80024ee:	687a      	ldr	r2, [r7, #4]
 80024f0:	18d3      	adds	r3, r2, r3
 80024f2:	6818      	ldr	r0, [r3, #0]
 80024f4:	4b0a      	ldr	r3, [pc, #40]	@ (8002520 <Animate+0x5c>)
 80024f6:	681b      	ldr	r3, [r3, #0]
 80024f8:	00db      	lsls	r3, r3, #3
 80024fa:	687a      	ldr	r2, [r7, #4]
 80024fc:	18d3      	adds	r3, r2, r3
 80024fe:	685b      	ldr	r3, [r3, #4]
 8002500:	b29b      	uxth	r3, r3
 8002502:	4908      	ldr	r1, [pc, #32]	@ (8002524 <Animate+0x60>)
 8002504:	9302      	str	r3, [sp, #8]
 8002506:	2340      	movs	r3, #64	@ 0x40
 8002508:	9301      	str	r3, [sp, #4]
 800250a:	2340      	movs	r3, #64	@ 0x40
 800250c:	9300      	str	r3, [sp, #0]
 800250e:	2328      	movs	r3, #40	@ 0x28
 8002510:	2228      	movs	r2, #40	@ 0x28
 8002512:	f7fe ff83 	bl	800141c <drawImage>
	return;
 8002516:	46c0      	nop			@ (mov r8, r8)
}
 8002518:	46bd      	mov	sp, r7
 800251a:	b002      	add	sp, #8
 800251c:	bd80      	pop	{r7, pc}
 800251e:	46c0      	nop			@ (mov r8, r8)
 8002520:	20000c5c 	.word	0x20000c5c
 8002524:	20000990 	.word	0x20000990

08002528 <_ADXL343_ReadReg8>:
int _ADXL343_ReadReg8 (unsigned char TargetRegister, unsigned char * TargetValue, uint8_t size)
{
 8002528:	b580      	push	{r7, lr}
 800252a:	b084      	sub	sp, #16
 800252c:	af02      	add	r7, sp, #8
 800252e:	6039      	str	r1, [r7, #0]
 8002530:	0011      	movs	r1, r2
 8002532:	1dfb      	adds	r3, r7, #7
 8002534:	1c02      	adds	r2, r0, #0
 8002536:	701a      	strb	r2, [r3, #0]
 8002538:	1dbb      	adds	r3, r7, #6
 800253a:	1c0a      	adds	r2, r1, #0
 800253c:	701a      	strb	r2, [r3, #0]
  if (!HAL_I2C_Master_Transmit(&hi2c1, 0x14<<1, &TargetRegister, 1, 1000)==HAL_OK)
 800253e:	1dfa      	adds	r2, r7, #7
 8002540:	4811      	ldr	r0, [pc, #68]	@ (8002588 <_ADXL343_ReadReg8+0x60>)
 8002542:	23fa      	movs	r3, #250	@ 0xfa
 8002544:	009b      	lsls	r3, r3, #2
 8002546:	9300      	str	r3, [sp, #0]
 8002548:	2301      	movs	r3, #1
 800254a:	2128      	movs	r1, #40	@ 0x28
 800254c:	f000 fed2 	bl	80032f4 <HAL_I2C_Master_Transmit>
 8002550:	1e03      	subs	r3, r0, #0
 8002552:	d002      	beq.n	800255a <_ADXL343_ReadReg8+0x32>
      return -1;
 8002554:	2301      	movs	r3, #1
 8002556:	425b      	negs	r3, r3
 8002558:	e011      	b.n	800257e <_ADXL343_ReadReg8+0x56>

  if (!HAL_I2C_Master_Receive(&hi2c1, 0x14<<1, TargetValue, size, 1000)==HAL_OK)
 800255a:	1dbb      	adds	r3, r7, #6
 800255c:	781b      	ldrb	r3, [r3, #0]
 800255e:	b299      	uxth	r1, r3
 8002560:	683a      	ldr	r2, [r7, #0]
 8002562:	4809      	ldr	r0, [pc, #36]	@ (8002588 <_ADXL343_ReadReg8+0x60>)
 8002564:	23fa      	movs	r3, #250	@ 0xfa
 8002566:	009b      	lsls	r3, r3, #2
 8002568:	9300      	str	r3, [sp, #0]
 800256a:	000b      	movs	r3, r1
 800256c:	2128      	movs	r1, #40	@ 0x28
 800256e:	f000 ffeb 	bl	8003548 <HAL_I2C_Master_Receive>
 8002572:	1e03      	subs	r3, r0, #0
 8002574:	d002      	beq.n	800257c <_ADXL343_ReadReg8+0x54>
    return -2;
 8002576:	2302      	movs	r3, #2
 8002578:	425b      	negs	r3, r3
 800257a:	e000      	b.n	800257e <_ADXL343_ReadReg8+0x56>

  return 0;
 800257c:	2300      	movs	r3, #0
}
 800257e:	0018      	movs	r0, r3
 8002580:	46bd      	mov	sp, r7
 8002582:	b002      	add	sp, #8
 8002584:	bd80      	pop	{r7, pc}
 8002586:	46c0      	nop			@ (mov r8, r8)
 8002588:	20000cd4 	.word	0x20000cd4

0800258c <_ADXL343_WriteReg8>:

int _ADXL343_WriteReg8 (unsigned char TargetRegister, unsigned char TargetValue)
{
 800258c:	b580      	push	{r7, lr}
 800258e:	b086      	sub	sp, #24
 8002590:	af02      	add	r7, sp, #8
 8002592:	0002      	movs	r2, r0
 8002594:	1dfb      	adds	r3, r7, #7
 8002596:	701a      	strb	r2, [r3, #0]
 8002598:	1dbb      	adds	r3, r7, #6
 800259a:	1c0a      	adds	r2, r1, #0
 800259c:	701a      	strb	r2, [r3, #0]
  unsigned char buff [2];
  buff[0] = TargetRegister;
 800259e:	210c      	movs	r1, #12
 80025a0:	187b      	adds	r3, r7, r1
 80025a2:	1dfa      	adds	r2, r7, #7
 80025a4:	7812      	ldrb	r2, [r2, #0]
 80025a6:	701a      	strb	r2, [r3, #0]
  buff[1] = TargetValue;
 80025a8:	187b      	adds	r3, r7, r1
 80025aa:	1dba      	adds	r2, r7, #6
 80025ac:	7812      	ldrb	r2, [r2, #0]
 80025ae:	705a      	strb	r2, [r3, #1]

  if (HAL_I2C_Master_Transmit(&hi2c1, 0x14<<1, buff, 2, 100))
 80025b0:	187a      	adds	r2, r7, r1
 80025b2:	4808      	ldr	r0, [pc, #32]	@ (80025d4 <_ADXL343_WriteReg8+0x48>)
 80025b4:	2364      	movs	r3, #100	@ 0x64
 80025b6:	9300      	str	r3, [sp, #0]
 80025b8:	2302      	movs	r3, #2
 80025ba:	2128      	movs	r1, #40	@ 0x28
 80025bc:	f000 fe9a 	bl	80032f4 <HAL_I2C_Master_Transmit>
 80025c0:	1e03      	subs	r3, r0, #0
 80025c2:	d002      	beq.n	80025ca <_ADXL343_WriteReg8+0x3e>
      return -1;
 80025c4:	2301      	movs	r3, #1
 80025c6:	425b      	negs	r3, r3
 80025c8:	e000      	b.n	80025cc <_ADXL343_WriteReg8+0x40>

  return 0;
 80025ca:	2300      	movs	r3, #0
}
 80025cc:	0018      	movs	r0, r3
 80025ce:	46bd      	mov	sp, r7
 80025d0:	b004      	add	sp, #16
 80025d2:	bd80      	pop	{r7, pc}
 80025d4:	20000cd4 	.word	0x20000cd4

080025d8 <HAL_RTC_AlarmAEventCallback>:

			  		  	}


}
void HAL_RTC_AlarmAEventCallback(RTC_HandleTypeDef *hrtc) {
 80025d8:	b590      	push	{r4, r7, lr}
 80025da:	b091      	sub	sp, #68	@ 0x44
 80025dc:	af04      	add	r7, sp, #16
 80025de:	6078      	str	r0, [r7, #4]
  RTC_AlarmTypeDef sAlarm;
  HAL_RTC_GetAlarm(hrtc,&sAlarm,RTC_ALARM_A,FORMAT_BIN);
 80025e0:	2380      	movs	r3, #128	@ 0x80
 80025e2:	005a      	lsls	r2, r3, #1
 80025e4:	2408      	movs	r4, #8
 80025e6:	1939      	adds	r1, r7, r4
 80025e8:	6878      	ldr	r0, [r7, #4]
 80025ea:	2300      	movs	r3, #0
 80025ec:	f002 fcf2 	bl	8004fd4 <HAL_RTC_GetAlarm>
  if(sAlarm.AlarmTime.Seconds>58) {
 80025f0:	0022      	movs	r2, r4
 80025f2:	18bb      	adds	r3, r7, r2
 80025f4:	789b      	ldrb	r3, [r3, #2]
 80025f6:	2b3a      	cmp	r3, #58	@ 0x3a
 80025f8:	d903      	bls.n	8002602 <HAL_RTC_AlarmAEventCallback+0x2a>
    sAlarm.AlarmTime.Seconds=0;
 80025fa:	18bb      	adds	r3, r7, r2
 80025fc:	2200      	movs	r2, #0
 80025fe:	709a      	strb	r2, [r3, #2]
 8002600:	e006      	b.n	8002610 <HAL_RTC_AlarmAEventCallback+0x38>
  }else{
    sAlarm.AlarmTime.Seconds=sAlarm.AlarmTime.Seconds+1;
 8002602:	2108      	movs	r1, #8
 8002604:	187b      	adds	r3, r7, r1
 8002606:	789b      	ldrb	r3, [r3, #2]
 8002608:	3301      	adds	r3, #1
 800260a:	b2da      	uxtb	r2, r3
 800260c:	187b      	adds	r3, r7, r1
 800260e:	709a      	strb	r2, [r3, #2]
  }
    while(HAL_RTC_SetAlarm_IT(hrtc, &sAlarm, FORMAT_BIN)!=HAL_OK){}
 8002610:	46c0      	nop			@ (mov r8, r8)
 8002612:	2308      	movs	r3, #8
 8002614:	18f9      	adds	r1, r7, r3
 8002616:	687b      	ldr	r3, [r7, #4]
 8002618:	2200      	movs	r2, #0
 800261a:	0018      	movs	r0, r3
 800261c:	f002 fb9a 	bl	8004d54 <HAL_RTC_SetAlarm_IT>
 8002620:	1e03      	subs	r3, r0, #0
 8002622:	d1f6      	bne.n	8002612 <HAL_RTC_AlarmAEventCallback+0x3a>
  	  drawString(30, 30, "testTime", BLACK, GREEN, 1, 1);
 8002624:	4a07      	ldr	r2, [pc, #28]	@ (8002644 <HAL_RTC_AlarmAEventCallback+0x6c>)
 8002626:	2301      	movs	r3, #1
 8002628:	9302      	str	r3, [sp, #8]
 800262a:	2301      	movs	r3, #1
 800262c:	9301      	str	r3, [sp, #4]
 800262e:	4b06      	ldr	r3, [pc, #24]	@ (8002648 <HAL_RTC_AlarmAEventCallback+0x70>)
 8002630:	9300      	str	r3, [sp, #0]
 8002632:	2300      	movs	r3, #0
 8002634:	211e      	movs	r1, #30
 8002636:	201e      	movs	r0, #30
 8002638:	f7fe fd38 	bl	80010ac <drawString>
}
 800263c:	46c0      	nop			@ (mov r8, r8)
 800263e:	46bd      	mov	sp, r7
 8002640:	b00d      	add	sp, #52	@ 0x34
 8002642:	bd90      	pop	{r4, r7, pc}
 8002644:	0800810c 	.word	0x0800810c
 8002648:	ffffe007 	.word	0xffffe007

0800264c <Error_Handler>:
/**
  * @brief  This function is executed in case of error occurrence.
  * @retval None
  */
void Error_Handler(void)
{
 800264c:	b580      	push	{r7, lr}
 800264e:	af00      	add	r7, sp, #0
  \details Disables IRQ interrupts by setting the I-bit in the CPSR.
           Can only be executed in Privileged modes.
 */
__STATIC_FORCEINLINE void __disable_irq(void)
{
  __ASM volatile ("cpsid i" : : : "memory");
 8002650:	b672      	cpsid	i
}
 8002652:	46c0      	nop			@ (mov r8, r8)
  /* USER CODE BEGIN Error_Handler_Debug */
  /* User can add his own implementation to report the HAL error return state */
  __disable_irq();
  while (1)
 8002654:	46c0      	nop			@ (mov r8, r8)
 8002656:	e7fd      	b.n	8002654 <Error_Handler+0x8>

08002658 <HAL_MspInit>:
 8002658:	b580      	push	{r7, lr}
 800265a:	b082      	sub	sp, #8
 800265c:	af00      	add	r7, sp, #0
 800265e:	4b11      	ldr	r3, [pc, #68]	@ (80026a4 <HAL_MspInit+0x4c>)
 8002660:	6c1a      	ldr	r2, [r3, #64]	@ 0x40
 8002662:	4b10      	ldr	r3, [pc, #64]	@ (80026a4 <HAL_MspInit+0x4c>)
 8002664:	2101      	movs	r1, #1
 8002666:	430a      	orrs	r2, r1
 8002668:	641a      	str	r2, [r3, #64]	@ 0x40
 800266a:	4b0e      	ldr	r3, [pc, #56]	@ (80026a4 <HAL_MspInit+0x4c>)
 800266c:	6c1b      	ldr	r3, [r3, #64]	@ 0x40
 800266e:	2201      	movs	r2, #1
 8002670:	4013      	ands	r3, r2
 8002672:	607b      	str	r3, [r7, #4]
 8002674:	687b      	ldr	r3, [r7, #4]
 8002676:	4b0b      	ldr	r3, [pc, #44]	@ (80026a4 <HAL_MspInit+0x4c>)
 8002678:	6bda      	ldr	r2, [r3, #60]	@ 0x3c
 800267a:	4b0a      	ldr	r3, [pc, #40]	@ (80026a4 <HAL_MspInit+0x4c>)
 800267c:	2180      	movs	r1, #128	@ 0x80
 800267e:	0549      	lsls	r1, r1, #21
 8002680:	430a      	orrs	r2, r1
 8002682:	63da      	str	r2, [r3, #60]	@ 0x3c
 8002684:	4b07      	ldr	r3, [pc, #28]	@ (80026a4 <HAL_MspInit+0x4c>)
 8002686:	6bda      	ldr	r2, [r3, #60]	@ 0x3c
 8002688:	2380      	movs	r3, #128	@ 0x80
 800268a:	055b      	lsls	r3, r3, #21
 800268c:	4013      	ands	r3, r2
 800268e:	603b      	str	r3, [r7, #0]
 8002690:	683b      	ldr	r3, [r7, #0]
 8002692:	23c0      	movs	r3, #192	@ 0xc0
 8002694:	00db      	lsls	r3, r3, #3
 8002696:	0018      	movs	r0, r3
 8002698:	f000 fb16 	bl	8002cc8 <HAL_SYSCFG_StrobeDBattpinsConfig>
 800269c:	46c0      	nop			@ (mov r8, r8)
 800269e:	46bd      	mov	sp, r7
 80026a0:	b002      	add	sp, #8
 80026a2:	bd80      	pop	{r7, pc}
 80026a4:	40021000 	.word	0x40021000

080026a8 <HAL_I2C_MspInit>:
 80026a8:	b590      	push	{r4, r7, lr}
 80026aa:	b09d      	sub	sp, #116	@ 0x74
 80026ac:	af00      	add	r7, sp, #0
 80026ae:	6078      	str	r0, [r7, #4]
 80026b0:	235c      	movs	r3, #92	@ 0x5c
 80026b2:	18fb      	adds	r3, r7, r3
 80026b4:	0018      	movs	r0, r3
 80026b6:	2314      	movs	r3, #20
 80026b8:	001a      	movs	r2, r3
 80026ba:	2100      	movs	r1, #0
 80026bc:	f004 fffa 	bl	80076b4 <memset>
 80026c0:	2410      	movs	r4, #16
 80026c2:	193b      	adds	r3, r7, r4
 80026c4:	0018      	movs	r0, r3
 80026c6:	234c      	movs	r3, #76	@ 0x4c
 80026c8:	001a      	movs	r2, r3
 80026ca:	2100      	movs	r1, #0
 80026cc:	f004 fff2 	bl	80076b4 <memset>
 80026d0:	687b      	ldr	r3, [r7, #4]
 80026d2:	681b      	ldr	r3, [r3, #0]
 80026d4:	4a23      	ldr	r2, [pc, #140]	@ (8002764 <HAL_I2C_MspInit+0xbc>)
 80026d6:	4293      	cmp	r3, r2
 80026d8:	d13f      	bne.n	800275a <HAL_I2C_MspInit+0xb2>
 80026da:	193b      	adds	r3, r7, r4
 80026dc:	2220      	movs	r2, #32
 80026de:	601a      	str	r2, [r3, #0]
 80026e0:	193b      	adds	r3, r7, r4
 80026e2:	2200      	movs	r2, #0
 80026e4:	619a      	str	r2, [r3, #24]
 80026e6:	193b      	adds	r3, r7, r4
 80026e8:	0018      	movs	r0, r3
 80026ea:	f002 f8f7 	bl	80048dc <HAL_RCCEx_PeriphCLKConfig>
 80026ee:	1e03      	subs	r3, r0, #0
 80026f0:	d001      	beq.n	80026f6 <HAL_I2C_MspInit+0x4e>
 80026f2:	f7ff ffab 	bl	800264c <Error_Handler>
 80026f6:	4b1c      	ldr	r3, [pc, #112]	@ (8002768 <HAL_I2C_MspInit+0xc0>)
 80026f8:	6b5a      	ldr	r2, [r3, #52]	@ 0x34
 80026fa:	4b1b      	ldr	r3, [pc, #108]	@ (8002768 <HAL_I2C_MspInit+0xc0>)
 80026fc:	2101      	movs	r1, #1
 80026fe:	430a      	orrs	r2, r1
 8002700:	635a      	str	r2, [r3, #52]	@ 0x34
 8002702:	4b19      	ldr	r3, [pc, #100]	@ (8002768 <HAL_I2C_MspInit+0xc0>)
 8002704:	6b5b      	ldr	r3, [r3, #52]	@ 0x34
 8002706:	2201      	movs	r2, #1
 8002708:	4013      	ands	r3, r2
 800270a:	60fb      	str	r3, [r7, #12]
 800270c:	68fb      	ldr	r3, [r7, #12]
 800270e:	215c      	movs	r1, #92	@ 0x5c
 8002710:	187b      	adds	r3, r7, r1
 8002712:	22c0      	movs	r2, #192	@ 0xc0
 8002714:	00d2      	lsls	r2, r2, #3
 8002716:	601a      	str	r2, [r3, #0]
 8002718:	187b      	adds	r3, r7, r1
 800271a:	2212      	movs	r2, #18
 800271c:	605a      	str	r2, [r3, #4]
 800271e:	187b      	adds	r3, r7, r1
 8002720:	2200      	movs	r2, #0
 8002722:	609a      	str	r2, [r3, #8]
 8002724:	187b      	adds	r3, r7, r1
 8002726:	2200      	movs	r2, #0
 8002728:	60da      	str	r2, [r3, #12]
 800272a:	187b      	adds	r3, r7, r1
 800272c:	2206      	movs	r2, #6
 800272e:	611a      	str	r2, [r3, #16]
 8002730:	187a      	adds	r2, r7, r1
 8002732:	23a0      	movs	r3, #160	@ 0xa0
 8002734:	05db      	lsls	r3, r3, #23
 8002736:	0011      	movs	r1, r2
 8002738:	0018      	movs	r0, r3
 800273a:	f000 fb8f 	bl	8002e5c <HAL_GPIO_Init>
 800273e:	4b0a      	ldr	r3, [pc, #40]	@ (8002768 <HAL_I2C_MspInit+0xc0>)
 8002740:	6bda      	ldr	r2, [r3, #60]	@ 0x3c
 8002742:	4b09      	ldr	r3, [pc, #36]	@ (8002768 <HAL_I2C_MspInit+0xc0>)
 8002744:	2180      	movs	r1, #128	@ 0x80
 8002746:	0389      	lsls	r1, r1, #14
 8002748:	430a      	orrs	r2, r1
 800274a:	63da      	str	r2, [r3, #60]	@ 0x3c
 800274c:	4b06      	ldr	r3, [pc, #24]	@ (8002768 <HAL_I2C_MspInit+0xc0>)
 800274e:	6bda      	ldr	r2, [r3, #60]	@ 0x3c
 8002750:	2380      	movs	r3, #128	@ 0x80
 8002752:	039b      	lsls	r3, r3, #14
 8002754:	4013      	ands	r3, r2
 8002756:	60bb      	str	r3, [r7, #8]
 8002758:	68bb      	ldr	r3, [r7, #8]
 800275a:	46c0      	nop			@ (mov r8, r8)
 800275c:	46bd      	mov	sp, r7
 800275e:	b01d      	add	sp, #116	@ 0x74
 8002760:	bd90      	pop	{r4, r7, pc}
 8002762:	46c0      	nop			@ (mov r8, r8)
 8002764:	40005400 	.word	0x40005400
 8002768:	40021000 	.word	0x40021000

0800276c <HAL_SPI_MspInit>:
 800276c:	b590      	push	{r4, r7, lr}
 800276e:	b08b      	sub	sp, #44	@ 0x2c
 8002770:	af00      	add	r7, sp, #0
 8002772:	6078      	str	r0, [r7, #4]
 8002774:	2414      	movs	r4, #20
 8002776:	193b      	adds	r3, r7, r4
 8002778:	0018      	movs	r0, r3
 800277a:	2314      	movs	r3, #20
 800277c:	001a      	movs	r2, r3
 800277e:	2100      	movs	r1, #0
 8002780:	f004 ff98 	bl	80076b4 <memset>
 8002784:	687b      	ldr	r3, [r7, #4]
 8002786:	681b      	ldr	r3, [r3, #0]
 8002788:	4a2c      	ldr	r2, [pc, #176]	@ (800283c <HAL_SPI_MspInit+0xd0>)
 800278a:	4293      	cmp	r3, r2
 800278c:	d151      	bne.n	8002832 <HAL_SPI_MspInit+0xc6>
 800278e:	4b2c      	ldr	r3, [pc, #176]	@ (8002840 <HAL_SPI_MspInit+0xd4>)
 8002790:	6c1a      	ldr	r2, [r3, #64]	@ 0x40
 8002792:	4b2b      	ldr	r3, [pc, #172]	@ (8002840 <HAL_SPI_MspInit+0xd4>)
 8002794:	2180      	movs	r1, #128	@ 0x80
 8002796:	0149      	lsls	r1, r1, #5
 8002798:	430a      	orrs	r2, r1
 800279a:	641a      	str	r2, [r3, #64]	@ 0x40
 800279c:	4b28      	ldr	r3, [pc, #160]	@ (8002840 <HAL_SPI_MspInit+0xd4>)
 800279e:	6c1a      	ldr	r2, [r3, #64]	@ 0x40
 80027a0:	2380      	movs	r3, #128	@ 0x80
 80027a2:	015b      	lsls	r3, r3, #5
 80027a4:	4013      	ands	r3, r2
 80027a6:	613b      	str	r3, [r7, #16]
 80027a8:	693b      	ldr	r3, [r7, #16]
 80027aa:	4b25      	ldr	r3, [pc, #148]	@ (8002840 <HAL_SPI_MspInit+0xd4>)
 80027ac:	6b5a      	ldr	r2, [r3, #52]	@ 0x34
 80027ae:	4b24      	ldr	r3, [pc, #144]	@ (8002840 <HAL_SPI_MspInit+0xd4>)
 80027b0:	2101      	movs	r1, #1
 80027b2:	430a      	orrs	r2, r1
 80027b4:	635a      	str	r2, [r3, #52]	@ 0x34
 80027b6:	4b22      	ldr	r3, [pc, #136]	@ (8002840 <HAL_SPI_MspInit+0xd4>)
 80027b8:	6b5b      	ldr	r3, [r3, #52]	@ 0x34
 80027ba:	2201      	movs	r2, #1
 80027bc:	4013      	ands	r3, r2
 80027be:	60fb      	str	r3, [r7, #12]
 80027c0:	68fb      	ldr	r3, [r7, #12]
 80027c2:	4b1f      	ldr	r3, [pc, #124]	@ (8002840 <HAL_SPI_MspInit+0xd4>)
 80027c4:	6b5a      	ldr	r2, [r3, #52]	@ 0x34
 80027c6:	4b1e      	ldr	r3, [pc, #120]	@ (8002840 <HAL_SPI_MspInit+0xd4>)
 80027c8:	2108      	movs	r1, #8
 80027ca:	430a      	orrs	r2, r1
 80027cc:	635a      	str	r2, [r3, #52]	@ 0x34
 80027ce:	4b1c      	ldr	r3, [pc, #112]	@ (8002840 <HAL_SPI_MspInit+0xd4>)
 80027d0:	6b5b      	ldr	r3, [r3, #52]	@ 0x34
 80027d2:	2208      	movs	r2, #8
 80027d4:	4013      	ands	r3, r2
 80027d6:	60bb      	str	r3, [r7, #8]
 80027d8:	68bb      	ldr	r3, [r7, #8]
 80027da:	193b      	adds	r3, r7, r4
 80027dc:	2202      	movs	r2, #2
 80027de:	601a      	str	r2, [r3, #0]
 80027e0:	193b      	adds	r3, r7, r4
 80027e2:	2202      	movs	r2, #2
 80027e4:	605a      	str	r2, [r3, #4]
 80027e6:	193b      	adds	r3, r7, r4
 80027e8:	2200      	movs	r2, #0
 80027ea:	609a      	str	r2, [r3, #8]
 80027ec:	193b      	adds	r3, r7, r4
 80027ee:	2200      	movs	r2, #0
 80027f0:	60da      	str	r2, [r3, #12]
 80027f2:	193b      	adds	r3, r7, r4
 80027f4:	2200      	movs	r2, #0
 80027f6:	611a      	str	r2, [r3, #16]
 80027f8:	193a      	adds	r2, r7, r4
 80027fa:	23a0      	movs	r3, #160	@ 0xa0
 80027fc:	05db      	lsls	r3, r3, #23
 80027fe:	0011      	movs	r1, r2
 8002800:	0018      	movs	r0, r3
 8002802:	f000 fb2b 	bl	8002e5c <HAL_GPIO_Init>
 8002806:	0021      	movs	r1, r4
 8002808:	187b      	adds	r3, r7, r1
 800280a:	2260      	movs	r2, #96	@ 0x60
 800280c:	601a      	str	r2, [r3, #0]
 800280e:	187b      	adds	r3, r7, r1
 8002810:	2202      	movs	r2, #2
 8002812:	605a      	str	r2, [r3, #4]
 8002814:	187b      	adds	r3, r7, r1
 8002816:	2200      	movs	r2, #0
 8002818:	609a      	str	r2, [r3, #8]
 800281a:	187b      	adds	r3, r7, r1
 800281c:	2200      	movs	r2, #0
 800281e:	60da      	str	r2, [r3, #12]
 8002820:	187b      	adds	r3, r7, r1
 8002822:	2201      	movs	r2, #1
 8002824:	611a      	str	r2, [r3, #16]
 8002826:	187b      	adds	r3, r7, r1
 8002828:	4a06      	ldr	r2, [pc, #24]	@ (8002844 <HAL_SPI_MspInit+0xd8>)
 800282a:	0019      	movs	r1, r3
 800282c:	0010      	movs	r0, r2
 800282e:	f000 fb15 	bl	8002e5c <HAL_GPIO_Init>
 8002832:	46c0      	nop			@ (mov r8, r8)
 8002834:	46bd      	mov	sp, r7
 8002836:	b00b      	add	sp, #44	@ 0x2c
 8002838:	bd90      	pop	{r4, r7, pc}
 800283a:	46c0      	nop			@ (mov r8, r8)
 800283c:	40013000 	.word	0x40013000
 8002840:	40021000 	.word	0x40021000
 8002844:	50000c00 	.word	0x50000c00

08002848 <HAL_TIM_Base_MspInit>:
 8002848:	b580      	push	{r7, lr}
 800284a:	b084      	sub	sp, #16
 800284c:	af00      	add	r7, sp, #0
 800284e:	6078      	str	r0, [r7, #4]
 8002850:	687b      	ldr	r3, [r7, #4]
 8002852:	681b      	ldr	r3, [r3, #0]
 8002854:	4a0a      	ldr	r2, [pc, #40]	@ (8002880 <HAL_TIM_Base_MspInit+0x38>)
 8002856:	4293      	cmp	r3, r2
 8002858:	d10d      	bne.n	8002876 <HAL_TIM_Base_MspInit+0x2e>
 800285a:	4b0a      	ldr	r3, [pc, #40]	@ (8002884 <HAL_TIM_Base_MspInit+0x3c>)
 800285c:	6c1a      	ldr	r2, [r3, #64]	@ 0x40
 800285e:	4b09      	ldr	r3, [pc, #36]	@ (8002884 <HAL_TIM_Base_MspInit+0x3c>)
 8002860:	2180      	movs	r1, #128	@ 0x80
 8002862:	02c9      	lsls	r1, r1, #11
 8002864:	430a      	orrs	r2, r1
 8002866:	641a      	str	r2, [r3, #64]	@ 0x40
 8002868:	4b06      	ldr	r3, [pc, #24]	@ (8002884 <HAL_TIM_Base_MspInit+0x3c>)
 800286a:	6c1a      	ldr	r2, [r3, #64]	@ 0x40
 800286c:	2380      	movs	r3, #128	@ 0x80
 800286e:	02db      	lsls	r3, r3, #11
 8002870:	4013      	ands	r3, r2
 8002872:	60fb      	str	r3, [r7, #12]
 8002874:	68fb      	ldr	r3, [r7, #12]
 8002876:	46c0      	nop			@ (mov r8, r8)
 8002878:	46bd      	mov	sp, r7
 800287a:	b004      	add	sp, #16
 800287c:	bd80      	pop	{r7, pc}
 800287e:	46c0      	nop			@ (mov r8, r8)
 8002880:	40014800 	.word	0x40014800
 8002884:	40021000 	.word	0x40021000

08002888 <HAL_TIM_MspPostInit>:
 8002888:	b590      	push	{r4, r7, lr}
 800288a:	b089      	sub	sp, #36	@ 0x24
 800288c:	af00      	add	r7, sp, #0
 800288e:	6078      	str	r0, [r7, #4]
 8002890:	240c      	movs	r4, #12
 8002892:	193b      	adds	r3, r7, r4
 8002894:	0018      	movs	r0, r3
 8002896:	2314      	movs	r3, #20
 8002898:	001a      	movs	r2, r3
 800289a:	2100      	movs	r1, #0
 800289c:	f004 ff0a 	bl	80076b4 <memset>
 80028a0:	687b      	ldr	r3, [r7, #4]
 80028a2:	681b      	ldr	r3, [r3, #0]
 80028a4:	4a14      	ldr	r2, [pc, #80]	@ (80028f8 <HAL_TIM_MspPostInit+0x70>)
 80028a6:	4293      	cmp	r3, r2
 80028a8:	d122      	bne.n	80028f0 <HAL_TIM_MspPostInit+0x68>
 80028aa:	4b14      	ldr	r3, [pc, #80]	@ (80028fc <HAL_TIM_MspPostInit+0x74>)
 80028ac:	6b5a      	ldr	r2, [r3, #52]	@ 0x34
 80028ae:	4b13      	ldr	r3, [pc, #76]	@ (80028fc <HAL_TIM_MspPostInit+0x74>)
 80028b0:	2101      	movs	r1, #1
 80028b2:	430a      	orrs	r2, r1
 80028b4:	635a      	str	r2, [r3, #52]	@ 0x34
 80028b6:	4b11      	ldr	r3, [pc, #68]	@ (80028fc <HAL_TIM_MspPostInit+0x74>)
 80028b8:	6b5b      	ldr	r3, [r3, #52]	@ 0x34
 80028ba:	2201      	movs	r2, #1
 80028bc:	4013      	ands	r3, r2
 80028be:	60bb      	str	r3, [r7, #8]
 80028c0:	68bb      	ldr	r3, [r7, #8]
 80028c2:	0021      	movs	r1, r4
 80028c4:	187b      	adds	r3, r7, r1
 80028c6:	2280      	movs	r2, #128	@ 0x80
 80028c8:	601a      	str	r2, [r3, #0]
 80028ca:	187b      	adds	r3, r7, r1
 80028cc:	2202      	movs	r2, #2
 80028ce:	605a      	str	r2, [r3, #4]
 80028d0:	187b      	adds	r3, r7, r1
 80028d2:	2200      	movs	r2, #0
 80028d4:	609a      	str	r2, [r3, #8]
 80028d6:	187b      	adds	r3, r7, r1
 80028d8:	2200      	movs	r2, #0
 80028da:	60da      	str	r2, [r3, #12]
 80028dc:	187b      	adds	r3, r7, r1
 80028de:	2205      	movs	r2, #5
 80028e0:	611a      	str	r2, [r3, #16]
 80028e2:	187a      	adds	r2, r7, r1
 80028e4:	23a0      	movs	r3, #160	@ 0xa0
 80028e6:	05db      	lsls	r3, r3, #23
 80028e8:	0011      	movs	r1, r2
 80028ea:	0018      	movs	r0, r3
 80028ec:	f000 fab6 	bl	8002e5c <HAL_GPIO_Init>
 80028f0:	46c0      	nop			@ (mov r8, r8)
 80028f2:	46bd      	mov	sp, r7
 80028f4:	b009      	add	sp, #36	@ 0x24
 80028f6:	bd90      	pop	{r4, r7, pc}
 80028f8:	40014800 	.word	0x40014800
 80028fc:	40021000 	.word	0x40021000

08002900 <HAL_UART_MspInit>:
 8002900:	b590      	push	{r4, r7, lr}
 8002902:	b09f      	sub	sp, #124	@ 0x7c
 8002904:	af00      	add	r7, sp, #0
 8002906:	6078      	str	r0, [r7, #4]
 8002908:	2364      	movs	r3, #100	@ 0x64
 800290a:	18fb      	adds	r3, r7, r3
 800290c:	0018      	movs	r0, r3
 800290e:	2314      	movs	r3, #20
 8002910:	001a      	movs	r2, r3
 8002912:	2100      	movs	r1, #0
 8002914:	f004 fece 	bl	80076b4 <memset>
 8002918:	2418      	movs	r4, #24
 800291a:	193b      	adds	r3, r7, r4
 800291c:	0018      	movs	r0, r3
 800291e:	234c      	movs	r3, #76	@ 0x4c
 8002920:	001a      	movs	r2, r3
 8002922:	2100      	movs	r1, #0
 8002924:	f004 fec6 	bl	80076b4 <memset>
 8002928:	687b      	ldr	r3, [r7, #4]
 800292a:	681b      	ldr	r3, [r3, #0]
 800292c:	4a45      	ldr	r2, [pc, #276]	@ (8002a44 <HAL_UART_MspInit+0x144>)
 800292e:	4293      	cmp	r3, r2
 8002930:	d13e      	bne.n	80029b0 <HAL_UART_MspInit+0xb0>
 8002932:	193b      	adds	r3, r7, r4
 8002934:	2201      	movs	r2, #1
 8002936:	601a      	str	r2, [r3, #0]
 8002938:	193b      	adds	r3, r7, r4
 800293a:	2200      	movs	r2, #0
 800293c:	605a      	str	r2, [r3, #4]
 800293e:	193b      	adds	r3, r7, r4
 8002940:	0018      	movs	r0, r3
 8002942:	f001 ffcb 	bl	80048dc <HAL_RCCEx_PeriphCLKConfig>
 8002946:	1e03      	subs	r3, r0, #0
 8002948:	d001      	beq.n	800294e <HAL_UART_MspInit+0x4e>
 800294a:	f7ff fe7f 	bl	800264c <Error_Handler>
 800294e:	4b3e      	ldr	r3, [pc, #248]	@ (8002a48 <HAL_UART_MspInit+0x148>)
 8002950:	6c1a      	ldr	r2, [r3, #64]	@ 0x40
 8002952:	4b3d      	ldr	r3, [pc, #244]	@ (8002a48 <HAL_UART_MspInit+0x148>)
 8002954:	2180      	movs	r1, #128	@ 0x80
 8002956:	01c9      	lsls	r1, r1, #7
 8002958:	430a      	orrs	r2, r1
 800295a:	641a      	str	r2, [r3, #64]	@ 0x40
 800295c:	4b3a      	ldr	r3, [pc, #232]	@ (8002a48 <HAL_UART_MspInit+0x148>)
 800295e:	6c1a      	ldr	r2, [r3, #64]	@ 0x40
 8002960:	2380      	movs	r3, #128	@ 0x80
 8002962:	01db      	lsls	r3, r3, #7
 8002964:	4013      	ands	r3, r2
 8002966:	617b      	str	r3, [r7, #20]
 8002968:	697b      	ldr	r3, [r7, #20]
 800296a:	4b37      	ldr	r3, [pc, #220]	@ (8002a48 <HAL_UART_MspInit+0x148>)
 800296c:	6b5a      	ldr	r2, [r3, #52]	@ 0x34
 800296e:	4b36      	ldr	r3, [pc, #216]	@ (8002a48 <HAL_UART_MspInit+0x148>)
 8002970:	2104      	movs	r1, #4
 8002972:	430a      	orrs	r2, r1
 8002974:	635a      	str	r2, [r3, #52]	@ 0x34
 8002976:	4b34      	ldr	r3, [pc, #208]	@ (8002a48 <HAL_UART_MspInit+0x148>)
 8002978:	6b5b      	ldr	r3, [r3, #52]	@ 0x34
 800297a:	2204      	movs	r2, #4
 800297c:	4013      	ands	r3, r2
 800297e:	613b      	str	r3, [r7, #16]
 8002980:	693b      	ldr	r3, [r7, #16]
 8002982:	2164      	movs	r1, #100	@ 0x64
 8002984:	187b      	adds	r3, r7, r1
 8002986:	2230      	movs	r2, #48	@ 0x30
 8002988:	601a      	str	r2, [r3, #0]
 800298a:	187b      	adds	r3, r7, r1
 800298c:	2202      	movs	r2, #2
 800298e:	605a      	str	r2, [r3, #4]
 8002990:	187b      	adds	r3, r7, r1
 8002992:	2200      	movs	r2, #0
 8002994:	609a      	str	r2, [r3, #8]
 8002996:	187b      	adds	r3, r7, r1
 8002998:	2200      	movs	r2, #0
 800299a:	60da      	str	r2, [r3, #12]
 800299c:	187b      	adds	r3, r7, r1
 800299e:	2201      	movs	r2, #1
 80029a0:	611a      	str	r2, [r3, #16]
 80029a2:	187b      	adds	r3, r7, r1
 80029a4:	4a29      	ldr	r2, [pc, #164]	@ (8002a4c <HAL_UART_MspInit+0x14c>)
 80029a6:	0019      	movs	r1, r3
 80029a8:	0010      	movs	r0, r2
 80029aa:	f000 fa57 	bl	8002e5c <HAL_GPIO_Init>
 80029ae:	e044      	b.n	8002a3a <HAL_UART_MspInit+0x13a>
 80029b0:	687b      	ldr	r3, [r7, #4]
 80029b2:	681b      	ldr	r3, [r3, #0]
 80029b4:	4a26      	ldr	r2, [pc, #152]	@ (8002a50 <HAL_UART_MspInit+0x150>)
 80029b6:	4293      	cmp	r3, r2
 80029b8:	d13f      	bne.n	8002a3a <HAL_UART_MspInit+0x13a>
 80029ba:	2118      	movs	r1, #24
 80029bc:	187b      	adds	r3, r7, r1
 80029be:	2202      	movs	r2, #2
 80029c0:	601a      	str	r2, [r3, #0]
 80029c2:	187b      	adds	r3, r7, r1
 80029c4:	2200      	movs	r2, #0
 80029c6:	609a      	str	r2, [r3, #8]
 80029c8:	187b      	adds	r3, r7, r1
 80029ca:	0018      	movs	r0, r3
 80029cc:	f001 ff86 	bl	80048dc <HAL_RCCEx_PeriphCLKConfig>
 80029d0:	1e03      	subs	r3, r0, #0
 80029d2:	d001      	beq.n	80029d8 <HAL_UART_MspInit+0xd8>
 80029d4:	f7ff fe3a 	bl	800264c <Error_Handler>
 80029d8:	4b1b      	ldr	r3, [pc, #108]	@ (8002a48 <HAL_UART_MspInit+0x148>)
 80029da:	6bda      	ldr	r2, [r3, #60]	@ 0x3c
 80029dc:	4b1a      	ldr	r3, [pc, #104]	@ (8002a48 <HAL_UART_MspInit+0x148>)
 80029de:	2180      	movs	r1, #128	@ 0x80
 80029e0:	0289      	lsls	r1, r1, #10
 80029e2:	430a      	orrs	r2, r1
 80029e4:	63da      	str	r2, [r3, #60]	@ 0x3c
 80029e6:	4b18      	ldr	r3, [pc, #96]	@ (8002a48 <HAL_UART_MspInit+0x148>)
 80029e8:	6bda      	ldr	r2, [r3, #60]	@ 0x3c
 80029ea:	2380      	movs	r3, #128	@ 0x80
 80029ec:	029b      	lsls	r3, r3, #10
 80029ee:	4013      	ands	r3, r2
 80029f0:	60fb      	str	r3, [r7, #12]
 80029f2:	68fb      	ldr	r3, [r7, #12]
 80029f4:	4b14      	ldr	r3, [pc, #80]	@ (8002a48 <HAL_UART_MspInit+0x148>)
 80029f6:	6b5a      	ldr	r2, [r3, #52]	@ 0x34
 80029f8:	4b13      	ldr	r3, [pc, #76]	@ (8002a48 <HAL_UART_MspInit+0x148>)
 80029fa:	2101      	movs	r1, #1
 80029fc:	430a      	orrs	r2, r1
 80029fe:	635a      	str	r2, [r3, #52]	@ 0x34
 8002a00:	4b11      	ldr	r3, [pc, #68]	@ (8002a48 <HAL_UART_MspInit+0x148>)
 8002a02:	6b5b      	ldr	r3, [r3, #52]	@ 0x34
 8002a04:	2201      	movs	r2, #1
 8002a06:	4013      	ands	r3, r2
 8002a08:	60bb      	str	r3, [r7, #8]
 8002a0a:	68bb      	ldr	r3, [r7, #8]
 8002a0c:	2164      	movs	r1, #100	@ 0x64
 8002a0e:	187b      	adds	r3, r7, r1
 8002a10:	220c      	movs	r2, #12
 8002a12:	601a      	str	r2, [r3, #0]
 8002a14:	187b      	adds	r3, r7, r1
 8002a16:	2202      	movs	r2, #2
 8002a18:	605a      	str	r2, [r3, #4]
 8002a1a:	187b      	adds	r3, r7, r1
 8002a1c:	2200      	movs	r2, #0
 8002a1e:	609a      	str	r2, [r3, #8]
 8002a20:	187b      	adds	r3, r7, r1
 8002a22:	2200      	movs	r2, #0
 8002a24:	60da      	str	r2, [r3, #12]
 8002a26:	187b      	adds	r3, r7, r1
 8002a28:	2201      	movs	r2, #1
 8002a2a:	611a      	str	r2, [r3, #16]
 8002a2c:	187a      	adds	r2, r7, r1
 8002a2e:	23a0      	movs	r3, #160	@ 0xa0
 8002a30:	05db      	lsls	r3, r3, #23
 8002a32:	0011      	movs	r1, r2
 8002a34:	0018      	movs	r0, r3
 8002a36:	f000 fa11 	bl	8002e5c <HAL_GPIO_Init>
 8002a3a:	46c0      	nop			@ (mov r8, r8)
 8002a3c:	46bd      	mov	sp, r7
 8002a3e:	b01f      	add	sp, #124	@ 0x7c
 8002a40:	bd90      	pop	{r4, r7, pc}
 8002a42:	46c0      	nop			@ (mov r8, r8)
 8002a44:	40013800 	.word	0x40013800
 8002a48:	40021000 	.word	0x40021000
 8002a4c:	50000800 	.word	0x50000800
 8002a50:	40004400 	.word	0x40004400

08002a54 <NMI_Handler>:
 8002a54:	b580      	push	{r7, lr}
 8002a56:	af00      	add	r7, sp, #0
 8002a58:	46c0      	nop			@ (mov r8, r8)
 8002a5a:	e7fd      	b.n	8002a58 <NMI_Handler+0x4>

08002a5c <HardFault_Handler>:
 8002a5c:	b580      	push	{r7, lr}
 8002a5e:	af00      	add	r7, sp, #0
 8002a60:	46c0      	nop			@ (mov r8, r8)
 8002a62:	e7fd      	b.n	8002a60 <HardFault_Handler+0x4>

08002a64 <SVC_Handler>:
 8002a64:	b580      	push	{r7, lr}
 8002a66:	af00      	add	r7, sp, #0
 8002a68:	46c0      	nop			@ (mov r8, r8)
 8002a6a:	46bd      	mov	sp, r7
 8002a6c:	bd80      	pop	{r7, pc}

08002a6e <PendSV_Handler>:
 8002a6e:	b580      	push	{r7, lr}
 8002a70:	af00      	add	r7, sp, #0
 8002a72:	46c0      	nop			@ (mov r8, r8)
 8002a74:	46bd      	mov	sp, r7
 8002a76:	bd80      	pop	{r7, pc}

08002a78 <SysTick_Handler>:
 8002a78:	b580      	push	{r7, lr}
 8002a7a:	af00      	add	r7, sp, #0
 8002a7c:	f000 f8e4 	bl	8002c48 <HAL_IncTick>
 8002a80:	46c0      	nop			@ (mov r8, r8)
 8002a82:	46bd      	mov	sp, r7
 8002a84:	bd80      	pop	{r7, pc}
	...

08002a88 <RTC_TAMP_IRQHandler>:
 8002a88:	b580      	push	{r7, lr}
 8002a8a:	af00      	add	r7, sp, #0
 8002a8c:	4b05      	ldr	r3, [pc, #20]	@ (8002aa4 <RTC_TAMP_IRQHandler+0x1c>)
 8002a8e:	0018      	movs	r0, r3
 8002a90:	f002 fb66 	bl	8005160 <HAL_RTC_AlarmIRQHandler>
 8002a94:	4b03      	ldr	r3, [pc, #12]	@ (8002aa4 <RTC_TAMP_IRQHandler+0x1c>)
 8002a96:	0018      	movs	r0, r3
 8002a98:	f002 fbe5 	bl	8005266 <HAL_RTCEx_WakeUpTimerIRQHandler>
 8002a9c:	46c0      	nop			@ (mov r8, r8)
 8002a9e:	46bd      	mov	sp, r7
 8002aa0:	bd80      	pop	{r7, pc}
 8002aa2:	46c0      	nop			@ (mov r8, r8)
 8002aa4:	20000d28 	.word	0x20000d28

08002aa8 <_sbrk>:
 8002aa8:	b580      	push	{r7, lr}
 8002aaa:	b086      	sub	sp, #24
 8002aac:	af00      	add	r7, sp, #0
 8002aae:	6078      	str	r0, [r7, #4]
 8002ab0:	4a14      	ldr	r2, [pc, #80]	@ (8002b04 <_sbrk+0x5c>)
 8002ab2:	4b15      	ldr	r3, [pc, #84]	@ (8002b08 <_sbrk+0x60>)
 8002ab4:	1ad3      	subs	r3, r2, r3
 8002ab6:	617b      	str	r3, [r7, #20]
 8002ab8:	697b      	ldr	r3, [r7, #20]
 8002aba:	613b      	str	r3, [r7, #16]
 8002abc:	4b13      	ldr	r3, [pc, #76]	@ (8002b0c <_sbrk+0x64>)
 8002abe:	681b      	ldr	r3, [r3, #0]
 8002ac0:	2b00      	cmp	r3, #0
 8002ac2:	d102      	bne.n	8002aca <_sbrk+0x22>
 8002ac4:	4b11      	ldr	r3, [pc, #68]	@ (8002b0c <_sbrk+0x64>)
 8002ac6:	4a12      	ldr	r2, [pc, #72]	@ (8002b10 <_sbrk+0x68>)
 8002ac8:	601a      	str	r2, [r3, #0]
 8002aca:	4b10      	ldr	r3, [pc, #64]	@ (8002b0c <_sbrk+0x64>)
 8002acc:	681a      	ldr	r2, [r3, #0]
 8002ace:	687b      	ldr	r3, [r7, #4]
 8002ad0:	18d3      	adds	r3, r2, r3
 8002ad2:	693a      	ldr	r2, [r7, #16]
 8002ad4:	429a      	cmp	r2, r3
 8002ad6:	d207      	bcs.n	8002ae8 <_sbrk+0x40>
 8002ad8:	f004 fdf4 	bl	80076c4 <__errno>
 8002adc:	0003      	movs	r3, r0
 8002ade:	220c      	movs	r2, #12
 8002ae0:	601a      	str	r2, [r3, #0]
 8002ae2:	2301      	movs	r3, #1
 8002ae4:	425b      	negs	r3, r3
 8002ae6:	e009      	b.n	8002afc <_sbrk+0x54>
 8002ae8:	4b08      	ldr	r3, [pc, #32]	@ (8002b0c <_sbrk+0x64>)
 8002aea:	681b      	ldr	r3, [r3, #0]
 8002aec:	60fb      	str	r3, [r7, #12]
 8002aee:	4b07      	ldr	r3, [pc, #28]	@ (8002b0c <_sbrk+0x64>)
 8002af0:	681a      	ldr	r2, [r3, #0]
 8002af2:	687b      	ldr	r3, [r7, #4]
 8002af4:	18d2      	adds	r2, r2, r3
 8002af6:	4b05      	ldr	r3, [pc, #20]	@ (8002b0c <_sbrk+0x64>)
 8002af8:	601a      	str	r2, [r3, #0]
 8002afa:	68fb      	ldr	r3, [r7, #12]
 8002afc:	0018      	movs	r0, r3
 8002afe:	46bd      	mov	sp, r7
 8002b00:	b006      	add	sp, #24
 8002b02:	bd80      	pop	{r7, pc}
 8002b04:	20024000 	.word	0x20024000
 8002b08:	00000400 	.word	0x00000400
 8002b0c:	20000f2c 	.word	0x20000f2c
 8002b10:	20001080 	.word	0x20001080

08002b14 <SystemInit>:
 8002b14:	b580      	push	{r7, lr}
 8002b16:	af00      	add	r7, sp, #0
 8002b18:	46c0      	nop			@ (mov r8, r8)
 8002b1a:	46bd      	mov	sp, r7
 8002b1c:	bd80      	pop	{r7, pc}
	...

08002b20 <Reset_Handler>:
 8002b20:	480d      	ldr	r0, [pc, #52]	@ (8002b58 <LoopForever+0x2>)
 8002b22:	4685      	mov	sp, r0
 8002b24:	f7ff fff6 	bl	8002b14 <SystemInit>
 8002b28:	480c      	ldr	r0, [pc, #48]	@ (8002b5c <LoopForever+0x6>)
 8002b2a:	490d      	ldr	r1, [pc, #52]	@ (8002b60 <LoopForever+0xa>)
 8002b2c:	4a0d      	ldr	r2, [pc, #52]	@ (8002b64 <LoopForever+0xe>)
 8002b2e:	2300      	movs	r3, #0
 8002b30:	e002      	b.n	8002b38 <LoopCopyDataInit>

08002b32 <CopyDataInit>:
 8002b32:	58d4      	ldr	r4, [r2, r3]
 8002b34:	50c4      	str	r4, [r0, r3]
 8002b36:	3304      	adds	r3, #4

08002b38 <LoopCopyDataInit>:
 8002b38:	18c4      	adds	r4, r0, r3
 8002b3a:	428c      	cmp	r4, r1
 8002b3c:	d3f9      	bcc.n	8002b32 <CopyDataInit>
 8002b3e:	4a0a      	ldr	r2, [pc, #40]	@ (8002b68 <LoopForever+0x12>)
 8002b40:	4c0a      	ldr	r4, [pc, #40]	@ (8002b6c <LoopForever+0x16>)
 8002b42:	2300      	movs	r3, #0
 8002b44:	e001      	b.n	8002b4a <LoopFillZerobss>

08002b46 <FillZerobss>:
 8002b46:	6013      	str	r3, [r2, #0]
 8002b48:	3204      	adds	r2, #4

08002b4a <LoopFillZerobss>:
 8002b4a:	42a2      	cmp	r2, r4
 8002b4c:	d3fb      	bcc.n	8002b46 <FillZerobss>
 8002b4e:	f004 fdbf 	bl	80076d0 <__libc_init_array>
 8002b52:	f7fe ffc1 	bl	8001ad8 <main>

08002b56 <LoopForever>:
 8002b56:	e7fe      	b.n	8002b56 <LoopForever>
 8002b58:	20024000 	.word	0x20024000
 8002b5c:	20000000 	.word	0x20000000
 8002b60:	20000a40 	.word	0x20000a40
 8002b64:	08008824 	.word	0x08008824
 8002b68:	20000a40 	.word	0x20000a40
 8002b6c:	2000107c 	.word	0x2000107c

08002b70 <ADC1_COMP_IRQHandler>:
 8002b70:	e7fe      	b.n	8002b70 <ADC1_COMP_IRQHandler>
	...

08002b74 <HAL_Init>:
 8002b74:	b580      	push	{r7, lr}
 8002b76:	b082      	sub	sp, #8
 8002b78:	af00      	add	r7, sp, #0
 8002b7a:	1dfb      	adds	r3, r7, #7
 8002b7c:	2200      	movs	r2, #0
 8002b7e:	701a      	strb	r2, [r3, #0]
 8002b80:	4b0b      	ldr	r3, [pc, #44]	@ (8002bb0 <HAL_Init+0x3c>)
 8002b82:	681a      	ldr	r2, [r3, #0]
 8002b84:	4b0a      	ldr	r3, [pc, #40]	@ (8002bb0 <HAL_Init+0x3c>)
 8002b86:	2180      	movs	r1, #128	@ 0x80
 8002b88:	0049      	lsls	r1, r1, #1
 8002b8a:	430a      	orrs	r2, r1
 8002b8c:	601a      	str	r2, [r3, #0]
 8002b8e:	2003      	movs	r0, #3
 8002b90:	f000 f810 	bl	8002bb4 <HAL_InitTick>
 8002b94:	1e03      	subs	r3, r0, #0
 8002b96:	d003      	beq.n	8002ba0 <HAL_Init+0x2c>
 8002b98:	1dfb      	adds	r3, r7, #7
 8002b9a:	2201      	movs	r2, #1
 8002b9c:	701a      	strb	r2, [r3, #0]
 8002b9e:	e001      	b.n	8002ba4 <HAL_Init+0x30>
 8002ba0:	f7ff fd5a 	bl	8002658 <HAL_MspInit>
 8002ba4:	1dfb      	adds	r3, r7, #7
 8002ba6:	781b      	ldrb	r3, [r3, #0]
 8002ba8:	0018      	movs	r0, r3
 8002baa:	46bd      	mov	sp, r7
 8002bac:	b002      	add	sp, #8
 8002bae:	bd80      	pop	{r7, pc}
 8002bb0:	40022000 	.word	0x40022000

08002bb4 <HAL_InitTick>:
 8002bb4:	b590      	push	{r4, r7, lr}
 8002bb6:	b085      	sub	sp, #20
 8002bb8:	af00      	add	r7, sp, #0
 8002bba:	6078      	str	r0, [r7, #4]
 8002bbc:	230f      	movs	r3, #15
 8002bbe:	18fb      	adds	r3, r7, r3
 8002bc0:	2200      	movs	r2, #0
 8002bc2:	701a      	strb	r2, [r3, #0]
 8002bc4:	4b1d      	ldr	r3, [pc, #116]	@ (8002c3c <HAL_InitTick+0x88>)
 8002bc6:	781b      	ldrb	r3, [r3, #0]
 8002bc8:	2b00      	cmp	r3, #0
 8002bca:	d02b      	beq.n	8002c24 <HAL_InitTick+0x70>
 8002bcc:	4b1c      	ldr	r3, [pc, #112]	@ (8002c40 <HAL_InitTick+0x8c>)
 8002bce:	681c      	ldr	r4, [r3, #0]
 8002bd0:	4b1a      	ldr	r3, [pc, #104]	@ (8002c3c <HAL_InitTick+0x88>)
 8002bd2:	781b      	ldrb	r3, [r3, #0]
 8002bd4:	0019      	movs	r1, r3
 8002bd6:	23fa      	movs	r3, #250	@ 0xfa
 8002bd8:	0098      	lsls	r0, r3, #2
 8002bda:	f7fd fa9d 	bl	8000118 <__udivsi3>
 8002bde:	0003      	movs	r3, r0
 8002be0:	0019      	movs	r1, r3
 8002be2:	0020      	movs	r0, r4
 8002be4:	f7fd fa98 	bl	8000118 <__udivsi3>
 8002be8:	0003      	movs	r3, r0
 8002bea:	0018      	movs	r0, r3
 8002bec:	f000 f929 	bl	8002e42 <HAL_SYSTICK_Config>
 8002bf0:	1e03      	subs	r3, r0, #0
 8002bf2:	d112      	bne.n	8002c1a <HAL_InitTick+0x66>
 8002bf4:	687b      	ldr	r3, [r7, #4]
 8002bf6:	2b03      	cmp	r3, #3
 8002bf8:	d80a      	bhi.n	8002c10 <HAL_InitTick+0x5c>
 8002bfa:	6879      	ldr	r1, [r7, #4]
 8002bfc:	2301      	movs	r3, #1
 8002bfe:	425b      	negs	r3, r3
 8002c00:	2200      	movs	r2, #0
 8002c02:	0018      	movs	r0, r3
 8002c04:	f000 f908 	bl	8002e18 <HAL_NVIC_SetPriority>
 8002c08:	4b0e      	ldr	r3, [pc, #56]	@ (8002c44 <HAL_InitTick+0x90>)
 8002c0a:	687a      	ldr	r2, [r7, #4]
 8002c0c:	601a      	str	r2, [r3, #0]
 8002c0e:	e00d      	b.n	8002c2c <HAL_InitTick+0x78>
 8002c10:	230f      	movs	r3, #15
 8002c12:	18fb      	adds	r3, r7, r3
 8002c14:	2201      	movs	r2, #1
 8002c16:	701a      	strb	r2, [r3, #0]
 8002c18:	e008      	b.n	8002c2c <HAL_InitTick+0x78>
 8002c1a:	230f      	movs	r3, #15
 8002c1c:	18fb      	adds	r3, r7, r3
 8002c1e:	2201      	movs	r2, #1
 8002c20:	701a      	strb	r2, [r3, #0]
 8002c22:	e003      	b.n	8002c2c <HAL_InitTick+0x78>
 8002c24:	230f      	movs	r3, #15
 8002c26:	18fb      	adds	r3, r7, r3
 8002c28:	2201      	movs	r2, #1
 8002c2a:	701a      	strb	r2, [r3, #0]
 8002c2c:	230f      	movs	r3, #15
 8002c2e:	18fb      	adds	r3, r7, r3
 8002c30:	781b      	ldrb	r3, [r3, #0]
 8002c32:	0018      	movs	r0, r3
 8002c34:	46bd      	mov	sp, r7
 8002c36:	b005      	add	sp, #20
 8002c38:	bd90      	pop	{r4, r7, pc}
 8002c3a:	46c0      	nop			@ (mov r8, r8)
 8002c3c:	200009ec 	.word	0x200009ec
 8002c40:	200009e4 	.word	0x200009e4
 8002c44:	200009e8 	.word	0x200009e8

08002c48 <HAL_IncTick>:
 8002c48:	b580      	push	{r7, lr}
 8002c4a:	af00      	add	r7, sp, #0
 8002c4c:	4b05      	ldr	r3, [pc, #20]	@ (8002c64 <HAL_IncTick+0x1c>)
 8002c4e:	781b      	ldrb	r3, [r3, #0]
 8002c50:	001a      	movs	r2, r3
 8002c52:	4b05      	ldr	r3, [pc, #20]	@ (8002c68 <HAL_IncTick+0x20>)
 8002c54:	681b      	ldr	r3, [r3, #0]
 8002c56:	18d2      	adds	r2, r2, r3
 8002c58:	4b03      	ldr	r3, [pc, #12]	@ (8002c68 <HAL_IncTick+0x20>)
 8002c5a:	601a      	str	r2, [r3, #0]
 8002c5c:	46c0      	nop			@ (mov r8, r8)
 8002c5e:	46bd      	mov	sp, r7
 8002c60:	bd80      	pop	{r7, pc}
 8002c62:	46c0      	nop			@ (mov r8, r8)
 8002c64:	200009ec 	.word	0x200009ec
 8002c68:	20000f30 	.word	0x20000f30

08002c6c <HAL_GetTick>:
 8002c6c:	b580      	push	{r7, lr}
 8002c6e:	af00      	add	r7, sp, #0
 8002c70:	4b02      	ldr	r3, [pc, #8]	@ (8002c7c <HAL_GetTick+0x10>)
 8002c72:	681b      	ldr	r3, [r3, #0]
 8002c74:	0018      	movs	r0, r3
 8002c76:	46bd      	mov	sp, r7
 8002c78:	bd80      	pop	{r7, pc}
 8002c7a:	46c0      	nop			@ (mov r8, r8)
 8002c7c:	20000f30 	.word	0x20000f30

08002c80 <HAL_Delay>:
 8002c80:	b580      	push	{r7, lr}
 8002c82:	b084      	sub	sp, #16
 8002c84:	af00      	add	r7, sp, #0
 8002c86:	6078      	str	r0, [r7, #4]
 8002c88:	f7ff fff0 	bl	8002c6c <HAL_GetTick>
 8002c8c:	0003      	movs	r3, r0
 8002c8e:	60bb      	str	r3, [r7, #8]
 8002c90:	687b      	ldr	r3, [r7, #4]
 8002c92:	60fb      	str	r3, [r7, #12]
 8002c94:	68fb      	ldr	r3, [r7, #12]
 8002c96:	3301      	adds	r3, #1
 8002c98:	d005      	beq.n	8002ca6 <HAL_Delay+0x26>
 8002c9a:	4b0a      	ldr	r3, [pc, #40]	@ (8002cc4 <HAL_Delay+0x44>)
 8002c9c:	781b      	ldrb	r3, [r3, #0]
 8002c9e:	001a      	movs	r2, r3
 8002ca0:	68fb      	ldr	r3, [r7, #12]
 8002ca2:	189b      	adds	r3, r3, r2
 8002ca4:	60fb      	str	r3, [r7, #12]
 8002ca6:	46c0      	nop			@ (mov r8, r8)
 8002ca8:	f7ff ffe0 	bl	8002c6c <HAL_GetTick>
 8002cac:	0002      	movs	r2, r0
 8002cae:	68bb      	ldr	r3, [r7, #8]
 8002cb0:	1ad3      	subs	r3, r2, r3
 8002cb2:	68fa      	ldr	r2, [r7, #12]
 8002cb4:	429a      	cmp	r2, r3
 8002cb6:	d8f7      	bhi.n	8002ca8 <HAL_Delay+0x28>
 8002cb8:	46c0      	nop			@ (mov r8, r8)
 8002cba:	46c0      	nop			@ (mov r8, r8)
 8002cbc:	46bd      	mov	sp, r7
 8002cbe:	b004      	add	sp, #16
 8002cc0:	bd80      	pop	{r7, pc}
 8002cc2:	46c0      	nop			@ (mov r8, r8)
 8002cc4:	200009ec 	.word	0x200009ec

08002cc8 <HAL_SYSCFG_StrobeDBattpinsConfig>:
 8002cc8:	b580      	push	{r7, lr}
 8002cca:	b082      	sub	sp, #8
 8002ccc:	af00      	add	r7, sp, #0
 8002cce:	6078      	str	r0, [r7, #4]
 8002cd0:	4b06      	ldr	r3, [pc, #24]	@ (8002cec <HAL_SYSCFG_StrobeDBattpinsConfig+0x24>)
 8002cd2:	681b      	ldr	r3, [r3, #0]
 8002cd4:	4a06      	ldr	r2, [pc, #24]	@ (8002cf0 <HAL_SYSCFG_StrobeDBattpinsConfig+0x28>)
 8002cd6:	4013      	ands	r3, r2
 8002cd8:	0019      	movs	r1, r3
 8002cda:	4b04      	ldr	r3, [pc, #16]	@ (8002cec <HAL_SYSCFG_StrobeDBattpinsConfig+0x24>)
 8002cdc:	687a      	ldr	r2, [r7, #4]
 8002cde:	430a      	orrs	r2, r1
 8002ce0:	601a      	str	r2, [r3, #0]
 8002ce2:	46c0      	nop			@ (mov r8, r8)
 8002ce4:	46bd      	mov	sp, r7
 8002ce6:	b002      	add	sp, #8
 8002ce8:	bd80      	pop	{r7, pc}
 8002cea:	46c0      	nop			@ (mov r8, r8)
 8002cec:	40010000 	.word	0x40010000
 8002cf0:	fffff9ff 	.word	0xfffff9ff

08002cf4 <__NVIC_SetPriority>:
 8002cf4:	b590      	push	{r4, r7, lr}
 8002cf6:	b083      	sub	sp, #12
 8002cf8:	af00      	add	r7, sp, #0
 8002cfa:	0002      	movs	r2, r0
 8002cfc:	6039      	str	r1, [r7, #0]
 8002cfe:	1dfb      	adds	r3, r7, #7
 8002d00:	701a      	strb	r2, [r3, #0]
 8002d02:	1dfb      	adds	r3, r7, #7
 8002d04:	781b      	ldrb	r3, [r3, #0]
 8002d06:	2b7f      	cmp	r3, #127	@ 0x7f
 8002d08:	d828      	bhi.n	8002d5c <__NVIC_SetPriority+0x68>
 8002d0a:	4a2f      	ldr	r2, [pc, #188]	@ (8002dc8 <__NVIC_SetPriority+0xd4>)
 8002d0c:	1dfb      	adds	r3, r7, #7
 8002d0e:	781b      	ldrb	r3, [r3, #0]
 8002d10:	b25b      	sxtb	r3, r3
 8002d12:	089b      	lsrs	r3, r3, #2
 8002d14:	33c0      	adds	r3, #192	@ 0xc0
 8002d16:	009b      	lsls	r3, r3, #2
 8002d18:	589b      	ldr	r3, [r3, r2]
 8002d1a:	1dfa      	adds	r2, r7, #7
 8002d1c:	7812      	ldrb	r2, [r2, #0]
 8002d1e:	0011      	movs	r1, r2
 8002d20:	2203      	movs	r2, #3
 8002d22:	400a      	ands	r2, r1
 8002d24:	00d2      	lsls	r2, r2, #3
 8002d26:	21ff      	movs	r1, #255	@ 0xff
 8002d28:	4091      	lsls	r1, r2
 8002d2a:	000a      	movs	r2, r1
 8002d2c:	43d2      	mvns	r2, r2
 8002d2e:	401a      	ands	r2, r3
 8002d30:	0011      	movs	r1, r2
 8002d32:	683b      	ldr	r3, [r7, #0]
 8002d34:	019b      	lsls	r3, r3, #6
 8002d36:	22ff      	movs	r2, #255	@ 0xff
 8002d38:	401a      	ands	r2, r3
 8002d3a:	1dfb      	adds	r3, r7, #7
 8002d3c:	781b      	ldrb	r3, [r3, #0]
 8002d3e:	0018      	movs	r0, r3
 8002d40:	2303      	movs	r3, #3
 8002d42:	4003      	ands	r3, r0
 8002d44:	00db      	lsls	r3, r3, #3
 8002d46:	409a      	lsls	r2, r3
 8002d48:	481f      	ldr	r0, [pc, #124]	@ (8002dc8 <__NVIC_SetPriority+0xd4>)
 8002d4a:	1dfb      	adds	r3, r7, #7
 8002d4c:	781b      	ldrb	r3, [r3, #0]
 8002d4e:	b25b      	sxtb	r3, r3
 8002d50:	089b      	lsrs	r3, r3, #2
 8002d52:	430a      	orrs	r2, r1
 8002d54:	33c0      	adds	r3, #192	@ 0xc0
 8002d56:	009b      	lsls	r3, r3, #2
 8002d58:	501a      	str	r2, [r3, r0]
 8002d5a:	e031      	b.n	8002dc0 <__NVIC_SetPriority+0xcc>
 8002d5c:	4a1b      	ldr	r2, [pc, #108]	@ (8002dcc <__NVIC_SetPriority+0xd8>)
 8002d5e:	1dfb      	adds	r3, r7, #7
 8002d60:	781b      	ldrb	r3, [r3, #0]
 8002d62:	0019      	movs	r1, r3
 8002d64:	230f      	movs	r3, #15
 8002d66:	400b      	ands	r3, r1
 8002d68:	3b08      	subs	r3, #8
 8002d6a:	089b      	lsrs	r3, r3, #2
 8002d6c:	3306      	adds	r3, #6
 8002d6e:	009b      	lsls	r3, r3, #2
 8002d70:	18d3      	adds	r3, r2, r3
 8002d72:	3304      	adds	r3, #4
 8002d74:	681b      	ldr	r3, [r3, #0]
 8002d76:	1dfa      	adds	r2, r7, #7
 8002d78:	7812      	ldrb	r2, [r2, #0]
 8002d7a:	0011      	movs	r1, r2
 8002d7c:	2203      	movs	r2, #3
 8002d7e:	400a      	ands	r2, r1
 8002d80:	00d2      	lsls	r2, r2, #3
 8002d82:	21ff      	movs	r1, #255	@ 0xff
 8002d84:	4091      	lsls	r1, r2
 8002d86:	000a      	movs	r2, r1
 8002d88:	43d2      	mvns	r2, r2
 8002d8a:	401a      	ands	r2, r3
 8002d8c:	0011      	movs	r1, r2
 8002d8e:	683b      	ldr	r3, [r7, #0]
 8002d90:	019b      	lsls	r3, r3, #6
 8002d92:	22ff      	movs	r2, #255	@ 0xff
 8002d94:	401a      	ands	r2, r3
 8002d96:	1dfb      	adds	r3, r7, #7
 8002d98:	781b      	ldrb	r3, [r3, #0]
 8002d9a:	0018      	movs	r0, r3
 8002d9c:	2303      	movs	r3, #3
 8002d9e:	4003      	ands	r3, r0
 8002da0:	00db      	lsls	r3, r3, #3
 8002da2:	409a      	lsls	r2, r3
 8002da4:	4809      	ldr	r0, [pc, #36]	@ (8002dcc <__NVIC_SetPriority+0xd8>)
 8002da6:	1dfb      	adds	r3, r7, #7
 8002da8:	781b      	ldrb	r3, [r3, #0]
 8002daa:	001c      	movs	r4, r3
 8002dac:	230f      	movs	r3, #15
 8002dae:	4023      	ands	r3, r4
 8002db0:	3b08      	subs	r3, #8
 8002db2:	089b      	lsrs	r3, r3, #2
 8002db4:	430a      	orrs	r2, r1
 8002db6:	3306      	adds	r3, #6
 8002db8:	009b      	lsls	r3, r3, #2
 8002dba:	18c3      	adds	r3, r0, r3
 8002dbc:	3304      	adds	r3, #4
 8002dbe:	601a      	str	r2, [r3, #0]
 8002dc0:	46c0      	nop			@ (mov r8, r8)
 8002dc2:	46bd      	mov	sp, r7
 8002dc4:	b003      	add	sp, #12
 8002dc6:	bd90      	pop	{r4, r7, pc}
 8002dc8:	e000e100 	.word	0xe000e100
 8002dcc:	e000ed00 	.word	0xe000ed00

08002dd0 <SysTick_Config>:
 8002dd0:	b580      	push	{r7, lr}
 8002dd2:	b082      	sub	sp, #8
 8002dd4:	af00      	add	r7, sp, #0
 8002dd6:	6078      	str	r0, [r7, #4]
 8002dd8:	687b      	ldr	r3, [r7, #4]
 8002dda:	1e5a      	subs	r2, r3, #1
 8002ddc:	2380      	movs	r3, #128	@ 0x80
 8002dde:	045b      	lsls	r3, r3, #17
 8002de0:	429a      	cmp	r2, r3
 8002de2:	d301      	bcc.n	8002de8 <SysTick_Config+0x18>
 8002de4:	2301      	movs	r3, #1
 8002de6:	e010      	b.n	8002e0a <SysTick_Config+0x3a>
 8002de8:	4b0a      	ldr	r3, [pc, #40]	@ (8002e14 <SysTick_Config+0x44>)
 8002dea:	687a      	ldr	r2, [r7, #4]
 8002dec:	3a01      	subs	r2, #1
 8002dee:	605a      	str	r2, [r3, #4]
 8002df0:	2301      	movs	r3, #1
 8002df2:	425b      	negs	r3, r3
 8002df4:	2103      	movs	r1, #3
 8002df6:	0018      	movs	r0, r3
 8002df8:	f7ff ff7c 	bl	8002cf4 <__NVIC_SetPriority>
 8002dfc:	4b05      	ldr	r3, [pc, #20]	@ (8002e14 <SysTick_Config+0x44>)
 8002dfe:	2200      	movs	r2, #0
 8002e00:	609a      	str	r2, [r3, #8]
 8002e02:	4b04      	ldr	r3, [pc, #16]	@ (8002e14 <SysTick_Config+0x44>)
 8002e04:	2207      	movs	r2, #7
 8002e06:	601a      	str	r2, [r3, #0]
 8002e08:	2300      	movs	r3, #0
 8002e0a:	0018      	movs	r0, r3
 8002e0c:	46bd      	mov	sp, r7
 8002e0e:	b002      	add	sp, #8
 8002e10:	bd80      	pop	{r7, pc}
 8002e12:	46c0      	nop			@ (mov r8, r8)
 8002e14:	e000e010 	.word	0xe000e010

08002e18 <HAL_NVIC_SetPriority>:
 8002e18:	b580      	push	{r7, lr}
 8002e1a:	b084      	sub	sp, #16
 8002e1c:	af00      	add	r7, sp, #0
 8002e1e:	60b9      	str	r1, [r7, #8]
 8002e20:	607a      	str	r2, [r7, #4]
 8002e22:	210f      	movs	r1, #15
 8002e24:	187b      	adds	r3, r7, r1
 8002e26:	1c02      	adds	r2, r0, #0
 8002e28:	701a      	strb	r2, [r3, #0]
 8002e2a:	68ba      	ldr	r2, [r7, #8]
 8002e2c:	187b      	adds	r3, r7, r1
 8002e2e:	781b      	ldrb	r3, [r3, #0]
 8002e30:	b25b      	sxtb	r3, r3
 8002e32:	0011      	movs	r1, r2
 8002e34:	0018      	movs	r0, r3
 8002e36:	f7ff ff5d 	bl	8002cf4 <__NVIC_SetPriority>
 8002e3a:	46c0      	nop			@ (mov r8, r8)
 8002e3c:	46bd      	mov	sp, r7
 8002e3e:	b004      	add	sp, #16
 8002e40:	bd80      	pop	{r7, pc}

08002e42 <HAL_SYSTICK_Config>:
 8002e42:	b580      	push	{r7, lr}
 8002e44:	b082      	sub	sp, #8
 8002e46:	af00      	add	r7, sp, #0
 8002e48:	6078      	str	r0, [r7, #4]
 8002e4a:	687b      	ldr	r3, [r7, #4]
 8002e4c:	0018      	movs	r0, r3
 8002e4e:	f7ff ffbf 	bl	8002dd0 <SysTick_Config>
 8002e52:	0003      	movs	r3, r0
 8002e54:	0018      	movs	r0, r3
 8002e56:	46bd      	mov	sp, r7
 8002e58:	b002      	add	sp, #8
 8002e5a:	bd80      	pop	{r7, pc}

08002e5c <HAL_GPIO_Init>:
 8002e5c:	b580      	push	{r7, lr}
 8002e5e:	b086      	sub	sp, #24
 8002e60:	af00      	add	r7, sp, #0
 8002e62:	6078      	str	r0, [r7, #4]
 8002e64:	6039      	str	r1, [r7, #0]
 8002e66:	2300      	movs	r3, #0
 8002e68:	617b      	str	r3, [r7, #20]
 8002e6a:	e14d      	b.n	8003108 <HAL_GPIO_Init+0x2ac>
 8002e6c:	683b      	ldr	r3, [r7, #0]
 8002e6e:	681b      	ldr	r3, [r3, #0]
 8002e70:	2101      	movs	r1, #1
 8002e72:	697a      	ldr	r2, [r7, #20]
 8002e74:	4091      	lsls	r1, r2
 8002e76:	000a      	movs	r2, r1
 8002e78:	4013      	ands	r3, r2
 8002e7a:	60fb      	str	r3, [r7, #12]
 8002e7c:	68fb      	ldr	r3, [r7, #12]
 8002e7e:	2b00      	cmp	r3, #0
 8002e80:	d100      	bne.n	8002e84 <HAL_GPIO_Init+0x28>
 8002e82:	e13e      	b.n	8003102 <HAL_GPIO_Init+0x2a6>
 8002e84:	683b      	ldr	r3, [r7, #0]
 8002e86:	685b      	ldr	r3, [r3, #4]
 8002e88:	2203      	movs	r2, #3
 8002e8a:	4013      	ands	r3, r2
 8002e8c:	2b01      	cmp	r3, #1
 8002e8e:	d005      	beq.n	8002e9c <HAL_GPIO_Init+0x40>
 8002e90:	683b      	ldr	r3, [r7, #0]
 8002e92:	685b      	ldr	r3, [r3, #4]
 8002e94:	2203      	movs	r2, #3
 8002e96:	4013      	ands	r3, r2
 8002e98:	2b02      	cmp	r3, #2
 8002e9a:	d130      	bne.n	8002efe <HAL_GPIO_Init+0xa2>
 8002e9c:	687b      	ldr	r3, [r7, #4]
 8002e9e:	689b      	ldr	r3, [r3, #8]
 8002ea0:	613b      	str	r3, [r7, #16]
 8002ea2:	697b      	ldr	r3, [r7, #20]
 8002ea4:	005b      	lsls	r3, r3, #1
 8002ea6:	2203      	movs	r2, #3
 8002ea8:	409a      	lsls	r2, r3
 8002eaa:	0013      	movs	r3, r2
 8002eac:	43da      	mvns	r2, r3
 8002eae:	693b      	ldr	r3, [r7, #16]
 8002eb0:	4013      	ands	r3, r2
 8002eb2:	613b      	str	r3, [r7, #16]
 8002eb4:	683b      	ldr	r3, [r7, #0]
 8002eb6:	68da      	ldr	r2, [r3, #12]
 8002eb8:	697b      	ldr	r3, [r7, #20]
 8002eba:	005b      	lsls	r3, r3, #1
 8002ebc:	409a      	lsls	r2, r3
 8002ebe:	0013      	movs	r3, r2
 8002ec0:	693a      	ldr	r2, [r7, #16]
 8002ec2:	4313      	orrs	r3, r2
 8002ec4:	613b      	str	r3, [r7, #16]
 8002ec6:	687b      	ldr	r3, [r7, #4]
 8002ec8:	693a      	ldr	r2, [r7, #16]
 8002eca:	609a      	str	r2, [r3, #8]
 8002ecc:	687b      	ldr	r3, [r7, #4]
 8002ece:	685b      	ldr	r3, [r3, #4]
 8002ed0:	613b      	str	r3, [r7, #16]
 8002ed2:	2201      	movs	r2, #1
 8002ed4:	697b      	ldr	r3, [r7, #20]
 8002ed6:	409a      	lsls	r2, r3
 8002ed8:	0013      	movs	r3, r2
 8002eda:	43da      	mvns	r2, r3
 8002edc:	693b      	ldr	r3, [r7, #16]
 8002ede:	4013      	ands	r3, r2
 8002ee0:	613b      	str	r3, [r7, #16]
 8002ee2:	683b      	ldr	r3, [r7, #0]
 8002ee4:	685b      	ldr	r3, [r3, #4]
 8002ee6:	091b      	lsrs	r3, r3, #4
 8002ee8:	2201      	movs	r2, #1
 8002eea:	401a      	ands	r2, r3
 8002eec:	697b      	ldr	r3, [r7, #20]
 8002eee:	409a      	lsls	r2, r3
 8002ef0:	0013      	movs	r3, r2
 8002ef2:	693a      	ldr	r2, [r7, #16]
 8002ef4:	4313      	orrs	r3, r2
 8002ef6:	613b      	str	r3, [r7, #16]
 8002ef8:	687b      	ldr	r3, [r7, #4]
 8002efa:	693a      	ldr	r2, [r7, #16]
 8002efc:	605a      	str	r2, [r3, #4]
 8002efe:	683b      	ldr	r3, [r7, #0]
 8002f00:	685b      	ldr	r3, [r3, #4]
 8002f02:	2203      	movs	r2, #3
 8002f04:	4013      	ands	r3, r2
 8002f06:	2b03      	cmp	r3, #3
 8002f08:	d017      	beq.n	8002f3a <HAL_GPIO_Init+0xde>
 8002f0a:	687b      	ldr	r3, [r7, #4]
 8002f0c:	68db      	ldr	r3, [r3, #12]
 8002f0e:	613b      	str	r3, [r7, #16]
 8002f10:	697b      	ldr	r3, [r7, #20]
 8002f12:	005b      	lsls	r3, r3, #1
 8002f14:	2203      	movs	r2, #3
 8002f16:	409a      	lsls	r2, r3
 8002f18:	0013      	movs	r3, r2
 8002f1a:	43da      	mvns	r2, r3
 8002f1c:	693b      	ldr	r3, [r7, #16]
 8002f1e:	4013      	ands	r3, r2
 8002f20:	613b      	str	r3, [r7, #16]
 8002f22:	683b      	ldr	r3, [r7, #0]
 8002f24:	689a      	ldr	r2, [r3, #8]
 8002f26:	697b      	ldr	r3, [r7, #20]
 8002f28:	005b      	lsls	r3, r3, #1
 8002f2a:	409a      	lsls	r2, r3
 8002f2c:	0013      	movs	r3, r2
 8002f2e:	693a      	ldr	r2, [r7, #16]
 8002f30:	4313      	orrs	r3, r2
 8002f32:	613b      	str	r3, [r7, #16]
 8002f34:	687b      	ldr	r3, [r7, #4]
 8002f36:	693a      	ldr	r2, [r7, #16]
 8002f38:	60da      	str	r2, [r3, #12]
 8002f3a:	683b      	ldr	r3, [r7, #0]
 8002f3c:	685b      	ldr	r3, [r3, #4]
 8002f3e:	2203      	movs	r2, #3
 8002f40:	4013      	ands	r3, r2
 8002f42:	2b02      	cmp	r3, #2
 8002f44:	d123      	bne.n	8002f8e <HAL_GPIO_Init+0x132>
 8002f46:	697b      	ldr	r3, [r7, #20]
 8002f48:	08da      	lsrs	r2, r3, #3
 8002f4a:	687b      	ldr	r3, [r7, #4]
 8002f4c:	3208      	adds	r2, #8
 8002f4e:	0092      	lsls	r2, r2, #2
 8002f50:	58d3      	ldr	r3, [r2, r3]
 8002f52:	613b      	str	r3, [r7, #16]
 8002f54:	697b      	ldr	r3, [r7, #20]
 8002f56:	2207      	movs	r2, #7
 8002f58:	4013      	ands	r3, r2
 8002f5a:	009b      	lsls	r3, r3, #2
 8002f5c:	220f      	movs	r2, #15
 8002f5e:	409a      	lsls	r2, r3
 8002f60:	0013      	movs	r3, r2
 8002f62:	43da      	mvns	r2, r3
 8002f64:	693b      	ldr	r3, [r7, #16]
 8002f66:	4013      	ands	r3, r2
 8002f68:	613b      	str	r3, [r7, #16]
 8002f6a:	683b      	ldr	r3, [r7, #0]
 8002f6c:	691a      	ldr	r2, [r3, #16]
 8002f6e:	697b      	ldr	r3, [r7, #20]
 8002f70:	2107      	movs	r1, #7
 8002f72:	400b      	ands	r3, r1
 8002f74:	009b      	lsls	r3, r3, #2
 8002f76:	409a      	lsls	r2, r3
 8002f78:	0013      	movs	r3, r2
 8002f7a:	693a      	ldr	r2, [r7, #16]
 8002f7c:	4313      	orrs	r3, r2
 8002f7e:	613b      	str	r3, [r7, #16]
 8002f80:	697b      	ldr	r3, [r7, #20]
 8002f82:	08da      	lsrs	r2, r3, #3
 8002f84:	687b      	ldr	r3, [r7, #4]
 8002f86:	3208      	adds	r2, #8
 8002f88:	0092      	lsls	r2, r2, #2
 8002f8a:	6939      	ldr	r1, [r7, #16]
 8002f8c:	50d1      	str	r1, [r2, r3]
 8002f8e:	687b      	ldr	r3, [r7, #4]
 8002f90:	681b      	ldr	r3, [r3, #0]
 8002f92:	613b      	str	r3, [r7, #16]
 8002f94:	697b      	ldr	r3, [r7, #20]
 8002f96:	005b      	lsls	r3, r3, #1
 8002f98:	2203      	movs	r2, #3
 8002f9a:	409a      	lsls	r2, r3
 8002f9c:	0013      	movs	r3, r2
 8002f9e:	43da      	mvns	r2, r3
 8002fa0:	693b      	ldr	r3, [r7, #16]
 8002fa2:	4013      	ands	r3, r2
 8002fa4:	613b      	str	r3, [r7, #16]
 8002fa6:	683b      	ldr	r3, [r7, #0]
 8002fa8:	685b      	ldr	r3, [r3, #4]
 8002faa:	2203      	movs	r2, #3
 8002fac:	401a      	ands	r2, r3
 8002fae:	697b      	ldr	r3, [r7, #20]
 8002fb0:	005b      	lsls	r3, r3, #1
 8002fb2:	409a      	lsls	r2, r3
 8002fb4:	0013      	movs	r3, r2
 8002fb6:	693a      	ldr	r2, [r7, #16]
 8002fb8:	4313      	orrs	r3, r2
 8002fba:	613b      	str	r3, [r7, #16]
 8002fbc:	687b      	ldr	r3, [r7, #4]
 8002fbe:	693a      	ldr	r2, [r7, #16]
 8002fc0:	601a      	str	r2, [r3, #0]
 8002fc2:	683b      	ldr	r3, [r7, #0]
 8002fc4:	685a      	ldr	r2, [r3, #4]
 8002fc6:	23c0      	movs	r3, #192	@ 0xc0
 8002fc8:	029b      	lsls	r3, r3, #10
 8002fca:	4013      	ands	r3, r2
 8002fcc:	d100      	bne.n	8002fd0 <HAL_GPIO_Init+0x174>
 8002fce:	e098      	b.n	8003102 <HAL_GPIO_Init+0x2a6>
 8002fd0:	4a53      	ldr	r2, [pc, #332]	@ (8003120 <HAL_GPIO_Init+0x2c4>)
 8002fd2:	697b      	ldr	r3, [r7, #20]
 8002fd4:	089b      	lsrs	r3, r3, #2
 8002fd6:	3318      	adds	r3, #24
 8002fd8:	009b      	lsls	r3, r3, #2
 8002fda:	589b      	ldr	r3, [r3, r2]
 8002fdc:	613b      	str	r3, [r7, #16]
 8002fde:	697b      	ldr	r3, [r7, #20]
 8002fe0:	2203      	movs	r2, #3
 8002fe2:	4013      	ands	r3, r2
 8002fe4:	00db      	lsls	r3, r3, #3
 8002fe6:	220f      	movs	r2, #15
 8002fe8:	409a      	lsls	r2, r3
 8002fea:	0013      	movs	r3, r2
 8002fec:	43da      	mvns	r2, r3
 8002fee:	693b      	ldr	r3, [r7, #16]
 8002ff0:	4013      	ands	r3, r2
 8002ff2:	613b      	str	r3, [r7, #16]
 8002ff4:	687a      	ldr	r2, [r7, #4]
 8002ff6:	23a0      	movs	r3, #160	@ 0xa0
 8002ff8:	05db      	lsls	r3, r3, #23
 8002ffa:	429a      	cmp	r2, r3
 8002ffc:	d019      	beq.n	8003032 <HAL_GPIO_Init+0x1d6>
 8002ffe:	687b      	ldr	r3, [r7, #4]
 8003000:	4a48      	ldr	r2, [pc, #288]	@ (8003124 <HAL_GPIO_Init+0x2c8>)
 8003002:	4293      	cmp	r3, r2
 8003004:	d013      	beq.n	800302e <HAL_GPIO_Init+0x1d2>
 8003006:	687b      	ldr	r3, [r7, #4]
 8003008:	4a47      	ldr	r2, [pc, #284]	@ (8003128 <HAL_GPIO_Init+0x2cc>)
 800300a:	4293      	cmp	r3, r2
 800300c:	d00d      	beq.n	800302a <HAL_GPIO_Init+0x1ce>
 800300e:	687b      	ldr	r3, [r7, #4]
 8003010:	4a46      	ldr	r2, [pc, #280]	@ (800312c <HAL_GPIO_Init+0x2d0>)
 8003012:	4293      	cmp	r3, r2
 8003014:	d007      	beq.n	8003026 <HAL_GPIO_Init+0x1ca>
 8003016:	687b      	ldr	r3, [r7, #4]
 8003018:	4a45      	ldr	r2, [pc, #276]	@ (8003130 <HAL_GPIO_Init+0x2d4>)
 800301a:	4293      	cmp	r3, r2
 800301c:	d101      	bne.n	8003022 <HAL_GPIO_Init+0x1c6>
 800301e:	2304      	movs	r3, #4
 8003020:	e008      	b.n	8003034 <HAL_GPIO_Init+0x1d8>
 8003022:	2305      	movs	r3, #5
 8003024:	e006      	b.n	8003034 <HAL_GPIO_Init+0x1d8>
 8003026:	2303      	movs	r3, #3
 8003028:	e004      	b.n	8003034 <HAL_GPIO_Init+0x1d8>
 800302a:	2302      	movs	r3, #2
 800302c:	e002      	b.n	8003034 <HAL_GPIO_Init+0x1d8>
 800302e:	2301      	movs	r3, #1
 8003030:	e000      	b.n	8003034 <HAL_GPIO_Init+0x1d8>
 8003032:	2300      	movs	r3, #0
 8003034:	697a      	ldr	r2, [r7, #20]
 8003036:	2103      	movs	r1, #3
 8003038:	400a      	ands	r2, r1
 800303a:	00d2      	lsls	r2, r2, #3
 800303c:	4093      	lsls	r3, r2
 800303e:	693a      	ldr	r2, [r7, #16]
 8003040:	4313      	orrs	r3, r2
 8003042:	613b      	str	r3, [r7, #16]
 8003044:	4936      	ldr	r1, [pc, #216]	@ (8003120 <HAL_GPIO_Init+0x2c4>)
 8003046:	697b      	ldr	r3, [r7, #20]
 8003048:	089b      	lsrs	r3, r3, #2
 800304a:	3318      	adds	r3, #24
 800304c:	009b      	lsls	r3, r3, #2
 800304e:	693a      	ldr	r2, [r7, #16]
 8003050:	505a      	str	r2, [r3, r1]
 8003052:	4b33      	ldr	r3, [pc, #204]	@ (8003120 <HAL_GPIO_Init+0x2c4>)
 8003054:	681b      	ldr	r3, [r3, #0]
 8003056:	613b      	str	r3, [r7, #16]
 8003058:	68fb      	ldr	r3, [r7, #12]
 800305a:	43da      	mvns	r2, r3
 800305c:	693b      	ldr	r3, [r7, #16]
 800305e:	4013      	ands	r3, r2
 8003060:	613b      	str	r3, [r7, #16]
 8003062:	683b      	ldr	r3, [r7, #0]
 8003064:	685a      	ldr	r2, [r3, #4]
 8003066:	2380      	movs	r3, #128	@ 0x80
 8003068:	035b      	lsls	r3, r3, #13
 800306a:	4013      	ands	r3, r2
 800306c:	d003      	beq.n	8003076 <HAL_GPIO_Init+0x21a>
 800306e:	693a      	ldr	r2, [r7, #16]
 8003070:	68fb      	ldr	r3, [r7, #12]
 8003072:	4313      	orrs	r3, r2
 8003074:	613b      	str	r3, [r7, #16]
 8003076:	4b2a      	ldr	r3, [pc, #168]	@ (8003120 <HAL_GPIO_Init+0x2c4>)
 8003078:	693a      	ldr	r2, [r7, #16]
 800307a:	601a      	str	r2, [r3, #0]
 800307c:	4b28      	ldr	r3, [pc, #160]	@ (8003120 <HAL_GPIO_Init+0x2c4>)
 800307e:	685b      	ldr	r3, [r3, #4]
 8003080:	613b      	str	r3, [r7, #16]
 8003082:	68fb      	ldr	r3, [r7, #12]
 8003084:	43da      	mvns	r2, r3
 8003086:	693b      	ldr	r3, [r7, #16]
 8003088:	4013      	ands	r3, r2
 800308a:	613b      	str	r3, [r7, #16]
 800308c:	683b      	ldr	r3, [r7, #0]
 800308e:	685a      	ldr	r2, [r3, #4]
 8003090:	2380      	movs	r3, #128	@ 0x80
 8003092:	039b      	lsls	r3, r3, #14
 8003094:	4013      	ands	r3, r2
 8003096:	d003      	beq.n	80030a0 <HAL_GPIO_Init+0x244>
 8003098:	693a      	ldr	r2, [r7, #16]
 800309a:	68fb      	ldr	r3, [r7, #12]
 800309c:	4313      	orrs	r3, r2
 800309e:	613b      	str	r3, [r7, #16]
 80030a0:	4b1f      	ldr	r3, [pc, #124]	@ (8003120 <HAL_GPIO_Init+0x2c4>)
 80030a2:	693a      	ldr	r2, [r7, #16]
 80030a4:	605a      	str	r2, [r3, #4]
 80030a6:	4a1e      	ldr	r2, [pc, #120]	@ (8003120 <HAL_GPIO_Init+0x2c4>)
 80030a8:	2384      	movs	r3, #132	@ 0x84
 80030aa:	58d3      	ldr	r3, [r2, r3]
 80030ac:	613b      	str	r3, [r7, #16]
 80030ae:	68fb      	ldr	r3, [r7, #12]
 80030b0:	43da      	mvns	r2, r3
 80030b2:	693b      	ldr	r3, [r7, #16]
 80030b4:	4013      	ands	r3, r2
 80030b6:	613b      	str	r3, [r7, #16]
 80030b8:	683b      	ldr	r3, [r7, #0]
 80030ba:	685a      	ldr	r2, [r3, #4]
 80030bc:	2380      	movs	r3, #128	@ 0x80
 80030be:	029b      	lsls	r3, r3, #10
 80030c0:	4013      	ands	r3, r2
 80030c2:	d003      	beq.n	80030cc <HAL_GPIO_Init+0x270>
 80030c4:	693a      	ldr	r2, [r7, #16]
 80030c6:	68fb      	ldr	r3, [r7, #12]
 80030c8:	4313      	orrs	r3, r2
 80030ca:	613b      	str	r3, [r7, #16]
 80030cc:	4914      	ldr	r1, [pc, #80]	@ (8003120 <HAL_GPIO_Init+0x2c4>)
 80030ce:	2284      	movs	r2, #132	@ 0x84
 80030d0:	693b      	ldr	r3, [r7, #16]
 80030d2:	508b      	str	r3, [r1, r2]
 80030d4:	4a12      	ldr	r2, [pc, #72]	@ (8003120 <HAL_GPIO_Init+0x2c4>)
 80030d6:	2380      	movs	r3, #128	@ 0x80
 80030d8:	58d3      	ldr	r3, [r2, r3]
 80030da:	613b      	str	r3, [r7, #16]
 80030dc:	68fb      	ldr	r3, [r7, #12]
 80030de:	43da      	mvns	r2, r3
 80030e0:	693b      	ldr	r3, [r7, #16]
 80030e2:	4013      	ands	r3, r2
 80030e4:	613b      	str	r3, [r7, #16]
 80030e6:	683b      	ldr	r3, [r7, #0]
 80030e8:	685a      	ldr	r2, [r3, #4]
 80030ea:	2380      	movs	r3, #128	@ 0x80
 80030ec:	025b      	lsls	r3, r3, #9
 80030ee:	4013      	ands	r3, r2
 80030f0:	d003      	beq.n	80030fa <HAL_GPIO_Init+0x29e>
 80030f2:	693a      	ldr	r2, [r7, #16]
 80030f4:	68fb      	ldr	r3, [r7, #12]
 80030f6:	4313      	orrs	r3, r2
 80030f8:	613b      	str	r3, [r7, #16]
 80030fa:	4909      	ldr	r1, [pc, #36]	@ (8003120 <HAL_GPIO_Init+0x2c4>)
 80030fc:	2280      	movs	r2, #128	@ 0x80
 80030fe:	693b      	ldr	r3, [r7, #16]
 8003100:	508b      	str	r3, [r1, r2]
 8003102:	697b      	ldr	r3, [r7, #20]
 8003104:	3301      	adds	r3, #1
 8003106:	617b      	str	r3, [r7, #20]
 8003108:	683b      	ldr	r3, [r7, #0]
 800310a:	681a      	ldr	r2, [r3, #0]
 800310c:	697b      	ldr	r3, [r7, #20]
 800310e:	40da      	lsrs	r2, r3
 8003110:	1e13      	subs	r3, r2, #0
 8003112:	d000      	beq.n	8003116 <HAL_GPIO_Init+0x2ba>
 8003114:	e6aa      	b.n	8002e6c <HAL_GPIO_Init+0x10>
 8003116:	46c0      	nop			@ (mov r8, r8)
 8003118:	46c0      	nop			@ (mov r8, r8)
 800311a:	46bd      	mov	sp, r7
 800311c:	b006      	add	sp, #24
 800311e:	bd80      	pop	{r7, pc}
 8003120:	40021800 	.word	0x40021800
 8003124:	50000400 	.word	0x50000400
 8003128:	50000800 	.word	0x50000800
 800312c:	50000c00 	.word	0x50000c00
 8003130:	50001000 	.word	0x50001000

08003134 <HAL_GPIO_ReadPin>:
 8003134:	b580      	push	{r7, lr}
 8003136:	b084      	sub	sp, #16
 8003138:	af00      	add	r7, sp, #0
 800313a:	6078      	str	r0, [r7, #4]
 800313c:	000a      	movs	r2, r1
 800313e:	1cbb      	adds	r3, r7, #2
 8003140:	801a      	strh	r2, [r3, #0]
 8003142:	687b      	ldr	r3, [r7, #4]
 8003144:	691b      	ldr	r3, [r3, #16]
 8003146:	1cba      	adds	r2, r7, #2
 8003148:	8812      	ldrh	r2, [r2, #0]
 800314a:	4013      	ands	r3, r2
 800314c:	d004      	beq.n	8003158 <HAL_GPIO_ReadPin+0x24>
 800314e:	230f      	movs	r3, #15
 8003150:	18fb      	adds	r3, r7, r3
 8003152:	2201      	movs	r2, #1
 8003154:	701a      	strb	r2, [r3, #0]
 8003156:	e003      	b.n	8003160 <HAL_GPIO_ReadPin+0x2c>
 8003158:	230f      	movs	r3, #15
 800315a:	18fb      	adds	r3, r7, r3
 800315c:	2200      	movs	r2, #0
 800315e:	701a      	strb	r2, [r3, #0]
 8003160:	230f      	movs	r3, #15
 8003162:	18fb      	adds	r3, r7, r3
 8003164:	781b      	ldrb	r3, [r3, #0]
 8003166:	0018      	movs	r0, r3
 8003168:	46bd      	mov	sp, r7
 800316a:	b004      	add	sp, #16
 800316c:	bd80      	pop	{r7, pc}

0800316e <HAL_GPIO_WritePin>:
 800316e:	b580      	push	{r7, lr}
 8003170:	b082      	sub	sp, #8
 8003172:	af00      	add	r7, sp, #0
 8003174:	6078      	str	r0, [r7, #4]
 8003176:	0008      	movs	r0, r1
 8003178:	0011      	movs	r1, r2
 800317a:	1cbb      	adds	r3, r7, #2
 800317c:	1c02      	adds	r2, r0, #0
 800317e:	801a      	strh	r2, [r3, #0]
 8003180:	1c7b      	adds	r3, r7, #1
 8003182:	1c0a      	adds	r2, r1, #0
 8003184:	701a      	strb	r2, [r3, #0]
 8003186:	1c7b      	adds	r3, r7, #1
 8003188:	781b      	ldrb	r3, [r3, #0]
 800318a:	2b00      	cmp	r3, #0
 800318c:	d004      	beq.n	8003198 <HAL_GPIO_WritePin+0x2a>
 800318e:	1cbb      	adds	r3, r7, #2
 8003190:	881a      	ldrh	r2, [r3, #0]
 8003192:	687b      	ldr	r3, [r7, #4]
 8003194:	619a      	str	r2, [r3, #24]
 8003196:	e003      	b.n	80031a0 <HAL_GPIO_WritePin+0x32>
 8003198:	1cbb      	adds	r3, r7, #2
 800319a:	881a      	ldrh	r2, [r3, #0]
 800319c:	687b      	ldr	r3, [r7, #4]
 800319e:	629a      	str	r2, [r3, #40]	@ 0x28
 80031a0:	46c0      	nop			@ (mov r8, r8)
 80031a2:	46bd      	mov	sp, r7
 80031a4:	b002      	add	sp, #8
 80031a6:	bd80      	pop	{r7, pc}

080031a8 <HAL_I2C_Init>:
 80031a8:	b580      	push	{r7, lr}
 80031aa:	b082      	sub	sp, #8
 80031ac:	af00      	add	r7, sp, #0
 80031ae:	6078      	str	r0, [r7, #4]
 80031b0:	687b      	ldr	r3, [r7, #4]
 80031b2:	2b00      	cmp	r3, #0
 80031b4:	d101      	bne.n	80031ba <HAL_I2C_Init+0x12>
 80031b6:	2301      	movs	r3, #1
 80031b8:	e08f      	b.n	80032da <HAL_I2C_Init+0x132>
 80031ba:	687b      	ldr	r3, [r7, #4]
 80031bc:	2241      	movs	r2, #65	@ 0x41
 80031be:	5c9b      	ldrb	r3, [r3, r2]
 80031c0:	b2db      	uxtb	r3, r3
 80031c2:	2b00      	cmp	r3, #0
 80031c4:	d107      	bne.n	80031d6 <HAL_I2C_Init+0x2e>
 80031c6:	687b      	ldr	r3, [r7, #4]
 80031c8:	2240      	movs	r2, #64	@ 0x40
 80031ca:	2100      	movs	r1, #0
 80031cc:	5499      	strb	r1, [r3, r2]
 80031ce:	687b      	ldr	r3, [r7, #4]
 80031d0:	0018      	movs	r0, r3
 80031d2:	f7ff fa69 	bl	80026a8 <HAL_I2C_MspInit>
 80031d6:	687b      	ldr	r3, [r7, #4]
 80031d8:	2241      	movs	r2, #65	@ 0x41
 80031da:	2124      	movs	r1, #36	@ 0x24
 80031dc:	5499      	strb	r1, [r3, r2]
 80031de:	687b      	ldr	r3, [r7, #4]
 80031e0:	681b      	ldr	r3, [r3, #0]
 80031e2:	681a      	ldr	r2, [r3, #0]
 80031e4:	687b      	ldr	r3, [r7, #4]
 80031e6:	681b      	ldr	r3, [r3, #0]
 80031e8:	2101      	movs	r1, #1
 80031ea:	438a      	bics	r2, r1
 80031ec:	601a      	str	r2, [r3, #0]
 80031ee:	687b      	ldr	r3, [r7, #4]
 80031f0:	685a      	ldr	r2, [r3, #4]
 80031f2:	687b      	ldr	r3, [r7, #4]
 80031f4:	681b      	ldr	r3, [r3, #0]
 80031f6:	493b      	ldr	r1, [pc, #236]	@ (80032e4 <HAL_I2C_Init+0x13c>)
 80031f8:	400a      	ands	r2, r1
 80031fa:	611a      	str	r2, [r3, #16]
 80031fc:	687b      	ldr	r3, [r7, #4]
 80031fe:	681b      	ldr	r3, [r3, #0]
 8003200:	689a      	ldr	r2, [r3, #8]
 8003202:	687b      	ldr	r3, [r7, #4]
 8003204:	681b      	ldr	r3, [r3, #0]
 8003206:	4938      	ldr	r1, [pc, #224]	@ (80032e8 <HAL_I2C_Init+0x140>)
 8003208:	400a      	ands	r2, r1
 800320a:	609a      	str	r2, [r3, #8]
 800320c:	687b      	ldr	r3, [r7, #4]
 800320e:	68db      	ldr	r3, [r3, #12]
 8003210:	2b01      	cmp	r3, #1
 8003212:	d108      	bne.n	8003226 <HAL_I2C_Init+0x7e>
 8003214:	687b      	ldr	r3, [r7, #4]
 8003216:	689a      	ldr	r2, [r3, #8]
 8003218:	687b      	ldr	r3, [r7, #4]
 800321a:	681b      	ldr	r3, [r3, #0]
 800321c:	2180      	movs	r1, #128	@ 0x80
 800321e:	0209      	lsls	r1, r1, #8
 8003220:	430a      	orrs	r2, r1
 8003222:	609a      	str	r2, [r3, #8]
 8003224:	e007      	b.n	8003236 <HAL_I2C_Init+0x8e>
 8003226:	687b      	ldr	r3, [r7, #4]
 8003228:	689a      	ldr	r2, [r3, #8]
 800322a:	687b      	ldr	r3, [r7, #4]
 800322c:	681b      	ldr	r3, [r3, #0]
 800322e:	2184      	movs	r1, #132	@ 0x84
 8003230:	0209      	lsls	r1, r1, #8
 8003232:	430a      	orrs	r2, r1
 8003234:	609a      	str	r2, [r3, #8]
 8003236:	687b      	ldr	r3, [r7, #4]
 8003238:	68db      	ldr	r3, [r3, #12]
 800323a:	2b02      	cmp	r3, #2
 800323c:	d109      	bne.n	8003252 <HAL_I2C_Init+0xaa>
 800323e:	687b      	ldr	r3, [r7, #4]
 8003240:	681b      	ldr	r3, [r3, #0]
 8003242:	685a      	ldr	r2, [r3, #4]
 8003244:	687b      	ldr	r3, [r7, #4]
 8003246:	681b      	ldr	r3, [r3, #0]
 8003248:	2180      	movs	r1, #128	@ 0x80
 800324a:	0109      	lsls	r1, r1, #4
 800324c:	430a      	orrs	r2, r1
 800324e:	605a      	str	r2, [r3, #4]
 8003250:	e007      	b.n	8003262 <HAL_I2C_Init+0xba>
 8003252:	687b      	ldr	r3, [r7, #4]
 8003254:	681b      	ldr	r3, [r3, #0]
 8003256:	685a      	ldr	r2, [r3, #4]
 8003258:	687b      	ldr	r3, [r7, #4]
 800325a:	681b      	ldr	r3, [r3, #0]
 800325c:	4923      	ldr	r1, [pc, #140]	@ (80032ec <HAL_I2C_Init+0x144>)
 800325e:	400a      	ands	r2, r1
 8003260:	605a      	str	r2, [r3, #4]
 8003262:	687b      	ldr	r3, [r7, #4]
 8003264:	681b      	ldr	r3, [r3, #0]
 8003266:	685a      	ldr	r2, [r3, #4]
 8003268:	687b      	ldr	r3, [r7, #4]
 800326a:	681b      	ldr	r3, [r3, #0]
 800326c:	4920      	ldr	r1, [pc, #128]	@ (80032f0 <HAL_I2C_Init+0x148>)
 800326e:	430a      	orrs	r2, r1
 8003270:	605a      	str	r2, [r3, #4]
 8003272:	687b      	ldr	r3, [r7, #4]
 8003274:	681b      	ldr	r3, [r3, #0]
 8003276:	68da      	ldr	r2, [r3, #12]
 8003278:	687b      	ldr	r3, [r7, #4]
 800327a:	681b      	ldr	r3, [r3, #0]
 800327c:	491a      	ldr	r1, [pc, #104]	@ (80032e8 <HAL_I2C_Init+0x140>)
 800327e:	400a      	ands	r2, r1
 8003280:	60da      	str	r2, [r3, #12]
 8003282:	687b      	ldr	r3, [r7, #4]
 8003284:	691a      	ldr	r2, [r3, #16]
 8003286:	687b      	ldr	r3, [r7, #4]
 8003288:	695b      	ldr	r3, [r3, #20]
 800328a:	431a      	orrs	r2, r3
 800328c:	0011      	movs	r1, r2
 800328e:	687b      	ldr	r3, [r7, #4]
 8003290:	699b      	ldr	r3, [r3, #24]
 8003292:	021a      	lsls	r2, r3, #8
 8003294:	687b      	ldr	r3, [r7, #4]
 8003296:	681b      	ldr	r3, [r3, #0]
 8003298:	430a      	orrs	r2, r1
 800329a:	60da      	str	r2, [r3, #12]
 800329c:	687b      	ldr	r3, [r7, #4]
 800329e:	69d9      	ldr	r1, [r3, #28]
 80032a0:	687b      	ldr	r3, [r7, #4]
 80032a2:	6a1a      	ldr	r2, [r3, #32]
 80032a4:	687b      	ldr	r3, [r7, #4]
 80032a6:	681b      	ldr	r3, [r3, #0]
 80032a8:	430a      	orrs	r2, r1
 80032aa:	601a      	str	r2, [r3, #0]
 80032ac:	687b      	ldr	r3, [r7, #4]
 80032ae:	681b      	ldr	r3, [r3, #0]
 80032b0:	681a      	ldr	r2, [r3, #0]
 80032b2:	687b      	ldr	r3, [r7, #4]
 80032b4:	681b      	ldr	r3, [r3, #0]
 80032b6:	2101      	movs	r1, #1
 80032b8:	430a      	orrs	r2, r1
 80032ba:	601a      	str	r2, [r3, #0]
 80032bc:	687b      	ldr	r3, [r7, #4]
 80032be:	2200      	movs	r2, #0
 80032c0:	645a      	str	r2, [r3, #68]	@ 0x44
 80032c2:	687b      	ldr	r3, [r7, #4]
 80032c4:	2241      	movs	r2, #65	@ 0x41
 80032c6:	2120      	movs	r1, #32
 80032c8:	5499      	strb	r1, [r3, r2]
 80032ca:	687b      	ldr	r3, [r7, #4]
 80032cc:	2200      	movs	r2, #0
 80032ce:	631a      	str	r2, [r3, #48]	@ 0x30
 80032d0:	687b      	ldr	r3, [r7, #4]
 80032d2:	2242      	movs	r2, #66	@ 0x42
 80032d4:	2100      	movs	r1, #0
 80032d6:	5499      	strb	r1, [r3, r2]
 80032d8:	2300      	movs	r3, #0
 80032da:	0018      	movs	r0, r3
 80032dc:	46bd      	mov	sp, r7
 80032de:	b002      	add	sp, #8
 80032e0:	bd80      	pop	{r7, pc}
 80032e2:	46c0      	nop			@ (mov r8, r8)
 80032e4:	f0ffffff 	.word	0xf0ffffff
 80032e8:	ffff7fff 	.word	0xffff7fff
 80032ec:	fffff7ff 	.word	0xfffff7ff
 80032f0:	02008000 	.word	0x02008000

080032f4 <HAL_I2C_Master_Transmit>:
 80032f4:	b590      	push	{r4, r7, lr}
 80032f6:	b089      	sub	sp, #36	@ 0x24
 80032f8:	af02      	add	r7, sp, #8
 80032fa:	60f8      	str	r0, [r7, #12]
 80032fc:	0008      	movs	r0, r1
 80032fe:	607a      	str	r2, [r7, #4]
 8003300:	0019      	movs	r1, r3
 8003302:	230a      	movs	r3, #10
 8003304:	18fb      	adds	r3, r7, r3
 8003306:	1c02      	adds	r2, r0, #0
 8003308:	801a      	strh	r2, [r3, #0]
 800330a:	2308      	movs	r3, #8
 800330c:	18fb      	adds	r3, r7, r3
 800330e:	1c0a      	adds	r2, r1, #0
 8003310:	801a      	strh	r2, [r3, #0]
 8003312:	68fb      	ldr	r3, [r7, #12]
 8003314:	2241      	movs	r2, #65	@ 0x41
 8003316:	5c9b      	ldrb	r3, [r3, r2]
 8003318:	b2db      	uxtb	r3, r3
 800331a:	2b20      	cmp	r3, #32
 800331c:	d000      	beq.n	8003320 <HAL_I2C_Master_Transmit+0x2c>
 800331e:	e10a      	b.n	8003536 <HAL_I2C_Master_Transmit+0x242>
 8003320:	68fb      	ldr	r3, [r7, #12]
 8003322:	2240      	movs	r2, #64	@ 0x40
 8003324:	5c9b      	ldrb	r3, [r3, r2]
 8003326:	2b01      	cmp	r3, #1
 8003328:	d101      	bne.n	800332e <HAL_I2C_Master_Transmit+0x3a>
 800332a:	2302      	movs	r3, #2
 800332c:	e104      	b.n	8003538 <HAL_I2C_Master_Transmit+0x244>
 800332e:	68fb      	ldr	r3, [r7, #12]
 8003330:	2240      	movs	r2, #64	@ 0x40
 8003332:	2101      	movs	r1, #1
 8003334:	5499      	strb	r1, [r3, r2]
 8003336:	f7ff fc99 	bl	8002c6c <HAL_GetTick>
 800333a:	0003      	movs	r3, r0
 800333c:	613b      	str	r3, [r7, #16]
 800333e:	2380      	movs	r3, #128	@ 0x80
 8003340:	0219      	lsls	r1, r3, #8
 8003342:	68f8      	ldr	r0, [r7, #12]
 8003344:	693b      	ldr	r3, [r7, #16]
 8003346:	9300      	str	r3, [sp, #0]
 8003348:	2319      	movs	r3, #25
 800334a:	2201      	movs	r2, #1
 800334c:	f000 fa26 	bl	800379c <I2C_WaitOnFlagUntilTimeout>
 8003350:	1e03      	subs	r3, r0, #0
 8003352:	d001      	beq.n	8003358 <HAL_I2C_Master_Transmit+0x64>
 8003354:	2301      	movs	r3, #1
 8003356:	e0ef      	b.n	8003538 <HAL_I2C_Master_Transmit+0x244>
 8003358:	68fb      	ldr	r3, [r7, #12]
 800335a:	2241      	movs	r2, #65	@ 0x41
 800335c:	2121      	movs	r1, #33	@ 0x21
 800335e:	5499      	strb	r1, [r3, r2]
 8003360:	68fb      	ldr	r3, [r7, #12]
 8003362:	2242      	movs	r2, #66	@ 0x42
 8003364:	2110      	movs	r1, #16
 8003366:	5499      	strb	r1, [r3, r2]
 8003368:	68fb      	ldr	r3, [r7, #12]
 800336a:	2200      	movs	r2, #0
 800336c:	645a      	str	r2, [r3, #68]	@ 0x44
 800336e:	68fb      	ldr	r3, [r7, #12]
 8003370:	687a      	ldr	r2, [r7, #4]
 8003372:	625a      	str	r2, [r3, #36]	@ 0x24
 8003374:	68fb      	ldr	r3, [r7, #12]
 8003376:	2208      	movs	r2, #8
 8003378:	18ba      	adds	r2, r7, r2
 800337a:	8812      	ldrh	r2, [r2, #0]
 800337c:	855a      	strh	r2, [r3, #42]	@ 0x2a
 800337e:	68fb      	ldr	r3, [r7, #12]
 8003380:	2200      	movs	r2, #0
 8003382:	635a      	str	r2, [r3, #52]	@ 0x34
 8003384:	68fb      	ldr	r3, [r7, #12]
 8003386:	8d5b      	ldrh	r3, [r3, #42]	@ 0x2a
 8003388:	b29b      	uxth	r3, r3
 800338a:	2bff      	cmp	r3, #255	@ 0xff
 800338c:	d906      	bls.n	800339c <HAL_I2C_Master_Transmit+0xa8>
 800338e:	68fb      	ldr	r3, [r7, #12]
 8003390:	22ff      	movs	r2, #255	@ 0xff
 8003392:	851a      	strh	r2, [r3, #40]	@ 0x28
 8003394:	2380      	movs	r3, #128	@ 0x80
 8003396:	045b      	lsls	r3, r3, #17
 8003398:	617b      	str	r3, [r7, #20]
 800339a:	e007      	b.n	80033ac <HAL_I2C_Master_Transmit+0xb8>
 800339c:	68fb      	ldr	r3, [r7, #12]
 800339e:	8d5b      	ldrh	r3, [r3, #42]	@ 0x2a
 80033a0:	b29a      	uxth	r2, r3
 80033a2:	68fb      	ldr	r3, [r7, #12]
 80033a4:	851a      	strh	r2, [r3, #40]	@ 0x28
 80033a6:	2380      	movs	r3, #128	@ 0x80
 80033a8:	049b      	lsls	r3, r3, #18
 80033aa:	617b      	str	r3, [r7, #20]
 80033ac:	68fb      	ldr	r3, [r7, #12]
 80033ae:	8d1b      	ldrh	r3, [r3, #40]	@ 0x28
 80033b0:	2b00      	cmp	r3, #0
 80033b2:	d027      	beq.n	8003404 <HAL_I2C_Master_Transmit+0x110>
 80033b4:	68fb      	ldr	r3, [r7, #12]
 80033b6:	6a5b      	ldr	r3, [r3, #36]	@ 0x24
 80033b8:	781a      	ldrb	r2, [r3, #0]
 80033ba:	68fb      	ldr	r3, [r7, #12]
 80033bc:	681b      	ldr	r3, [r3, #0]
 80033be:	629a      	str	r2, [r3, #40]	@ 0x28
 80033c0:	68fb      	ldr	r3, [r7, #12]
 80033c2:	6a5b      	ldr	r3, [r3, #36]	@ 0x24
 80033c4:	1c5a      	adds	r2, r3, #1
 80033c6:	68fb      	ldr	r3, [r7, #12]
 80033c8:	625a      	str	r2, [r3, #36]	@ 0x24
 80033ca:	68fb      	ldr	r3, [r7, #12]
 80033cc:	8d5b      	ldrh	r3, [r3, #42]	@ 0x2a
 80033ce:	b29b      	uxth	r3, r3
 80033d0:	3b01      	subs	r3, #1
 80033d2:	b29a      	uxth	r2, r3
 80033d4:	68fb      	ldr	r3, [r7, #12]
 80033d6:	855a      	strh	r2, [r3, #42]	@ 0x2a
 80033d8:	68fb      	ldr	r3, [r7, #12]
 80033da:	8d1b      	ldrh	r3, [r3, #40]	@ 0x28
 80033dc:	3b01      	subs	r3, #1
 80033de:	b29a      	uxth	r2, r3
 80033e0:	68fb      	ldr	r3, [r7, #12]
 80033e2:	851a      	strh	r2, [r3, #40]	@ 0x28
 80033e4:	68fb      	ldr	r3, [r7, #12]
 80033e6:	8d1b      	ldrh	r3, [r3, #40]	@ 0x28
 80033e8:	b2db      	uxtb	r3, r3
 80033ea:	3301      	adds	r3, #1
 80033ec:	b2da      	uxtb	r2, r3
 80033ee:	697c      	ldr	r4, [r7, #20]
 80033f0:	230a      	movs	r3, #10
 80033f2:	18fb      	adds	r3, r7, r3
 80033f4:	8819      	ldrh	r1, [r3, #0]
 80033f6:	68f8      	ldr	r0, [r7, #12]
 80033f8:	4b51      	ldr	r3, [pc, #324]	@ (8003540 <HAL_I2C_Master_Transmit+0x24c>)
 80033fa:	9300      	str	r3, [sp, #0]
 80033fc:	0023      	movs	r3, r4
 80033fe:	f000 fc45 	bl	8003c8c <I2C_TransferConfig>
 8003402:	e06f      	b.n	80034e4 <HAL_I2C_Master_Transmit+0x1f0>
 8003404:	68fb      	ldr	r3, [r7, #12]
 8003406:	8d1b      	ldrh	r3, [r3, #40]	@ 0x28
 8003408:	b2da      	uxtb	r2, r3
 800340a:	697c      	ldr	r4, [r7, #20]
 800340c:	230a      	movs	r3, #10
 800340e:	18fb      	adds	r3, r7, r3
 8003410:	8819      	ldrh	r1, [r3, #0]
 8003412:	68f8      	ldr	r0, [r7, #12]
 8003414:	4b4a      	ldr	r3, [pc, #296]	@ (8003540 <HAL_I2C_Master_Transmit+0x24c>)
 8003416:	9300      	str	r3, [sp, #0]
 8003418:	0023      	movs	r3, r4
 800341a:	f000 fc37 	bl	8003c8c <I2C_TransferConfig>
 800341e:	e061      	b.n	80034e4 <HAL_I2C_Master_Transmit+0x1f0>
 8003420:	693a      	ldr	r2, [r7, #16]
 8003422:	6ab9      	ldr	r1, [r7, #40]	@ 0x28
 8003424:	68fb      	ldr	r3, [r7, #12]
 8003426:	0018      	movs	r0, r3
 8003428:	f000 fa10 	bl	800384c <I2C_WaitOnTXISFlagUntilTimeout>
 800342c:	1e03      	subs	r3, r0, #0
 800342e:	d001      	beq.n	8003434 <HAL_I2C_Master_Transmit+0x140>
 8003430:	2301      	movs	r3, #1
 8003432:	e081      	b.n	8003538 <HAL_I2C_Master_Transmit+0x244>
 8003434:	68fb      	ldr	r3, [r7, #12]
 8003436:	6a5b      	ldr	r3, [r3, #36]	@ 0x24
 8003438:	781a      	ldrb	r2, [r3, #0]
 800343a:	68fb      	ldr	r3, [r7, #12]
 800343c:	681b      	ldr	r3, [r3, #0]
 800343e:	629a      	str	r2, [r3, #40]	@ 0x28
 8003440:	68fb      	ldr	r3, [r7, #12]
 8003442:	6a5b      	ldr	r3, [r3, #36]	@ 0x24
 8003444:	1c5a      	adds	r2, r3, #1
 8003446:	68fb      	ldr	r3, [r7, #12]
 8003448:	625a      	str	r2, [r3, #36]	@ 0x24
 800344a:	68fb      	ldr	r3, [r7, #12]
 800344c:	8d5b      	ldrh	r3, [r3, #42]	@ 0x2a
 800344e:	b29b      	uxth	r3, r3
 8003450:	3b01      	subs	r3, #1
 8003452:	b29a      	uxth	r2, r3
 8003454:	68fb      	ldr	r3, [r7, #12]
 8003456:	855a      	strh	r2, [r3, #42]	@ 0x2a
 8003458:	68fb      	ldr	r3, [r7, #12]
 800345a:	8d1b      	ldrh	r3, [r3, #40]	@ 0x28
 800345c:	3b01      	subs	r3, #1
 800345e:	b29a      	uxth	r2, r3
 8003460:	68fb      	ldr	r3, [r7, #12]
 8003462:	851a      	strh	r2, [r3, #40]	@ 0x28
 8003464:	68fb      	ldr	r3, [r7, #12]
 8003466:	8d5b      	ldrh	r3, [r3, #42]	@ 0x2a
 8003468:	b29b      	uxth	r3, r3
 800346a:	2b00      	cmp	r3, #0
 800346c:	d03a      	beq.n	80034e4 <HAL_I2C_Master_Transmit+0x1f0>
 800346e:	68fb      	ldr	r3, [r7, #12]
 8003470:	8d1b      	ldrh	r3, [r3, #40]	@ 0x28
 8003472:	2b00      	cmp	r3, #0
 8003474:	d136      	bne.n	80034e4 <HAL_I2C_Master_Transmit+0x1f0>
 8003476:	6aba      	ldr	r2, [r7, #40]	@ 0x28
 8003478:	68f8      	ldr	r0, [r7, #12]
 800347a:	693b      	ldr	r3, [r7, #16]
 800347c:	9300      	str	r3, [sp, #0]
 800347e:	0013      	movs	r3, r2
 8003480:	2200      	movs	r2, #0
 8003482:	2180      	movs	r1, #128	@ 0x80
 8003484:	f000 f98a 	bl	800379c <I2C_WaitOnFlagUntilTimeout>
 8003488:	1e03      	subs	r3, r0, #0
 800348a:	d001      	beq.n	8003490 <HAL_I2C_Master_Transmit+0x19c>
 800348c:	2301      	movs	r3, #1
 800348e:	e053      	b.n	8003538 <HAL_I2C_Master_Transmit+0x244>
 8003490:	68fb      	ldr	r3, [r7, #12]
 8003492:	8d5b      	ldrh	r3, [r3, #42]	@ 0x2a
 8003494:	b29b      	uxth	r3, r3
 8003496:	2bff      	cmp	r3, #255	@ 0xff
 8003498:	d911      	bls.n	80034be <HAL_I2C_Master_Transmit+0x1ca>
 800349a:	68fb      	ldr	r3, [r7, #12]
 800349c:	22ff      	movs	r2, #255	@ 0xff
 800349e:	851a      	strh	r2, [r3, #40]	@ 0x28
 80034a0:	68fb      	ldr	r3, [r7, #12]
 80034a2:	8d1b      	ldrh	r3, [r3, #40]	@ 0x28
 80034a4:	b2da      	uxtb	r2, r3
 80034a6:	2380      	movs	r3, #128	@ 0x80
 80034a8:	045c      	lsls	r4, r3, #17
 80034aa:	230a      	movs	r3, #10
 80034ac:	18fb      	adds	r3, r7, r3
 80034ae:	8819      	ldrh	r1, [r3, #0]
 80034b0:	68f8      	ldr	r0, [r7, #12]
 80034b2:	2300      	movs	r3, #0
 80034b4:	9300      	str	r3, [sp, #0]
 80034b6:	0023      	movs	r3, r4
 80034b8:	f000 fbe8 	bl	8003c8c <I2C_TransferConfig>
 80034bc:	e012      	b.n	80034e4 <HAL_I2C_Master_Transmit+0x1f0>
 80034be:	68fb      	ldr	r3, [r7, #12]
 80034c0:	8d5b      	ldrh	r3, [r3, #42]	@ 0x2a
 80034c2:	b29a      	uxth	r2, r3
 80034c4:	68fb      	ldr	r3, [r7, #12]
 80034c6:	851a      	strh	r2, [r3, #40]	@ 0x28
 80034c8:	68fb      	ldr	r3, [r7, #12]
 80034ca:	8d1b      	ldrh	r3, [r3, #40]	@ 0x28
 80034cc:	b2da      	uxtb	r2, r3
 80034ce:	2380      	movs	r3, #128	@ 0x80
 80034d0:	049c      	lsls	r4, r3, #18
 80034d2:	230a      	movs	r3, #10
 80034d4:	18fb      	adds	r3, r7, r3
 80034d6:	8819      	ldrh	r1, [r3, #0]
 80034d8:	68f8      	ldr	r0, [r7, #12]
 80034da:	2300      	movs	r3, #0
 80034dc:	9300      	str	r3, [sp, #0]
 80034de:	0023      	movs	r3, r4
 80034e0:	f000 fbd4 	bl	8003c8c <I2C_TransferConfig>
 80034e4:	68fb      	ldr	r3, [r7, #12]
 80034e6:	8d5b      	ldrh	r3, [r3, #42]	@ 0x2a
 80034e8:	b29b      	uxth	r3, r3
 80034ea:	2b00      	cmp	r3, #0
 80034ec:	d198      	bne.n	8003420 <HAL_I2C_Master_Transmit+0x12c>
 80034ee:	693a      	ldr	r2, [r7, #16]
 80034f0:	6ab9      	ldr	r1, [r7, #40]	@ 0x28
 80034f2:	68fb      	ldr	r3, [r7, #12]
 80034f4:	0018      	movs	r0, r3
 80034f6:	f000 f9ef 	bl	80038d8 <I2C_WaitOnSTOPFlagUntilTimeout>
 80034fa:	1e03      	subs	r3, r0, #0
 80034fc:	d001      	beq.n	8003502 <HAL_I2C_Master_Transmit+0x20e>
 80034fe:	2301      	movs	r3, #1
 8003500:	e01a      	b.n	8003538 <HAL_I2C_Master_Transmit+0x244>
 8003502:	68fb      	ldr	r3, [r7, #12]
 8003504:	681b      	ldr	r3, [r3, #0]
 8003506:	2220      	movs	r2, #32
 8003508:	61da      	str	r2, [r3, #28]
 800350a:	68fb      	ldr	r3, [r7, #12]
 800350c:	681b      	ldr	r3, [r3, #0]
 800350e:	685a      	ldr	r2, [r3, #4]
 8003510:	68fb      	ldr	r3, [r7, #12]
 8003512:	681b      	ldr	r3, [r3, #0]
 8003514:	490b      	ldr	r1, [pc, #44]	@ (8003544 <HAL_I2C_Master_Transmit+0x250>)
 8003516:	400a      	ands	r2, r1
 8003518:	605a      	str	r2, [r3, #4]
 800351a:	68fb      	ldr	r3, [r7, #12]
 800351c:	2241      	movs	r2, #65	@ 0x41
 800351e:	2120      	movs	r1, #32
 8003520:	5499      	strb	r1, [r3, r2]
 8003522:	68fb      	ldr	r3, [r7, #12]
 8003524:	2242      	movs	r2, #66	@ 0x42
 8003526:	2100      	movs	r1, #0
 8003528:	5499      	strb	r1, [r3, r2]
 800352a:	68fb      	ldr	r3, [r7, #12]
 800352c:	2240      	movs	r2, #64	@ 0x40
 800352e:	2100      	movs	r1, #0
 8003530:	5499      	strb	r1, [r3, r2]
 8003532:	2300      	movs	r3, #0
 8003534:	e000      	b.n	8003538 <HAL_I2C_Master_Transmit+0x244>
 8003536:	2302      	movs	r3, #2
 8003538:	0018      	movs	r0, r3
 800353a:	46bd      	mov	sp, r7
 800353c:	b007      	add	sp, #28
 800353e:	bd90      	pop	{r4, r7, pc}
 8003540:	80002000 	.word	0x80002000
 8003544:	fe00e800 	.word	0xfe00e800

08003548 <HAL_I2C_Master_Receive>:
 8003548:	b590      	push	{r4, r7, lr}
 800354a:	b089      	sub	sp, #36	@ 0x24
 800354c:	af02      	add	r7, sp, #8
 800354e:	60f8      	str	r0, [r7, #12]
 8003550:	0008      	movs	r0, r1
 8003552:	607a      	str	r2, [r7, #4]
 8003554:	0019      	movs	r1, r3
 8003556:	230a      	movs	r3, #10
 8003558:	18fb      	adds	r3, r7, r3
 800355a:	1c02      	adds	r2, r0, #0
 800355c:	801a      	strh	r2, [r3, #0]
 800355e:	2308      	movs	r3, #8
 8003560:	18fb      	adds	r3, r7, r3
 8003562:	1c0a      	adds	r2, r1, #0
 8003564:	801a      	strh	r2, [r3, #0]
 8003566:	68fb      	ldr	r3, [r7, #12]
 8003568:	2241      	movs	r2, #65	@ 0x41
 800356a:	5c9b      	ldrb	r3, [r3, r2]
 800356c:	b2db      	uxtb	r3, r3
 800356e:	2b20      	cmp	r3, #32
 8003570:	d000      	beq.n	8003574 <HAL_I2C_Master_Receive+0x2c>
 8003572:	e0e8      	b.n	8003746 <HAL_I2C_Master_Receive+0x1fe>
 8003574:	68fb      	ldr	r3, [r7, #12]
 8003576:	2240      	movs	r2, #64	@ 0x40
 8003578:	5c9b      	ldrb	r3, [r3, r2]
 800357a:	2b01      	cmp	r3, #1
 800357c:	d101      	bne.n	8003582 <HAL_I2C_Master_Receive+0x3a>
 800357e:	2302      	movs	r3, #2
 8003580:	e0e2      	b.n	8003748 <HAL_I2C_Master_Receive+0x200>
 8003582:	68fb      	ldr	r3, [r7, #12]
 8003584:	2240      	movs	r2, #64	@ 0x40
 8003586:	2101      	movs	r1, #1
 8003588:	5499      	strb	r1, [r3, r2]
 800358a:	f7ff fb6f 	bl	8002c6c <HAL_GetTick>
 800358e:	0003      	movs	r3, r0
 8003590:	617b      	str	r3, [r7, #20]
 8003592:	2380      	movs	r3, #128	@ 0x80
 8003594:	0219      	lsls	r1, r3, #8
 8003596:	68f8      	ldr	r0, [r7, #12]
 8003598:	697b      	ldr	r3, [r7, #20]
 800359a:	9300      	str	r3, [sp, #0]
 800359c:	2319      	movs	r3, #25
 800359e:	2201      	movs	r2, #1
 80035a0:	f000 f8fc 	bl	800379c <I2C_WaitOnFlagUntilTimeout>
 80035a4:	1e03      	subs	r3, r0, #0
 80035a6:	d001      	beq.n	80035ac <HAL_I2C_Master_Receive+0x64>
 80035a8:	2301      	movs	r3, #1
 80035aa:	e0cd      	b.n	8003748 <HAL_I2C_Master_Receive+0x200>
 80035ac:	68fb      	ldr	r3, [r7, #12]
 80035ae:	2241      	movs	r2, #65	@ 0x41
 80035b0:	2122      	movs	r1, #34	@ 0x22
 80035b2:	5499      	strb	r1, [r3, r2]
 80035b4:	68fb      	ldr	r3, [r7, #12]
 80035b6:	2242      	movs	r2, #66	@ 0x42
 80035b8:	2110      	movs	r1, #16
 80035ba:	5499      	strb	r1, [r3, r2]
 80035bc:	68fb      	ldr	r3, [r7, #12]
 80035be:	2200      	movs	r2, #0
 80035c0:	645a      	str	r2, [r3, #68]	@ 0x44
 80035c2:	68fb      	ldr	r3, [r7, #12]
 80035c4:	687a      	ldr	r2, [r7, #4]
 80035c6:	625a      	str	r2, [r3, #36]	@ 0x24
 80035c8:	68fb      	ldr	r3, [r7, #12]
 80035ca:	2208      	movs	r2, #8
 80035cc:	18ba      	adds	r2, r7, r2
 80035ce:	8812      	ldrh	r2, [r2, #0]
 80035d0:	855a      	strh	r2, [r3, #42]	@ 0x2a
 80035d2:	68fb      	ldr	r3, [r7, #12]
 80035d4:	2200      	movs	r2, #0
 80035d6:	635a      	str	r2, [r3, #52]	@ 0x34
 80035d8:	68fb      	ldr	r3, [r7, #12]
 80035da:	8d5b      	ldrh	r3, [r3, #42]	@ 0x2a
 80035dc:	b29b      	uxth	r3, r3
 80035de:	2bff      	cmp	r3, #255	@ 0xff
 80035e0:	d911      	bls.n	8003606 <HAL_I2C_Master_Receive+0xbe>
 80035e2:	68fb      	ldr	r3, [r7, #12]
 80035e4:	22ff      	movs	r2, #255	@ 0xff
 80035e6:	851a      	strh	r2, [r3, #40]	@ 0x28
 80035e8:	68fb      	ldr	r3, [r7, #12]
 80035ea:	8d1b      	ldrh	r3, [r3, #40]	@ 0x28
 80035ec:	b2da      	uxtb	r2, r3
 80035ee:	2380      	movs	r3, #128	@ 0x80
 80035f0:	045c      	lsls	r4, r3, #17
 80035f2:	230a      	movs	r3, #10
 80035f4:	18fb      	adds	r3, r7, r3
 80035f6:	8819      	ldrh	r1, [r3, #0]
 80035f8:	68f8      	ldr	r0, [r7, #12]
 80035fa:	4b55      	ldr	r3, [pc, #340]	@ (8003750 <HAL_I2C_Master_Receive+0x208>)
 80035fc:	9300      	str	r3, [sp, #0]
 80035fe:	0023      	movs	r3, r4
 8003600:	f000 fb44 	bl	8003c8c <I2C_TransferConfig>
 8003604:	e076      	b.n	80036f4 <HAL_I2C_Master_Receive+0x1ac>
 8003606:	68fb      	ldr	r3, [r7, #12]
 8003608:	8d5b      	ldrh	r3, [r3, #42]	@ 0x2a
 800360a:	b29a      	uxth	r2, r3
 800360c:	68fb      	ldr	r3, [r7, #12]
 800360e:	851a      	strh	r2, [r3, #40]	@ 0x28
 8003610:	68fb      	ldr	r3, [r7, #12]
 8003612:	8d1b      	ldrh	r3, [r3, #40]	@ 0x28
 8003614:	b2da      	uxtb	r2, r3
 8003616:	2380      	movs	r3, #128	@ 0x80
 8003618:	049c      	lsls	r4, r3, #18
 800361a:	230a      	movs	r3, #10
 800361c:	18fb      	adds	r3, r7, r3
 800361e:	8819      	ldrh	r1, [r3, #0]
 8003620:	68f8      	ldr	r0, [r7, #12]
 8003622:	4b4b      	ldr	r3, [pc, #300]	@ (8003750 <HAL_I2C_Master_Receive+0x208>)
 8003624:	9300      	str	r3, [sp, #0]
 8003626:	0023      	movs	r3, r4
 8003628:	f000 fb30 	bl	8003c8c <I2C_TransferConfig>
 800362c:	e062      	b.n	80036f4 <HAL_I2C_Master_Receive+0x1ac>
 800362e:	697a      	ldr	r2, [r7, #20]
 8003630:	6ab9      	ldr	r1, [r7, #40]	@ 0x28
 8003632:	68fb      	ldr	r3, [r7, #12]
 8003634:	0018      	movs	r0, r3
 8003636:	f000 f993 	bl	8003960 <I2C_WaitOnRXNEFlagUntilTimeout>
 800363a:	1e03      	subs	r3, r0, #0
 800363c:	d001      	beq.n	8003642 <HAL_I2C_Master_Receive+0xfa>
 800363e:	2301      	movs	r3, #1
 8003640:	e082      	b.n	8003748 <HAL_I2C_Master_Receive+0x200>
 8003642:	68fb      	ldr	r3, [r7, #12]
 8003644:	681b      	ldr	r3, [r3, #0]
 8003646:	6a5a      	ldr	r2, [r3, #36]	@ 0x24
 8003648:	68fb      	ldr	r3, [r7, #12]
 800364a:	6a5b      	ldr	r3, [r3, #36]	@ 0x24
 800364c:	b2d2      	uxtb	r2, r2
 800364e:	701a      	strb	r2, [r3, #0]
 8003650:	68fb      	ldr	r3, [r7, #12]
 8003652:	6a5b      	ldr	r3, [r3, #36]	@ 0x24
 8003654:	1c5a      	adds	r2, r3, #1
 8003656:	68fb      	ldr	r3, [r7, #12]
 8003658:	625a      	str	r2, [r3, #36]	@ 0x24
 800365a:	68fb      	ldr	r3, [r7, #12]
 800365c:	8d1b      	ldrh	r3, [r3, #40]	@ 0x28
 800365e:	3b01      	subs	r3, #1
 8003660:	b29a      	uxth	r2, r3
 8003662:	68fb      	ldr	r3, [r7, #12]
 8003664:	851a      	strh	r2, [r3, #40]	@ 0x28
 8003666:	68fb      	ldr	r3, [r7, #12]
 8003668:	8d5b      	ldrh	r3, [r3, #42]	@ 0x2a
 800366a:	b29b      	uxth	r3, r3
 800366c:	3b01      	subs	r3, #1
 800366e:	b29a      	uxth	r2, r3
 8003670:	68fb      	ldr	r3, [r7, #12]
 8003672:	855a      	strh	r2, [r3, #42]	@ 0x2a
 8003674:	68fb      	ldr	r3, [r7, #12]
 8003676:	8d5b      	ldrh	r3, [r3, #42]	@ 0x2a
 8003678:	b29b      	uxth	r3, r3
 800367a:	2b00      	cmp	r3, #0
 800367c:	d03a      	beq.n	80036f4 <HAL_I2C_Master_Receive+0x1ac>
 800367e:	68fb      	ldr	r3, [r7, #12]
 8003680:	8d1b      	ldrh	r3, [r3, #40]	@ 0x28
 8003682:	2b00      	cmp	r3, #0
 8003684:	d136      	bne.n	80036f4 <HAL_I2C_Master_Receive+0x1ac>
 8003686:	6aba      	ldr	r2, [r7, #40]	@ 0x28
 8003688:	68f8      	ldr	r0, [r7, #12]
 800368a:	697b      	ldr	r3, [r7, #20]
 800368c:	9300      	str	r3, [sp, #0]
 800368e:	0013      	movs	r3, r2
 8003690:	2200      	movs	r2, #0
 8003692:	2180      	movs	r1, #128	@ 0x80
 8003694:	f000 f882 	bl	800379c <I2C_WaitOnFlagUntilTimeout>
 8003698:	1e03      	subs	r3, r0, #0
 800369a:	d001      	beq.n	80036a0 <HAL_I2C_Master_Receive+0x158>
 800369c:	2301      	movs	r3, #1
 800369e:	e053      	b.n	8003748 <HAL_I2C_Master_Receive+0x200>
 80036a0:	68fb      	ldr	r3, [r7, #12]
 80036a2:	8d5b      	ldrh	r3, [r3, #42]	@ 0x2a
 80036a4:	b29b      	uxth	r3, r3
 80036a6:	2bff      	cmp	r3, #255	@ 0xff
 80036a8:	d911      	bls.n	80036ce <HAL_I2C_Master_Receive+0x186>
 80036aa:	68fb      	ldr	r3, [r7, #12]
 80036ac:	22ff      	movs	r2, #255	@ 0xff
 80036ae:	851a      	strh	r2, [r3, #40]	@ 0x28
 80036b0:	68fb      	ldr	r3, [r7, #12]
 80036b2:	8d1b      	ldrh	r3, [r3, #40]	@ 0x28
 80036b4:	b2da      	uxtb	r2, r3
 80036b6:	2380      	movs	r3, #128	@ 0x80
 80036b8:	045c      	lsls	r4, r3, #17
 80036ba:	230a      	movs	r3, #10
 80036bc:	18fb      	adds	r3, r7, r3
 80036be:	8819      	ldrh	r1, [r3, #0]
 80036c0:	68f8      	ldr	r0, [r7, #12]
 80036c2:	2300      	movs	r3, #0
 80036c4:	9300      	str	r3, [sp, #0]
 80036c6:	0023      	movs	r3, r4
 80036c8:	f000 fae0 	bl	8003c8c <I2C_TransferConfig>
 80036cc:	e012      	b.n	80036f4 <HAL_I2C_Master_Receive+0x1ac>
 80036ce:	68fb      	ldr	r3, [r7, #12]
 80036d0:	8d5b      	ldrh	r3, [r3, #42]	@ 0x2a
 80036d2:	b29a      	uxth	r2, r3
 80036d4:	68fb      	ldr	r3, [r7, #12]
 80036d6:	851a      	strh	r2, [r3, #40]	@ 0x28
 80036d8:	68fb      	ldr	r3, [r7, #12]
 80036da:	8d1b      	ldrh	r3, [r3, #40]	@ 0x28
 80036dc:	b2da      	uxtb	r2, r3
 80036de:	2380      	movs	r3, #128	@ 0x80
 80036e0:	049c      	lsls	r4, r3, #18
 80036e2:	230a      	movs	r3, #10
 80036e4:	18fb      	adds	r3, r7, r3
 80036e6:	8819      	ldrh	r1, [r3, #0]
 80036e8:	68f8      	ldr	r0, [r7, #12]
 80036ea:	2300      	movs	r3, #0
 80036ec:	9300      	str	r3, [sp, #0]
 80036ee:	0023      	movs	r3, r4
 80036f0:	f000 facc 	bl	8003c8c <I2C_TransferConfig>
 80036f4:	68fb      	ldr	r3, [r7, #12]
 80036f6:	8d5b      	ldrh	r3, [r3, #42]	@ 0x2a
 80036f8:	b29b      	uxth	r3, r3
 80036fa:	2b00      	cmp	r3, #0
 80036fc:	d197      	bne.n	800362e <HAL_I2C_Master_Receive+0xe6>
 80036fe:	697a      	ldr	r2, [r7, #20]
 8003700:	6ab9      	ldr	r1, [r7, #40]	@ 0x28
 8003702:	68fb      	ldr	r3, [r7, #12]
 8003704:	0018      	movs	r0, r3
 8003706:	f000 f8e7 	bl	80038d8 <I2C_WaitOnSTOPFlagUntilTimeout>
 800370a:	1e03      	subs	r3, r0, #0
 800370c:	d001      	beq.n	8003712 <HAL_I2C_Master_Receive+0x1ca>
 800370e:	2301      	movs	r3, #1
 8003710:	e01a      	b.n	8003748 <HAL_I2C_Master_Receive+0x200>
 8003712:	68fb      	ldr	r3, [r7, #12]
 8003714:	681b      	ldr	r3, [r3, #0]
 8003716:	2220      	movs	r2, #32
 8003718:	61da      	str	r2, [r3, #28]
 800371a:	68fb      	ldr	r3, [r7, #12]
 800371c:	681b      	ldr	r3, [r3, #0]
 800371e:	685a      	ldr	r2, [r3, #4]
 8003720:	68fb      	ldr	r3, [r7, #12]
 8003722:	681b      	ldr	r3, [r3, #0]
 8003724:	490b      	ldr	r1, [pc, #44]	@ (8003754 <HAL_I2C_Master_Receive+0x20c>)
 8003726:	400a      	ands	r2, r1
 8003728:	605a      	str	r2, [r3, #4]
 800372a:	68fb      	ldr	r3, [r7, #12]
 800372c:	2241      	movs	r2, #65	@ 0x41
 800372e:	2120      	movs	r1, #32
 8003730:	5499      	strb	r1, [r3, r2]
 8003732:	68fb      	ldr	r3, [r7, #12]
 8003734:	2242      	movs	r2, #66	@ 0x42
 8003736:	2100      	movs	r1, #0
 8003738:	5499      	strb	r1, [r3, r2]
 800373a:	68fb      	ldr	r3, [r7, #12]
 800373c:	2240      	movs	r2, #64	@ 0x40
 800373e:	2100      	movs	r1, #0
 8003740:	5499      	strb	r1, [r3, r2]
 8003742:	2300      	movs	r3, #0
 8003744:	e000      	b.n	8003748 <HAL_I2C_Master_Receive+0x200>
 8003746:	2302      	movs	r3, #2
 8003748:	0018      	movs	r0, r3
 800374a:	46bd      	mov	sp, r7
 800374c:	b007      	add	sp, #28
 800374e:	bd90      	pop	{r4, r7, pc}
 8003750:	80002400 	.word	0x80002400
 8003754:	fe00e800 	.word	0xfe00e800

08003758 <I2C_Flush_TXDR>:
 8003758:	b580      	push	{r7, lr}
 800375a:	b082      	sub	sp, #8
 800375c:	af00      	add	r7, sp, #0
 800375e:	6078      	str	r0, [r7, #4]
 8003760:	687b      	ldr	r3, [r7, #4]
 8003762:	681b      	ldr	r3, [r3, #0]
 8003764:	699b      	ldr	r3, [r3, #24]
 8003766:	2202      	movs	r2, #2
 8003768:	4013      	ands	r3, r2
 800376a:	2b02      	cmp	r3, #2
 800376c:	d103      	bne.n	8003776 <I2C_Flush_TXDR+0x1e>
 800376e:	687b      	ldr	r3, [r7, #4]
 8003770:	681b      	ldr	r3, [r3, #0]
 8003772:	2200      	movs	r2, #0
 8003774:	629a      	str	r2, [r3, #40]	@ 0x28
 8003776:	687b      	ldr	r3, [r7, #4]
 8003778:	681b      	ldr	r3, [r3, #0]
 800377a:	699b      	ldr	r3, [r3, #24]
 800377c:	2201      	movs	r2, #1
 800377e:	4013      	ands	r3, r2
 8003780:	2b01      	cmp	r3, #1
 8003782:	d007      	beq.n	8003794 <I2C_Flush_TXDR+0x3c>
 8003784:	687b      	ldr	r3, [r7, #4]
 8003786:	681b      	ldr	r3, [r3, #0]
 8003788:	699a      	ldr	r2, [r3, #24]
 800378a:	687b      	ldr	r3, [r7, #4]
 800378c:	681b      	ldr	r3, [r3, #0]
 800378e:	2101      	movs	r1, #1
 8003790:	430a      	orrs	r2, r1
 8003792:	619a      	str	r2, [r3, #24]
 8003794:	46c0      	nop			@ (mov r8, r8)
 8003796:	46bd      	mov	sp, r7
 8003798:	b002      	add	sp, #8
 800379a:	bd80      	pop	{r7, pc}

0800379c <I2C_WaitOnFlagUntilTimeout>:
 800379c:	b580      	push	{r7, lr}
 800379e:	b084      	sub	sp, #16
 80037a0:	af00      	add	r7, sp, #0
 80037a2:	60f8      	str	r0, [r7, #12]
 80037a4:	60b9      	str	r1, [r7, #8]
 80037a6:	603b      	str	r3, [r7, #0]
 80037a8:	1dfb      	adds	r3, r7, #7
 80037aa:	701a      	strb	r2, [r3, #0]
 80037ac:	e03a      	b.n	8003824 <I2C_WaitOnFlagUntilTimeout+0x88>
 80037ae:	69ba      	ldr	r2, [r7, #24]
 80037b0:	6839      	ldr	r1, [r7, #0]
 80037b2:	68fb      	ldr	r3, [r7, #12]
 80037b4:	0018      	movs	r0, r3
 80037b6:	f000 f971 	bl	8003a9c <I2C_IsErrorOccurred>
 80037ba:	1e03      	subs	r3, r0, #0
 80037bc:	d001      	beq.n	80037c2 <I2C_WaitOnFlagUntilTimeout+0x26>
 80037be:	2301      	movs	r3, #1
 80037c0:	e040      	b.n	8003844 <I2C_WaitOnFlagUntilTimeout+0xa8>
 80037c2:	683b      	ldr	r3, [r7, #0]
 80037c4:	3301      	adds	r3, #1
 80037c6:	d02d      	beq.n	8003824 <I2C_WaitOnFlagUntilTimeout+0x88>
 80037c8:	f7ff fa50 	bl	8002c6c <HAL_GetTick>
 80037cc:	0002      	movs	r2, r0
 80037ce:	69bb      	ldr	r3, [r7, #24]
 80037d0:	1ad3      	subs	r3, r2, r3
 80037d2:	683a      	ldr	r2, [r7, #0]
 80037d4:	429a      	cmp	r2, r3
 80037d6:	d302      	bcc.n	80037de <I2C_WaitOnFlagUntilTimeout+0x42>
 80037d8:	683b      	ldr	r3, [r7, #0]
 80037da:	2b00      	cmp	r3, #0
 80037dc:	d122      	bne.n	8003824 <I2C_WaitOnFlagUntilTimeout+0x88>
 80037de:	68fb      	ldr	r3, [r7, #12]
 80037e0:	681b      	ldr	r3, [r3, #0]
 80037e2:	699b      	ldr	r3, [r3, #24]
 80037e4:	68ba      	ldr	r2, [r7, #8]
 80037e6:	4013      	ands	r3, r2
 80037e8:	68ba      	ldr	r2, [r7, #8]
 80037ea:	1ad3      	subs	r3, r2, r3
 80037ec:	425a      	negs	r2, r3
 80037ee:	4153      	adcs	r3, r2
 80037f0:	b2db      	uxtb	r3, r3
 80037f2:	001a      	movs	r2, r3
 80037f4:	1dfb      	adds	r3, r7, #7
 80037f6:	781b      	ldrb	r3, [r3, #0]
 80037f8:	429a      	cmp	r2, r3
 80037fa:	d113      	bne.n	8003824 <I2C_WaitOnFlagUntilTimeout+0x88>
 80037fc:	68fb      	ldr	r3, [r7, #12]
 80037fe:	6c5b      	ldr	r3, [r3, #68]	@ 0x44
 8003800:	2220      	movs	r2, #32
 8003802:	431a      	orrs	r2, r3
 8003804:	68fb      	ldr	r3, [r7, #12]
 8003806:	645a      	str	r2, [r3, #68]	@ 0x44
 8003808:	68fb      	ldr	r3, [r7, #12]
 800380a:	2241      	movs	r2, #65	@ 0x41
 800380c:	2120      	movs	r1, #32
 800380e:	5499      	strb	r1, [r3, r2]
 8003810:	68fb      	ldr	r3, [r7, #12]
 8003812:	2242      	movs	r2, #66	@ 0x42
 8003814:	2100      	movs	r1, #0
 8003816:	5499      	strb	r1, [r3, r2]
 8003818:	68fb      	ldr	r3, [r7, #12]
 800381a:	2240      	movs	r2, #64	@ 0x40
 800381c:	2100      	movs	r1, #0
 800381e:	5499      	strb	r1, [r3, r2]
 8003820:	2301      	movs	r3, #1
 8003822:	e00f      	b.n	8003844 <I2C_WaitOnFlagUntilTimeout+0xa8>
 8003824:	68fb      	ldr	r3, [r7, #12]
 8003826:	681b      	ldr	r3, [r3, #0]
 8003828:	699b      	ldr	r3, [r3, #24]
 800382a:	68ba      	ldr	r2, [r7, #8]
 800382c:	4013      	ands	r3, r2
 800382e:	68ba      	ldr	r2, [r7, #8]
 8003830:	1ad3      	subs	r3, r2, r3
 8003832:	425a      	negs	r2, r3
 8003834:	4153      	adcs	r3, r2
 8003836:	b2db      	uxtb	r3, r3
 8003838:	001a      	movs	r2, r3
 800383a:	1dfb      	adds	r3, r7, #7
 800383c:	781b      	ldrb	r3, [r3, #0]
 800383e:	429a      	cmp	r2, r3
 8003840:	d0b5      	beq.n	80037ae <I2C_WaitOnFlagUntilTimeout+0x12>
 8003842:	2300      	movs	r3, #0
 8003844:	0018      	movs	r0, r3
 8003846:	46bd      	mov	sp, r7
 8003848:	b004      	add	sp, #16
 800384a:	bd80      	pop	{r7, pc}

0800384c <I2C_WaitOnTXISFlagUntilTimeout>:
 800384c:	b580      	push	{r7, lr}
 800384e:	b084      	sub	sp, #16
 8003850:	af00      	add	r7, sp, #0
 8003852:	60f8      	str	r0, [r7, #12]
 8003854:	60b9      	str	r1, [r7, #8]
 8003856:	607a      	str	r2, [r7, #4]
 8003858:	e032      	b.n	80038c0 <I2C_WaitOnTXISFlagUntilTimeout+0x74>
 800385a:	687a      	ldr	r2, [r7, #4]
 800385c:	68b9      	ldr	r1, [r7, #8]
 800385e:	68fb      	ldr	r3, [r7, #12]
 8003860:	0018      	movs	r0, r3
 8003862:	f000 f91b 	bl	8003a9c <I2C_IsErrorOccurred>
 8003866:	1e03      	subs	r3, r0, #0
 8003868:	d001      	beq.n	800386e <I2C_WaitOnTXISFlagUntilTimeout+0x22>
 800386a:	2301      	movs	r3, #1
 800386c:	e030      	b.n	80038d0 <I2C_WaitOnTXISFlagUntilTimeout+0x84>
 800386e:	68bb      	ldr	r3, [r7, #8]
 8003870:	3301      	adds	r3, #1
 8003872:	d025      	beq.n	80038c0 <I2C_WaitOnTXISFlagUntilTimeout+0x74>
 8003874:	f7ff f9fa 	bl	8002c6c <HAL_GetTick>
 8003878:	0002      	movs	r2, r0
 800387a:	687b      	ldr	r3, [r7, #4]
 800387c:	1ad3      	subs	r3, r2, r3
 800387e:	68ba      	ldr	r2, [r7, #8]
 8003880:	429a      	cmp	r2, r3
 8003882:	d302      	bcc.n	800388a <I2C_WaitOnTXISFlagUntilTimeout+0x3e>
 8003884:	68bb      	ldr	r3, [r7, #8]
 8003886:	2b00      	cmp	r3, #0
 8003888:	d11a      	bne.n	80038c0 <I2C_WaitOnTXISFlagUntilTimeout+0x74>
 800388a:	68fb      	ldr	r3, [r7, #12]
 800388c:	681b      	ldr	r3, [r3, #0]
 800388e:	699b      	ldr	r3, [r3, #24]
 8003890:	2202      	movs	r2, #2
 8003892:	4013      	ands	r3, r2
 8003894:	2b02      	cmp	r3, #2
 8003896:	d013      	beq.n	80038c0 <I2C_WaitOnTXISFlagUntilTimeout+0x74>
 8003898:	68fb      	ldr	r3, [r7, #12]
 800389a:	6c5b      	ldr	r3, [r3, #68]	@ 0x44
 800389c:	2220      	movs	r2, #32
 800389e:	431a      	orrs	r2, r3
 80038a0:	68fb      	ldr	r3, [r7, #12]
 80038a2:	645a      	str	r2, [r3, #68]	@ 0x44
 80038a4:	68fb      	ldr	r3, [r7, #12]
 80038a6:	2241      	movs	r2, #65	@ 0x41
 80038a8:	2120      	movs	r1, #32
 80038aa:	5499      	strb	r1, [r3, r2]
 80038ac:	68fb      	ldr	r3, [r7, #12]
 80038ae:	2242      	movs	r2, #66	@ 0x42
 80038b0:	2100      	movs	r1, #0
 80038b2:	5499      	strb	r1, [r3, r2]
 80038b4:	68fb      	ldr	r3, [r7, #12]
 80038b6:	2240      	movs	r2, #64	@ 0x40
 80038b8:	2100      	movs	r1, #0
 80038ba:	5499      	strb	r1, [r3, r2]
 80038bc:	2301      	movs	r3, #1
 80038be:	e007      	b.n	80038d0 <I2C_WaitOnTXISFlagUntilTimeout+0x84>
 80038c0:	68fb      	ldr	r3, [r7, #12]
 80038c2:	681b      	ldr	r3, [r3, #0]
 80038c4:	699b      	ldr	r3, [r3, #24]
 80038c6:	2202      	movs	r2, #2
 80038c8:	4013      	ands	r3, r2
 80038ca:	2b02      	cmp	r3, #2
 80038cc:	d1c5      	bne.n	800385a <I2C_WaitOnTXISFlagUntilTimeout+0xe>
 80038ce:	2300      	movs	r3, #0
 80038d0:	0018      	movs	r0, r3
 80038d2:	46bd      	mov	sp, r7
 80038d4:	b004      	add	sp, #16
 80038d6:	bd80      	pop	{r7, pc}

080038d8 <I2C_WaitOnSTOPFlagUntilTimeout>:
 80038d8:	b580      	push	{r7, lr}
 80038da:	b084      	sub	sp, #16
 80038dc:	af00      	add	r7, sp, #0
 80038de:	60f8      	str	r0, [r7, #12]
 80038e0:	60b9      	str	r1, [r7, #8]
 80038e2:	607a      	str	r2, [r7, #4]
 80038e4:	e02f      	b.n	8003946 <I2C_WaitOnSTOPFlagUntilTimeout+0x6e>
 80038e6:	687a      	ldr	r2, [r7, #4]
 80038e8:	68b9      	ldr	r1, [r7, #8]
 80038ea:	68fb      	ldr	r3, [r7, #12]
 80038ec:	0018      	movs	r0, r3
 80038ee:	f000 f8d5 	bl	8003a9c <I2C_IsErrorOccurred>
 80038f2:	1e03      	subs	r3, r0, #0
 80038f4:	d001      	beq.n	80038fa <I2C_WaitOnSTOPFlagUntilTimeout+0x22>
 80038f6:	2301      	movs	r3, #1
 80038f8:	e02d      	b.n	8003956 <I2C_WaitOnSTOPFlagUntilTimeout+0x7e>
 80038fa:	f7ff f9b7 	bl	8002c6c <HAL_GetTick>
 80038fe:	0002      	movs	r2, r0
 8003900:	687b      	ldr	r3, [r7, #4]
 8003902:	1ad3      	subs	r3, r2, r3
 8003904:	68ba      	ldr	r2, [r7, #8]
 8003906:	429a      	cmp	r2, r3
 8003908:	d302      	bcc.n	8003910 <I2C_WaitOnSTOPFlagUntilTimeout+0x38>
 800390a:	68bb      	ldr	r3, [r7, #8]
 800390c:	2b00      	cmp	r3, #0
 800390e:	d11a      	bne.n	8003946 <I2C_WaitOnSTOPFlagUntilTimeout+0x6e>
 8003910:	68fb      	ldr	r3, [r7, #12]
 8003912:	681b      	ldr	r3, [r3, #0]
 8003914:	699b      	ldr	r3, [r3, #24]
 8003916:	2220      	movs	r2, #32
 8003918:	4013      	ands	r3, r2
 800391a:	2b20      	cmp	r3, #32
 800391c:	d013      	beq.n	8003946 <I2C_WaitOnSTOPFlagUntilTimeout+0x6e>
 800391e:	68fb      	ldr	r3, [r7, #12]
 8003920:	6c5b      	ldr	r3, [r3, #68]	@ 0x44
 8003922:	2220      	movs	r2, #32
 8003924:	431a      	orrs	r2, r3
 8003926:	68fb      	ldr	r3, [r7, #12]
 8003928:	645a      	str	r2, [r3, #68]	@ 0x44
 800392a:	68fb      	ldr	r3, [r7, #12]
 800392c:	2241      	movs	r2, #65	@ 0x41
 800392e:	2120      	movs	r1, #32
 8003930:	5499      	strb	r1, [r3, r2]
 8003932:	68fb      	ldr	r3, [r7, #12]
 8003934:	2242      	movs	r2, #66	@ 0x42
 8003936:	2100      	movs	r1, #0
 8003938:	5499      	strb	r1, [r3, r2]
 800393a:	68fb      	ldr	r3, [r7, #12]
 800393c:	2240      	movs	r2, #64	@ 0x40
 800393e:	2100      	movs	r1, #0
 8003940:	5499      	strb	r1, [r3, r2]
 8003942:	2301      	movs	r3, #1
 8003944:	e007      	b.n	8003956 <I2C_WaitOnSTOPFlagUntilTimeout+0x7e>
 8003946:	68fb      	ldr	r3, [r7, #12]
 8003948:	681b      	ldr	r3, [r3, #0]
 800394a:	699b      	ldr	r3, [r3, #24]
 800394c:	2220      	movs	r2, #32
 800394e:	4013      	ands	r3, r2
 8003950:	2b20      	cmp	r3, #32
 8003952:	d1c8      	bne.n	80038e6 <I2C_WaitOnSTOPFlagUntilTimeout+0xe>
 8003954:	2300      	movs	r3, #0
 8003956:	0018      	movs	r0, r3
 8003958:	46bd      	mov	sp, r7
 800395a:	b004      	add	sp, #16
 800395c:	bd80      	pop	{r7, pc}
	...

08003960 <I2C_WaitOnRXNEFlagUntilTimeout>:
 8003960:	b580      	push	{r7, lr}
 8003962:	b086      	sub	sp, #24
 8003964:	af00      	add	r7, sp, #0
 8003966:	60f8      	str	r0, [r7, #12]
 8003968:	60b9      	str	r1, [r7, #8]
 800396a:	607a      	str	r2, [r7, #4]
 800396c:	2317      	movs	r3, #23
 800396e:	18fb      	adds	r3, r7, r3
 8003970:	2200      	movs	r2, #0
 8003972:	701a      	strb	r2, [r3, #0]
 8003974:	e07b      	b.n	8003a6e <I2C_WaitOnRXNEFlagUntilTimeout+0x10e>
 8003976:	687a      	ldr	r2, [r7, #4]
 8003978:	68b9      	ldr	r1, [r7, #8]
 800397a:	68fb      	ldr	r3, [r7, #12]
 800397c:	0018      	movs	r0, r3
 800397e:	f000 f88d 	bl	8003a9c <I2C_IsErrorOccurred>
 8003982:	1e03      	subs	r3, r0, #0
 8003984:	d003      	beq.n	800398e <I2C_WaitOnRXNEFlagUntilTimeout+0x2e>
 8003986:	2317      	movs	r3, #23
 8003988:	18fb      	adds	r3, r7, r3
 800398a:	2201      	movs	r2, #1
 800398c:	701a      	strb	r2, [r3, #0]
 800398e:	68fb      	ldr	r3, [r7, #12]
 8003990:	681b      	ldr	r3, [r3, #0]
 8003992:	699b      	ldr	r3, [r3, #24]
 8003994:	2220      	movs	r2, #32
 8003996:	4013      	ands	r3, r2
 8003998:	2b20      	cmp	r3, #32
 800399a:	d140      	bne.n	8003a1e <I2C_WaitOnRXNEFlagUntilTimeout+0xbe>
 800399c:	2117      	movs	r1, #23
 800399e:	187b      	adds	r3, r7, r1
 80039a0:	781b      	ldrb	r3, [r3, #0]
 80039a2:	2b00      	cmp	r3, #0
 80039a4:	d13b      	bne.n	8003a1e <I2C_WaitOnRXNEFlagUntilTimeout+0xbe>
 80039a6:	68fb      	ldr	r3, [r7, #12]
 80039a8:	681b      	ldr	r3, [r3, #0]
 80039aa:	699b      	ldr	r3, [r3, #24]
 80039ac:	2204      	movs	r2, #4
 80039ae:	4013      	ands	r3, r2
 80039b0:	2b04      	cmp	r3, #4
 80039b2:	d106      	bne.n	80039c2 <I2C_WaitOnRXNEFlagUntilTimeout+0x62>
 80039b4:	68fb      	ldr	r3, [r7, #12]
 80039b6:	8d1b      	ldrh	r3, [r3, #40]	@ 0x28
 80039b8:	2b00      	cmp	r3, #0
 80039ba:	d002      	beq.n	80039c2 <I2C_WaitOnRXNEFlagUntilTimeout+0x62>
 80039bc:	187b      	adds	r3, r7, r1
 80039be:	2200      	movs	r2, #0
 80039c0:	701a      	strb	r2, [r3, #0]
 80039c2:	68fb      	ldr	r3, [r7, #12]
 80039c4:	681b      	ldr	r3, [r3, #0]
 80039c6:	699b      	ldr	r3, [r3, #24]
 80039c8:	2210      	movs	r2, #16
 80039ca:	4013      	ands	r3, r2
 80039cc:	2b10      	cmp	r3, #16
 80039ce:	d123      	bne.n	8003a18 <I2C_WaitOnRXNEFlagUntilTimeout+0xb8>
 80039d0:	68fb      	ldr	r3, [r7, #12]
 80039d2:	681b      	ldr	r3, [r3, #0]
 80039d4:	2210      	movs	r2, #16
 80039d6:	61da      	str	r2, [r3, #28]
 80039d8:	68fb      	ldr	r3, [r7, #12]
 80039da:	2204      	movs	r2, #4
 80039dc:	645a      	str	r2, [r3, #68]	@ 0x44
 80039de:	68fb      	ldr	r3, [r7, #12]
 80039e0:	681b      	ldr	r3, [r3, #0]
 80039e2:	2220      	movs	r2, #32
 80039e4:	61da      	str	r2, [r3, #28]
 80039e6:	68fb      	ldr	r3, [r7, #12]
 80039e8:	681b      	ldr	r3, [r3, #0]
 80039ea:	685a      	ldr	r2, [r3, #4]
 80039ec:	68fb      	ldr	r3, [r7, #12]
 80039ee:	681b      	ldr	r3, [r3, #0]
 80039f0:	4929      	ldr	r1, [pc, #164]	@ (8003a98 <I2C_WaitOnRXNEFlagUntilTimeout+0x138>)
 80039f2:	400a      	ands	r2, r1
 80039f4:	605a      	str	r2, [r3, #4]
 80039f6:	68fb      	ldr	r3, [r7, #12]
 80039f8:	2241      	movs	r2, #65	@ 0x41
 80039fa:	2120      	movs	r1, #32
 80039fc:	5499      	strb	r1, [r3, r2]
 80039fe:	68fb      	ldr	r3, [r7, #12]
 8003a00:	2242      	movs	r2, #66	@ 0x42
 8003a02:	2100      	movs	r1, #0
 8003a04:	5499      	strb	r1, [r3, r2]
 8003a06:	68fb      	ldr	r3, [r7, #12]
 8003a08:	2240      	movs	r2, #64	@ 0x40
 8003a0a:	2100      	movs	r1, #0
 8003a0c:	5499      	strb	r1, [r3, r2]
 8003a0e:	2317      	movs	r3, #23
 8003a10:	18fb      	adds	r3, r7, r3
 8003a12:	2201      	movs	r2, #1
 8003a14:	701a      	strb	r2, [r3, #0]
 8003a16:	e002      	b.n	8003a1e <I2C_WaitOnRXNEFlagUntilTimeout+0xbe>
 8003a18:	68fb      	ldr	r3, [r7, #12]
 8003a1a:	2200      	movs	r2, #0
 8003a1c:	645a      	str	r2, [r3, #68]	@ 0x44
 8003a1e:	f7ff f925 	bl	8002c6c <HAL_GetTick>
 8003a22:	0002      	movs	r2, r0
 8003a24:	687b      	ldr	r3, [r7, #4]
 8003a26:	1ad3      	subs	r3, r2, r3
 8003a28:	68ba      	ldr	r2, [r7, #8]
 8003a2a:	429a      	cmp	r2, r3
 8003a2c:	d302      	bcc.n	8003a34 <I2C_WaitOnRXNEFlagUntilTimeout+0xd4>
 8003a2e:	68bb      	ldr	r3, [r7, #8]
 8003a30:	2b00      	cmp	r3, #0
 8003a32:	d11c      	bne.n	8003a6e <I2C_WaitOnRXNEFlagUntilTimeout+0x10e>
 8003a34:	2017      	movs	r0, #23
 8003a36:	183b      	adds	r3, r7, r0
 8003a38:	781b      	ldrb	r3, [r3, #0]
 8003a3a:	2b00      	cmp	r3, #0
 8003a3c:	d117      	bne.n	8003a6e <I2C_WaitOnRXNEFlagUntilTimeout+0x10e>
 8003a3e:	68fb      	ldr	r3, [r7, #12]
 8003a40:	681b      	ldr	r3, [r3, #0]
 8003a42:	699b      	ldr	r3, [r3, #24]
 8003a44:	2204      	movs	r2, #4
 8003a46:	4013      	ands	r3, r2
 8003a48:	2b04      	cmp	r3, #4
 8003a4a:	d010      	beq.n	8003a6e <I2C_WaitOnRXNEFlagUntilTimeout+0x10e>
 8003a4c:	68fb      	ldr	r3, [r7, #12]
 8003a4e:	6c5b      	ldr	r3, [r3, #68]	@ 0x44
 8003a50:	2220      	movs	r2, #32
 8003a52:	431a      	orrs	r2, r3
 8003a54:	68fb      	ldr	r3, [r7, #12]
 8003a56:	645a      	str	r2, [r3, #68]	@ 0x44
 8003a58:	68fb      	ldr	r3, [r7, #12]
 8003a5a:	2241      	movs	r2, #65	@ 0x41
 8003a5c:	2120      	movs	r1, #32
 8003a5e:	5499      	strb	r1, [r3, r2]
 8003a60:	68fb      	ldr	r3, [r7, #12]
 8003a62:	2240      	movs	r2, #64	@ 0x40
 8003a64:	2100      	movs	r1, #0
 8003a66:	5499      	strb	r1, [r3, r2]
 8003a68:	183b      	adds	r3, r7, r0
 8003a6a:	2201      	movs	r2, #1
 8003a6c:	701a      	strb	r2, [r3, #0]
 8003a6e:	68fb      	ldr	r3, [r7, #12]
 8003a70:	681b      	ldr	r3, [r3, #0]
 8003a72:	699b      	ldr	r3, [r3, #24]
 8003a74:	2204      	movs	r2, #4
 8003a76:	4013      	ands	r3, r2
 8003a78:	2b04      	cmp	r3, #4
 8003a7a:	d005      	beq.n	8003a88 <I2C_WaitOnRXNEFlagUntilTimeout+0x128>
 8003a7c:	2317      	movs	r3, #23
 8003a7e:	18fb      	adds	r3, r7, r3
 8003a80:	781b      	ldrb	r3, [r3, #0]
 8003a82:	2b00      	cmp	r3, #0
 8003a84:	d100      	bne.n	8003a88 <I2C_WaitOnRXNEFlagUntilTimeout+0x128>
 8003a86:	e776      	b.n	8003976 <I2C_WaitOnRXNEFlagUntilTimeout+0x16>
 8003a88:	2317      	movs	r3, #23
 8003a8a:	18fb      	adds	r3, r7, r3
 8003a8c:	781b      	ldrb	r3, [r3, #0]
 8003a8e:	0018      	movs	r0, r3
 8003a90:	46bd      	mov	sp, r7
 8003a92:	b006      	add	sp, #24
 8003a94:	bd80      	pop	{r7, pc}
 8003a96:	46c0      	nop			@ (mov r8, r8)
 8003a98:	fe00e800 	.word	0xfe00e800

08003a9c <I2C_IsErrorOccurred>:
 8003a9c:	b580      	push	{r7, lr}
 8003a9e:	b08a      	sub	sp, #40	@ 0x28
 8003aa0:	af00      	add	r7, sp, #0
 8003aa2:	60f8      	str	r0, [r7, #12]
 8003aa4:	60b9      	str	r1, [r7, #8]
 8003aa6:	607a      	str	r2, [r7, #4]
 8003aa8:	2327      	movs	r3, #39	@ 0x27
 8003aaa:	18fb      	adds	r3, r7, r3
 8003aac:	2200      	movs	r2, #0
 8003aae:	701a      	strb	r2, [r3, #0]
 8003ab0:	68fb      	ldr	r3, [r7, #12]
 8003ab2:	681b      	ldr	r3, [r3, #0]
 8003ab4:	699b      	ldr	r3, [r3, #24]
 8003ab6:	61bb      	str	r3, [r7, #24]
 8003ab8:	2300      	movs	r3, #0
 8003aba:	623b      	str	r3, [r7, #32]
 8003abc:	687b      	ldr	r3, [r7, #4]
 8003abe:	61fb      	str	r3, [r7, #28]
 8003ac0:	69bb      	ldr	r3, [r7, #24]
 8003ac2:	2210      	movs	r2, #16
 8003ac4:	4013      	ands	r3, r2
 8003ac6:	d100      	bne.n	8003aca <I2C_IsErrorOccurred+0x2e>
 8003ac8:	e079      	b.n	8003bbe <I2C_IsErrorOccurred+0x122>
 8003aca:	68fb      	ldr	r3, [r7, #12]
 8003acc:	681b      	ldr	r3, [r3, #0]
 8003ace:	2210      	movs	r2, #16
 8003ad0:	61da      	str	r2, [r3, #28]
 8003ad2:	e057      	b.n	8003b84 <I2C_IsErrorOccurred+0xe8>
 8003ad4:	2227      	movs	r2, #39	@ 0x27
 8003ad6:	18bb      	adds	r3, r7, r2
 8003ad8:	18ba      	adds	r2, r7, r2
 8003ada:	7812      	ldrb	r2, [r2, #0]
 8003adc:	701a      	strb	r2, [r3, #0]
 8003ade:	68bb      	ldr	r3, [r7, #8]
 8003ae0:	3301      	adds	r3, #1
 8003ae2:	d04f      	beq.n	8003b84 <I2C_IsErrorOccurred+0xe8>
 8003ae4:	f7ff f8c2 	bl	8002c6c <HAL_GetTick>
 8003ae8:	0002      	movs	r2, r0
 8003aea:	69fb      	ldr	r3, [r7, #28]
 8003aec:	1ad3      	subs	r3, r2, r3
 8003aee:	68ba      	ldr	r2, [r7, #8]
 8003af0:	429a      	cmp	r2, r3
 8003af2:	d302      	bcc.n	8003afa <I2C_IsErrorOccurred+0x5e>
 8003af4:	68bb      	ldr	r3, [r7, #8]
 8003af6:	2b00      	cmp	r3, #0
 8003af8:	d144      	bne.n	8003b84 <I2C_IsErrorOccurred+0xe8>
 8003afa:	68fb      	ldr	r3, [r7, #12]
 8003afc:	681b      	ldr	r3, [r3, #0]
 8003afe:	685a      	ldr	r2, [r3, #4]
 8003b00:	2380      	movs	r3, #128	@ 0x80
 8003b02:	01db      	lsls	r3, r3, #7
 8003b04:	4013      	ands	r3, r2
 8003b06:	617b      	str	r3, [r7, #20]
 8003b08:	2013      	movs	r0, #19
 8003b0a:	183b      	adds	r3, r7, r0
 8003b0c:	68fa      	ldr	r2, [r7, #12]
 8003b0e:	2142      	movs	r1, #66	@ 0x42
 8003b10:	5c52      	ldrb	r2, [r2, r1]
 8003b12:	701a      	strb	r2, [r3, #0]
 8003b14:	68fb      	ldr	r3, [r7, #12]
 8003b16:	681b      	ldr	r3, [r3, #0]
 8003b18:	699a      	ldr	r2, [r3, #24]
 8003b1a:	2380      	movs	r3, #128	@ 0x80
 8003b1c:	021b      	lsls	r3, r3, #8
 8003b1e:	401a      	ands	r2, r3
 8003b20:	2380      	movs	r3, #128	@ 0x80
 8003b22:	021b      	lsls	r3, r3, #8
 8003b24:	429a      	cmp	r2, r3
 8003b26:	d126      	bne.n	8003b76 <I2C_IsErrorOccurred+0xda>
 8003b28:	697a      	ldr	r2, [r7, #20]
 8003b2a:	2380      	movs	r3, #128	@ 0x80
 8003b2c:	01db      	lsls	r3, r3, #7
 8003b2e:	429a      	cmp	r2, r3
 8003b30:	d021      	beq.n	8003b76 <I2C_IsErrorOccurred+0xda>
 8003b32:	183b      	adds	r3, r7, r0
 8003b34:	781b      	ldrb	r3, [r3, #0]
 8003b36:	2b20      	cmp	r3, #32
 8003b38:	d01d      	beq.n	8003b76 <I2C_IsErrorOccurred+0xda>
 8003b3a:	68fb      	ldr	r3, [r7, #12]
 8003b3c:	681b      	ldr	r3, [r3, #0]
 8003b3e:	685a      	ldr	r2, [r3, #4]
 8003b40:	68fb      	ldr	r3, [r7, #12]
 8003b42:	681b      	ldr	r3, [r3, #0]
 8003b44:	2180      	movs	r1, #128	@ 0x80
 8003b46:	01c9      	lsls	r1, r1, #7
 8003b48:	430a      	orrs	r2, r1
 8003b4a:	605a      	str	r2, [r3, #4]
 8003b4c:	f7ff f88e 	bl	8002c6c <HAL_GetTick>
 8003b50:	0003      	movs	r3, r0
 8003b52:	61fb      	str	r3, [r7, #28]
 8003b54:	e00f      	b.n	8003b76 <I2C_IsErrorOccurred+0xda>
 8003b56:	f7ff f889 	bl	8002c6c <HAL_GetTick>
 8003b5a:	0002      	movs	r2, r0
 8003b5c:	69fb      	ldr	r3, [r7, #28]
 8003b5e:	1ad3      	subs	r3, r2, r3
 8003b60:	2b19      	cmp	r3, #25
 8003b62:	d908      	bls.n	8003b76 <I2C_IsErrorOccurred+0xda>
 8003b64:	6a3b      	ldr	r3, [r7, #32]
 8003b66:	2220      	movs	r2, #32
 8003b68:	4313      	orrs	r3, r2
 8003b6a:	623b      	str	r3, [r7, #32]
 8003b6c:	2327      	movs	r3, #39	@ 0x27
 8003b6e:	18fb      	adds	r3, r7, r3
 8003b70:	2201      	movs	r2, #1
 8003b72:	701a      	strb	r2, [r3, #0]
 8003b74:	e006      	b.n	8003b84 <I2C_IsErrorOccurred+0xe8>
 8003b76:	68fb      	ldr	r3, [r7, #12]
 8003b78:	681b      	ldr	r3, [r3, #0]
 8003b7a:	699b      	ldr	r3, [r3, #24]
 8003b7c:	2220      	movs	r2, #32
 8003b7e:	4013      	ands	r3, r2
 8003b80:	2b20      	cmp	r3, #32
 8003b82:	d1e8      	bne.n	8003b56 <I2C_IsErrorOccurred+0xba>
 8003b84:	68fb      	ldr	r3, [r7, #12]
 8003b86:	681b      	ldr	r3, [r3, #0]
 8003b88:	699b      	ldr	r3, [r3, #24]
 8003b8a:	2220      	movs	r2, #32
 8003b8c:	4013      	ands	r3, r2
 8003b8e:	2b20      	cmp	r3, #32
 8003b90:	d004      	beq.n	8003b9c <I2C_IsErrorOccurred+0x100>
 8003b92:	2327      	movs	r3, #39	@ 0x27
 8003b94:	18fb      	adds	r3, r7, r3
 8003b96:	781b      	ldrb	r3, [r3, #0]
 8003b98:	2b00      	cmp	r3, #0
 8003b9a:	d09b      	beq.n	8003ad4 <I2C_IsErrorOccurred+0x38>
 8003b9c:	2327      	movs	r3, #39	@ 0x27
 8003b9e:	18fb      	adds	r3, r7, r3
 8003ba0:	781b      	ldrb	r3, [r3, #0]
 8003ba2:	2b00      	cmp	r3, #0
 8003ba4:	d103      	bne.n	8003bae <I2C_IsErrorOccurred+0x112>
 8003ba6:	68fb      	ldr	r3, [r7, #12]
 8003ba8:	681b      	ldr	r3, [r3, #0]
 8003baa:	2220      	movs	r2, #32
 8003bac:	61da      	str	r2, [r3, #28]
 8003bae:	6a3b      	ldr	r3, [r7, #32]
 8003bb0:	2204      	movs	r2, #4
 8003bb2:	4313      	orrs	r3, r2
 8003bb4:	623b      	str	r3, [r7, #32]
 8003bb6:	2327      	movs	r3, #39	@ 0x27
 8003bb8:	18fb      	adds	r3, r7, r3
 8003bba:	2201      	movs	r2, #1
 8003bbc:	701a      	strb	r2, [r3, #0]
 8003bbe:	68fb      	ldr	r3, [r7, #12]
 8003bc0:	681b      	ldr	r3, [r3, #0]
 8003bc2:	699b      	ldr	r3, [r3, #24]
 8003bc4:	61bb      	str	r3, [r7, #24]
 8003bc6:	69ba      	ldr	r2, [r7, #24]
 8003bc8:	2380      	movs	r3, #128	@ 0x80
 8003bca:	005b      	lsls	r3, r3, #1
 8003bcc:	4013      	ands	r3, r2
 8003bce:	d00c      	beq.n	8003bea <I2C_IsErrorOccurred+0x14e>
 8003bd0:	6a3b      	ldr	r3, [r7, #32]
 8003bd2:	2201      	movs	r2, #1
 8003bd4:	4313      	orrs	r3, r2
 8003bd6:	623b      	str	r3, [r7, #32]
 8003bd8:	68fb      	ldr	r3, [r7, #12]
 8003bda:	681b      	ldr	r3, [r3, #0]
 8003bdc:	2280      	movs	r2, #128	@ 0x80
 8003bde:	0052      	lsls	r2, r2, #1
 8003be0:	61da      	str	r2, [r3, #28]
 8003be2:	2327      	movs	r3, #39	@ 0x27
 8003be4:	18fb      	adds	r3, r7, r3
 8003be6:	2201      	movs	r2, #1
 8003be8:	701a      	strb	r2, [r3, #0]
 8003bea:	69ba      	ldr	r2, [r7, #24]
 8003bec:	2380      	movs	r3, #128	@ 0x80
 8003bee:	00db      	lsls	r3, r3, #3
 8003bf0:	4013      	ands	r3, r2
 8003bf2:	d00c      	beq.n	8003c0e <I2C_IsErrorOccurred+0x172>
 8003bf4:	6a3b      	ldr	r3, [r7, #32]
 8003bf6:	2208      	movs	r2, #8
 8003bf8:	4313      	orrs	r3, r2
 8003bfa:	623b      	str	r3, [r7, #32]
 8003bfc:	68fb      	ldr	r3, [r7, #12]
 8003bfe:	681b      	ldr	r3, [r3, #0]
 8003c00:	2280      	movs	r2, #128	@ 0x80
 8003c02:	00d2      	lsls	r2, r2, #3
 8003c04:	61da      	str	r2, [r3, #28]
 8003c06:	2327      	movs	r3, #39	@ 0x27
 8003c08:	18fb      	adds	r3, r7, r3
 8003c0a:	2201      	movs	r2, #1
 8003c0c:	701a      	strb	r2, [r3, #0]
 8003c0e:	69ba      	ldr	r2, [r7, #24]
 8003c10:	2380      	movs	r3, #128	@ 0x80
 8003c12:	009b      	lsls	r3, r3, #2
 8003c14:	4013      	ands	r3, r2
 8003c16:	d00c      	beq.n	8003c32 <I2C_IsErrorOccurred+0x196>
 8003c18:	6a3b      	ldr	r3, [r7, #32]
 8003c1a:	2202      	movs	r2, #2
 8003c1c:	4313      	orrs	r3, r2
 8003c1e:	623b      	str	r3, [r7, #32]
 8003c20:	68fb      	ldr	r3, [r7, #12]
 8003c22:	681b      	ldr	r3, [r3, #0]
 8003c24:	2280      	movs	r2, #128	@ 0x80
 8003c26:	0092      	lsls	r2, r2, #2
 8003c28:	61da      	str	r2, [r3, #28]
 8003c2a:	2327      	movs	r3, #39	@ 0x27
 8003c2c:	18fb      	adds	r3, r7, r3
 8003c2e:	2201      	movs	r2, #1
 8003c30:	701a      	strb	r2, [r3, #0]
 8003c32:	2327      	movs	r3, #39	@ 0x27
 8003c34:	18fb      	adds	r3, r7, r3
 8003c36:	781b      	ldrb	r3, [r3, #0]
 8003c38:	2b00      	cmp	r3, #0
 8003c3a:	d01d      	beq.n	8003c78 <I2C_IsErrorOccurred+0x1dc>
 8003c3c:	68fb      	ldr	r3, [r7, #12]
 8003c3e:	0018      	movs	r0, r3
 8003c40:	f7ff fd8a 	bl	8003758 <I2C_Flush_TXDR>
 8003c44:	68fb      	ldr	r3, [r7, #12]
 8003c46:	681b      	ldr	r3, [r3, #0]
 8003c48:	685a      	ldr	r2, [r3, #4]
 8003c4a:	68fb      	ldr	r3, [r7, #12]
 8003c4c:	681b      	ldr	r3, [r3, #0]
 8003c4e:	490e      	ldr	r1, [pc, #56]	@ (8003c88 <I2C_IsErrorOccurred+0x1ec>)
 8003c50:	400a      	ands	r2, r1
 8003c52:	605a      	str	r2, [r3, #4]
 8003c54:	68fb      	ldr	r3, [r7, #12]
 8003c56:	6c5a      	ldr	r2, [r3, #68]	@ 0x44
 8003c58:	6a3b      	ldr	r3, [r7, #32]
 8003c5a:	431a      	orrs	r2, r3
 8003c5c:	68fb      	ldr	r3, [r7, #12]
 8003c5e:	645a      	str	r2, [r3, #68]	@ 0x44
 8003c60:	68fb      	ldr	r3, [r7, #12]
 8003c62:	2241      	movs	r2, #65	@ 0x41
 8003c64:	2120      	movs	r1, #32
 8003c66:	5499      	strb	r1, [r3, r2]
 8003c68:	68fb      	ldr	r3, [r7, #12]
 8003c6a:	2242      	movs	r2, #66	@ 0x42
 8003c6c:	2100      	movs	r1, #0
 8003c6e:	5499      	strb	r1, [r3, r2]
 8003c70:	68fb      	ldr	r3, [r7, #12]
 8003c72:	2240      	movs	r2, #64	@ 0x40
 8003c74:	2100      	movs	r1, #0
 8003c76:	5499      	strb	r1, [r3, r2]
 8003c78:	2327      	movs	r3, #39	@ 0x27
 8003c7a:	18fb      	adds	r3, r7, r3
 8003c7c:	781b      	ldrb	r3, [r3, #0]
 8003c7e:	0018      	movs	r0, r3
 8003c80:	46bd      	mov	sp, r7
 8003c82:	b00a      	add	sp, #40	@ 0x28
 8003c84:	bd80      	pop	{r7, pc}
 8003c86:	46c0      	nop			@ (mov r8, r8)
 8003c88:	fe00e800 	.word	0xfe00e800

08003c8c <I2C_TransferConfig>:
 8003c8c:	b590      	push	{r4, r7, lr}
 8003c8e:	b087      	sub	sp, #28
 8003c90:	af00      	add	r7, sp, #0
 8003c92:	60f8      	str	r0, [r7, #12]
 8003c94:	0008      	movs	r0, r1
 8003c96:	0011      	movs	r1, r2
 8003c98:	607b      	str	r3, [r7, #4]
 8003c9a:	240a      	movs	r4, #10
 8003c9c:	193b      	adds	r3, r7, r4
 8003c9e:	1c02      	adds	r2, r0, #0
 8003ca0:	801a      	strh	r2, [r3, #0]
 8003ca2:	2009      	movs	r0, #9
 8003ca4:	183b      	adds	r3, r7, r0
 8003ca6:	1c0a      	adds	r2, r1, #0
 8003ca8:	701a      	strb	r2, [r3, #0]
 8003caa:	193b      	adds	r3, r7, r4
 8003cac:	881b      	ldrh	r3, [r3, #0]
 8003cae:	059b      	lsls	r3, r3, #22
 8003cb0:	0d9a      	lsrs	r2, r3, #22
 8003cb2:	183b      	adds	r3, r7, r0
 8003cb4:	781b      	ldrb	r3, [r3, #0]
 8003cb6:	0419      	lsls	r1, r3, #16
 8003cb8:	23ff      	movs	r3, #255	@ 0xff
 8003cba:	041b      	lsls	r3, r3, #16
 8003cbc:	400b      	ands	r3, r1
 8003cbe:	431a      	orrs	r2, r3
 8003cc0:	687b      	ldr	r3, [r7, #4]
 8003cc2:	431a      	orrs	r2, r3
 8003cc4:	6abb      	ldr	r3, [r7, #40]	@ 0x28
 8003cc6:	4313      	orrs	r3, r2
 8003cc8:	005b      	lsls	r3, r3, #1
 8003cca:	085b      	lsrs	r3, r3, #1
 8003ccc:	617b      	str	r3, [r7, #20]
 8003cce:	68fb      	ldr	r3, [r7, #12]
 8003cd0:	681b      	ldr	r3, [r3, #0]
 8003cd2:	685b      	ldr	r3, [r3, #4]
 8003cd4:	6aba      	ldr	r2, [r7, #40]	@ 0x28
 8003cd6:	0d51      	lsrs	r1, r2, #21
 8003cd8:	2280      	movs	r2, #128	@ 0x80
 8003cda:	00d2      	lsls	r2, r2, #3
 8003cdc:	400a      	ands	r2, r1
 8003cde:	4907      	ldr	r1, [pc, #28]	@ (8003cfc <I2C_TransferConfig+0x70>)
 8003ce0:	430a      	orrs	r2, r1
 8003ce2:	43d2      	mvns	r2, r2
 8003ce4:	401a      	ands	r2, r3
 8003ce6:	0011      	movs	r1, r2
 8003ce8:	68fb      	ldr	r3, [r7, #12]
 8003cea:	681b      	ldr	r3, [r3, #0]
 8003cec:	697a      	ldr	r2, [r7, #20]
 8003cee:	430a      	orrs	r2, r1
 8003cf0:	605a      	str	r2, [r3, #4]
 8003cf2:	46c0      	nop			@ (mov r8, r8)
 8003cf4:	46bd      	mov	sp, r7
 8003cf6:	b007      	add	sp, #28
 8003cf8:	bd90      	pop	{r4, r7, pc}
 8003cfa:	46c0      	nop			@ (mov r8, r8)
 8003cfc:	03ff63ff 	.word	0x03ff63ff

08003d00 <HAL_I2CEx_ConfigAnalogFilter>:
 8003d00:	b580      	push	{r7, lr}
 8003d02:	b082      	sub	sp, #8
 8003d04:	af00      	add	r7, sp, #0
 8003d06:	6078      	str	r0, [r7, #4]
 8003d08:	6039      	str	r1, [r7, #0]
 8003d0a:	687b      	ldr	r3, [r7, #4]
 8003d0c:	2241      	movs	r2, #65	@ 0x41
 8003d0e:	5c9b      	ldrb	r3, [r3, r2]
 8003d10:	b2db      	uxtb	r3, r3
 8003d12:	2b20      	cmp	r3, #32
 8003d14:	d138      	bne.n	8003d88 <HAL_I2CEx_ConfigAnalogFilter+0x88>
 8003d16:	687b      	ldr	r3, [r7, #4]
 8003d18:	2240      	movs	r2, #64	@ 0x40
 8003d1a:	5c9b      	ldrb	r3, [r3, r2]
 8003d1c:	2b01      	cmp	r3, #1
 8003d1e:	d101      	bne.n	8003d24 <HAL_I2CEx_ConfigAnalogFilter+0x24>
 8003d20:	2302      	movs	r3, #2
 8003d22:	e032      	b.n	8003d8a <HAL_I2CEx_ConfigAnalogFilter+0x8a>
 8003d24:	687b      	ldr	r3, [r7, #4]
 8003d26:	2240      	movs	r2, #64	@ 0x40
 8003d28:	2101      	movs	r1, #1
 8003d2a:	5499      	strb	r1, [r3, r2]
 8003d2c:	687b      	ldr	r3, [r7, #4]
 8003d2e:	2241      	movs	r2, #65	@ 0x41
 8003d30:	2124      	movs	r1, #36	@ 0x24
 8003d32:	5499      	strb	r1, [r3, r2]
 8003d34:	687b      	ldr	r3, [r7, #4]
 8003d36:	681b      	ldr	r3, [r3, #0]
 8003d38:	681a      	ldr	r2, [r3, #0]
 8003d3a:	687b      	ldr	r3, [r7, #4]
 8003d3c:	681b      	ldr	r3, [r3, #0]
 8003d3e:	2101      	movs	r1, #1
 8003d40:	438a      	bics	r2, r1
 8003d42:	601a      	str	r2, [r3, #0]
 8003d44:	687b      	ldr	r3, [r7, #4]
 8003d46:	681b      	ldr	r3, [r3, #0]
 8003d48:	681a      	ldr	r2, [r3, #0]
 8003d4a:	687b      	ldr	r3, [r7, #4]
 8003d4c:	681b      	ldr	r3, [r3, #0]
 8003d4e:	4911      	ldr	r1, [pc, #68]	@ (8003d94 <HAL_I2CEx_ConfigAnalogFilter+0x94>)
 8003d50:	400a      	ands	r2, r1
 8003d52:	601a      	str	r2, [r3, #0]
 8003d54:	687b      	ldr	r3, [r7, #4]
 8003d56:	681b      	ldr	r3, [r3, #0]
 8003d58:	6819      	ldr	r1, [r3, #0]
 8003d5a:	687b      	ldr	r3, [r7, #4]
 8003d5c:	681b      	ldr	r3, [r3, #0]
 8003d5e:	683a      	ldr	r2, [r7, #0]
 8003d60:	430a      	orrs	r2, r1
 8003d62:	601a      	str	r2, [r3, #0]
 8003d64:	687b      	ldr	r3, [r7, #4]
 8003d66:	681b      	ldr	r3, [r3, #0]
 8003d68:	681a      	ldr	r2, [r3, #0]
 8003d6a:	687b      	ldr	r3, [r7, #4]
 8003d6c:	681b      	ldr	r3, [r3, #0]
 8003d6e:	2101      	movs	r1, #1
 8003d70:	430a      	orrs	r2, r1
 8003d72:	601a      	str	r2, [r3, #0]
 8003d74:	687b      	ldr	r3, [r7, #4]
 8003d76:	2241      	movs	r2, #65	@ 0x41
 8003d78:	2120      	movs	r1, #32
 8003d7a:	5499      	strb	r1, [r3, r2]
 8003d7c:	687b      	ldr	r3, [r7, #4]
 8003d7e:	2240      	movs	r2, #64	@ 0x40
 8003d80:	2100      	movs	r1, #0
 8003d82:	5499      	strb	r1, [r3, r2]
 8003d84:	2300      	movs	r3, #0
 8003d86:	e000      	b.n	8003d8a <HAL_I2CEx_ConfigAnalogFilter+0x8a>
 8003d88:	2302      	movs	r3, #2
 8003d8a:	0018      	movs	r0, r3
 8003d8c:	46bd      	mov	sp, r7
 8003d8e:	b002      	add	sp, #8
 8003d90:	bd80      	pop	{r7, pc}
 8003d92:	46c0      	nop			@ (mov r8, r8)
 8003d94:	ffffefff 	.word	0xffffefff

08003d98 <HAL_I2CEx_ConfigDigitalFilter>:
 8003d98:	b580      	push	{r7, lr}
 8003d9a:	b084      	sub	sp, #16
 8003d9c:	af00      	add	r7, sp, #0
 8003d9e:	6078      	str	r0, [r7, #4]
 8003da0:	6039      	str	r1, [r7, #0]
 8003da2:	687b      	ldr	r3, [r7, #4]
 8003da4:	2241      	movs	r2, #65	@ 0x41
 8003da6:	5c9b      	ldrb	r3, [r3, r2]
 8003da8:	b2db      	uxtb	r3, r3
 8003daa:	2b20      	cmp	r3, #32
 8003dac:	d139      	bne.n	8003e22 <HAL_I2CEx_ConfigDigitalFilter+0x8a>
 8003dae:	687b      	ldr	r3, [r7, #4]
 8003db0:	2240      	movs	r2, #64	@ 0x40
 8003db2:	5c9b      	ldrb	r3, [r3, r2]
 8003db4:	2b01      	cmp	r3, #1
 8003db6:	d101      	bne.n	8003dbc <HAL_I2CEx_ConfigDigitalFilter+0x24>
 8003db8:	2302      	movs	r3, #2
 8003dba:	e033      	b.n	8003e24 <HAL_I2CEx_ConfigDigitalFilter+0x8c>
 8003dbc:	687b      	ldr	r3, [r7, #4]
 8003dbe:	2240      	movs	r2, #64	@ 0x40
 8003dc0:	2101      	movs	r1, #1
 8003dc2:	5499      	strb	r1, [r3, r2]
 8003dc4:	687b      	ldr	r3, [r7, #4]
 8003dc6:	2241      	movs	r2, #65	@ 0x41
 8003dc8:	2124      	movs	r1, #36	@ 0x24
 8003dca:	5499      	strb	r1, [r3, r2]
 8003dcc:	687b      	ldr	r3, [r7, #4]
 8003dce:	681b      	ldr	r3, [r3, #0]
 8003dd0:	681a      	ldr	r2, [r3, #0]
 8003dd2:	687b      	ldr	r3, [r7, #4]
 8003dd4:	681b      	ldr	r3, [r3, #0]
 8003dd6:	2101      	movs	r1, #1
 8003dd8:	438a      	bics	r2, r1
 8003dda:	601a      	str	r2, [r3, #0]
 8003ddc:	687b      	ldr	r3, [r7, #4]
 8003dde:	681b      	ldr	r3, [r3, #0]
 8003de0:	681b      	ldr	r3, [r3, #0]
 8003de2:	60fb      	str	r3, [r7, #12]
 8003de4:	68fb      	ldr	r3, [r7, #12]
 8003de6:	4a11      	ldr	r2, [pc, #68]	@ (8003e2c <HAL_I2CEx_ConfigDigitalFilter+0x94>)
 8003de8:	4013      	ands	r3, r2
 8003dea:	60fb      	str	r3, [r7, #12]
 8003dec:	683b      	ldr	r3, [r7, #0]
 8003dee:	021b      	lsls	r3, r3, #8
 8003df0:	68fa      	ldr	r2, [r7, #12]
 8003df2:	4313      	orrs	r3, r2
 8003df4:	60fb      	str	r3, [r7, #12]
 8003df6:	687b      	ldr	r3, [r7, #4]
 8003df8:	681b      	ldr	r3, [r3, #0]
 8003dfa:	68fa      	ldr	r2, [r7, #12]
 8003dfc:	601a      	str	r2, [r3, #0]
 8003dfe:	687b      	ldr	r3, [r7, #4]
 8003e00:	681b      	ldr	r3, [r3, #0]
 8003e02:	681a      	ldr	r2, [r3, #0]
 8003e04:	687b      	ldr	r3, [r7, #4]
 8003e06:	681b      	ldr	r3, [r3, #0]
 8003e08:	2101      	movs	r1, #1
 8003e0a:	430a      	orrs	r2, r1
 8003e0c:	601a      	str	r2, [r3, #0]
 8003e0e:	687b      	ldr	r3, [r7, #4]
 8003e10:	2241      	movs	r2, #65	@ 0x41
 8003e12:	2120      	movs	r1, #32
 8003e14:	5499      	strb	r1, [r3, r2]
 8003e16:	687b      	ldr	r3, [r7, #4]
 8003e18:	2240      	movs	r2, #64	@ 0x40
 8003e1a:	2100      	movs	r1, #0
 8003e1c:	5499      	strb	r1, [r3, r2]
 8003e1e:	2300      	movs	r3, #0
 8003e20:	e000      	b.n	8003e24 <HAL_I2CEx_ConfigDigitalFilter+0x8c>
 8003e22:	2302      	movs	r3, #2
 8003e24:	0018      	movs	r0, r3
 8003e26:	46bd      	mov	sp, r7
 8003e28:	b004      	add	sp, #16
 8003e2a:	bd80      	pop	{r7, pc}
 8003e2c:	fffff0ff 	.word	0xfffff0ff

08003e30 <HAL_PWREx_ControlVoltageScaling>:
 8003e30:	b580      	push	{r7, lr}
 8003e32:	b084      	sub	sp, #16
 8003e34:	af00      	add	r7, sp, #0
 8003e36:	6078      	str	r0, [r7, #4]
 8003e38:	4b19      	ldr	r3, [pc, #100]	@ (8003ea0 <HAL_PWREx_ControlVoltageScaling+0x70>)
 8003e3a:	681b      	ldr	r3, [r3, #0]
 8003e3c:	4a19      	ldr	r2, [pc, #100]	@ (8003ea4 <HAL_PWREx_ControlVoltageScaling+0x74>)
 8003e3e:	4013      	ands	r3, r2
 8003e40:	0019      	movs	r1, r3
 8003e42:	4b17      	ldr	r3, [pc, #92]	@ (8003ea0 <HAL_PWREx_ControlVoltageScaling+0x70>)
 8003e44:	687a      	ldr	r2, [r7, #4]
 8003e46:	430a      	orrs	r2, r1
 8003e48:	601a      	str	r2, [r3, #0]
 8003e4a:	687a      	ldr	r2, [r7, #4]
 8003e4c:	2380      	movs	r3, #128	@ 0x80
 8003e4e:	009b      	lsls	r3, r3, #2
 8003e50:	429a      	cmp	r2, r3
 8003e52:	d11f      	bne.n	8003e94 <HAL_PWREx_ControlVoltageScaling+0x64>
 8003e54:	4b14      	ldr	r3, [pc, #80]	@ (8003ea8 <HAL_PWREx_ControlVoltageScaling+0x78>)
 8003e56:	681a      	ldr	r2, [r3, #0]
 8003e58:	0013      	movs	r3, r2
 8003e5a:	005b      	lsls	r3, r3, #1
 8003e5c:	189b      	adds	r3, r3, r2
 8003e5e:	005b      	lsls	r3, r3, #1
 8003e60:	4912      	ldr	r1, [pc, #72]	@ (8003eac <HAL_PWREx_ControlVoltageScaling+0x7c>)
 8003e62:	0018      	movs	r0, r3
 8003e64:	f7fc f958 	bl	8000118 <__udivsi3>
 8003e68:	0003      	movs	r3, r0
 8003e6a:	3301      	adds	r3, #1
 8003e6c:	60fb      	str	r3, [r7, #12]
 8003e6e:	e008      	b.n	8003e82 <HAL_PWREx_ControlVoltageScaling+0x52>
 8003e70:	68fb      	ldr	r3, [r7, #12]
 8003e72:	2b00      	cmp	r3, #0
 8003e74:	d003      	beq.n	8003e7e <HAL_PWREx_ControlVoltageScaling+0x4e>
 8003e76:	68fb      	ldr	r3, [r7, #12]
 8003e78:	3b01      	subs	r3, #1
 8003e7a:	60fb      	str	r3, [r7, #12]
 8003e7c:	e001      	b.n	8003e82 <HAL_PWREx_ControlVoltageScaling+0x52>
 8003e7e:	2303      	movs	r3, #3
 8003e80:	e009      	b.n	8003e96 <HAL_PWREx_ControlVoltageScaling+0x66>
 8003e82:	4b07      	ldr	r3, [pc, #28]	@ (8003ea0 <HAL_PWREx_ControlVoltageScaling+0x70>)
 8003e84:	695a      	ldr	r2, [r3, #20]
 8003e86:	2380      	movs	r3, #128	@ 0x80
 8003e88:	00db      	lsls	r3, r3, #3
 8003e8a:	401a      	ands	r2, r3
 8003e8c:	2380      	movs	r3, #128	@ 0x80
 8003e8e:	00db      	lsls	r3, r3, #3
 8003e90:	429a      	cmp	r2, r3
 8003e92:	d0ed      	beq.n	8003e70 <HAL_PWREx_ControlVoltageScaling+0x40>
 8003e94:	2300      	movs	r3, #0
 8003e96:	0018      	movs	r0, r3
 8003e98:	46bd      	mov	sp, r7
 8003e9a:	b004      	add	sp, #16
 8003e9c:	bd80      	pop	{r7, pc}
 8003e9e:	46c0      	nop			@ (mov r8, r8)
 8003ea0:	40007000 	.word	0x40007000
 8003ea4:	fffff9ff 	.word	0xfffff9ff
 8003ea8:	200009e4 	.word	0x200009e4
 8003eac:	000f4240 	.word	0x000f4240

08003eb0 <LL_RCC_GetAPB1Prescaler>:
 8003eb0:	b580      	push	{r7, lr}
 8003eb2:	af00      	add	r7, sp, #0
 8003eb4:	4b03      	ldr	r3, [pc, #12]	@ (8003ec4 <LL_RCC_GetAPB1Prescaler+0x14>)
 8003eb6:	689a      	ldr	r2, [r3, #8]
 8003eb8:	23e0      	movs	r3, #224	@ 0xe0
 8003eba:	01db      	lsls	r3, r3, #7
 8003ebc:	4013      	ands	r3, r2
 8003ebe:	0018      	movs	r0, r3
 8003ec0:	46bd      	mov	sp, r7
 8003ec2:	bd80      	pop	{r7, pc}
 8003ec4:	40021000 	.word	0x40021000

08003ec8 <HAL_RCC_OscConfig>:
 8003ec8:	b580      	push	{r7, lr}
 8003eca:	b088      	sub	sp, #32
 8003ecc:	af00      	add	r7, sp, #0
 8003ece:	6078      	str	r0, [r7, #4]
 8003ed0:	687b      	ldr	r3, [r7, #4]
 8003ed2:	2b00      	cmp	r3, #0
 8003ed4:	d102      	bne.n	8003edc <HAL_RCC_OscConfig+0x14>
 8003ed6:	2301      	movs	r3, #1
 8003ed8:	f000 fb50 	bl	800457c <HAL_RCC_OscConfig+0x6b4>
 8003edc:	687b      	ldr	r3, [r7, #4]
 8003ede:	681b      	ldr	r3, [r3, #0]
 8003ee0:	2201      	movs	r2, #1
 8003ee2:	4013      	ands	r3, r2
 8003ee4:	d100      	bne.n	8003ee8 <HAL_RCC_OscConfig+0x20>
 8003ee6:	e07c      	b.n	8003fe2 <HAL_RCC_OscConfig+0x11a>
 8003ee8:	4bc3      	ldr	r3, [pc, #780]	@ (80041f8 <HAL_RCC_OscConfig+0x330>)
 8003eea:	689b      	ldr	r3, [r3, #8]
 8003eec:	2238      	movs	r2, #56	@ 0x38
 8003eee:	4013      	ands	r3, r2
 8003ef0:	61bb      	str	r3, [r7, #24]
 8003ef2:	4bc1      	ldr	r3, [pc, #772]	@ (80041f8 <HAL_RCC_OscConfig+0x330>)
 8003ef4:	68db      	ldr	r3, [r3, #12]
 8003ef6:	2203      	movs	r2, #3
 8003ef8:	4013      	ands	r3, r2
 8003efa:	617b      	str	r3, [r7, #20]
 8003efc:	69bb      	ldr	r3, [r7, #24]
 8003efe:	2b10      	cmp	r3, #16
 8003f00:	d102      	bne.n	8003f08 <HAL_RCC_OscConfig+0x40>
 8003f02:	697b      	ldr	r3, [r7, #20]
 8003f04:	2b03      	cmp	r3, #3
 8003f06:	d002      	beq.n	8003f0e <HAL_RCC_OscConfig+0x46>
 8003f08:	69bb      	ldr	r3, [r7, #24]
 8003f0a:	2b08      	cmp	r3, #8
 8003f0c:	d10b      	bne.n	8003f26 <HAL_RCC_OscConfig+0x5e>
 8003f0e:	4bba      	ldr	r3, [pc, #744]	@ (80041f8 <HAL_RCC_OscConfig+0x330>)
 8003f10:	681a      	ldr	r2, [r3, #0]
 8003f12:	2380      	movs	r3, #128	@ 0x80
 8003f14:	029b      	lsls	r3, r3, #10
 8003f16:	4013      	ands	r3, r2
 8003f18:	d062      	beq.n	8003fe0 <HAL_RCC_OscConfig+0x118>
 8003f1a:	687b      	ldr	r3, [r7, #4]
 8003f1c:	685b      	ldr	r3, [r3, #4]
 8003f1e:	2b00      	cmp	r3, #0
 8003f20:	d15e      	bne.n	8003fe0 <HAL_RCC_OscConfig+0x118>
 8003f22:	2301      	movs	r3, #1
 8003f24:	e32a      	b.n	800457c <HAL_RCC_OscConfig+0x6b4>
 8003f26:	687b      	ldr	r3, [r7, #4]
 8003f28:	685a      	ldr	r2, [r3, #4]
 8003f2a:	2380      	movs	r3, #128	@ 0x80
 8003f2c:	025b      	lsls	r3, r3, #9
 8003f2e:	429a      	cmp	r2, r3
 8003f30:	d107      	bne.n	8003f42 <HAL_RCC_OscConfig+0x7a>
 8003f32:	4bb1      	ldr	r3, [pc, #708]	@ (80041f8 <HAL_RCC_OscConfig+0x330>)
 8003f34:	681a      	ldr	r2, [r3, #0]
 8003f36:	4bb0      	ldr	r3, [pc, #704]	@ (80041f8 <HAL_RCC_OscConfig+0x330>)
 8003f38:	2180      	movs	r1, #128	@ 0x80
 8003f3a:	0249      	lsls	r1, r1, #9
 8003f3c:	430a      	orrs	r2, r1
 8003f3e:	601a      	str	r2, [r3, #0]
 8003f40:	e020      	b.n	8003f84 <HAL_RCC_OscConfig+0xbc>
 8003f42:	687b      	ldr	r3, [r7, #4]
 8003f44:	685a      	ldr	r2, [r3, #4]
 8003f46:	23a0      	movs	r3, #160	@ 0xa0
 8003f48:	02db      	lsls	r3, r3, #11
 8003f4a:	429a      	cmp	r2, r3
 8003f4c:	d10e      	bne.n	8003f6c <HAL_RCC_OscConfig+0xa4>
 8003f4e:	4baa      	ldr	r3, [pc, #680]	@ (80041f8 <HAL_RCC_OscConfig+0x330>)
 8003f50:	681a      	ldr	r2, [r3, #0]
 8003f52:	4ba9      	ldr	r3, [pc, #676]	@ (80041f8 <HAL_RCC_OscConfig+0x330>)
 8003f54:	2180      	movs	r1, #128	@ 0x80
 8003f56:	02c9      	lsls	r1, r1, #11
 8003f58:	430a      	orrs	r2, r1
 8003f5a:	601a      	str	r2, [r3, #0]
 8003f5c:	4ba6      	ldr	r3, [pc, #664]	@ (80041f8 <HAL_RCC_OscConfig+0x330>)
 8003f5e:	681a      	ldr	r2, [r3, #0]
 8003f60:	4ba5      	ldr	r3, [pc, #660]	@ (80041f8 <HAL_RCC_OscConfig+0x330>)
 8003f62:	2180      	movs	r1, #128	@ 0x80
 8003f64:	0249      	lsls	r1, r1, #9
 8003f66:	430a      	orrs	r2, r1
 8003f68:	601a      	str	r2, [r3, #0]
 8003f6a:	e00b      	b.n	8003f84 <HAL_RCC_OscConfig+0xbc>
 8003f6c:	4ba2      	ldr	r3, [pc, #648]	@ (80041f8 <HAL_RCC_OscConfig+0x330>)
 8003f6e:	681a      	ldr	r2, [r3, #0]
 8003f70:	4ba1      	ldr	r3, [pc, #644]	@ (80041f8 <HAL_RCC_OscConfig+0x330>)
 8003f72:	49a2      	ldr	r1, [pc, #648]	@ (80041fc <HAL_RCC_OscConfig+0x334>)
 8003f74:	400a      	ands	r2, r1
 8003f76:	601a      	str	r2, [r3, #0]
 8003f78:	4b9f      	ldr	r3, [pc, #636]	@ (80041f8 <HAL_RCC_OscConfig+0x330>)
 8003f7a:	681a      	ldr	r2, [r3, #0]
 8003f7c:	4b9e      	ldr	r3, [pc, #632]	@ (80041f8 <HAL_RCC_OscConfig+0x330>)
 8003f7e:	49a0      	ldr	r1, [pc, #640]	@ (8004200 <HAL_RCC_OscConfig+0x338>)
 8003f80:	400a      	ands	r2, r1
 8003f82:	601a      	str	r2, [r3, #0]
 8003f84:	687b      	ldr	r3, [r7, #4]
 8003f86:	685b      	ldr	r3, [r3, #4]
 8003f88:	2b00      	cmp	r3, #0
 8003f8a:	d014      	beq.n	8003fb6 <HAL_RCC_OscConfig+0xee>
 8003f8c:	f7fe fe6e 	bl	8002c6c <HAL_GetTick>
 8003f90:	0003      	movs	r3, r0
 8003f92:	613b      	str	r3, [r7, #16]
 8003f94:	e008      	b.n	8003fa8 <HAL_RCC_OscConfig+0xe0>
 8003f96:	f7fe fe69 	bl	8002c6c <HAL_GetTick>
 8003f9a:	0002      	movs	r2, r0
 8003f9c:	693b      	ldr	r3, [r7, #16]
 8003f9e:	1ad3      	subs	r3, r2, r3
 8003fa0:	2b64      	cmp	r3, #100	@ 0x64
 8003fa2:	d901      	bls.n	8003fa8 <HAL_RCC_OscConfig+0xe0>
 8003fa4:	2303      	movs	r3, #3
 8003fa6:	e2e9      	b.n	800457c <HAL_RCC_OscConfig+0x6b4>
 8003fa8:	4b93      	ldr	r3, [pc, #588]	@ (80041f8 <HAL_RCC_OscConfig+0x330>)
 8003faa:	681a      	ldr	r2, [r3, #0]
 8003fac:	2380      	movs	r3, #128	@ 0x80
 8003fae:	029b      	lsls	r3, r3, #10
 8003fb0:	4013      	ands	r3, r2
 8003fb2:	d0f0      	beq.n	8003f96 <HAL_RCC_OscConfig+0xce>
 8003fb4:	e015      	b.n	8003fe2 <HAL_RCC_OscConfig+0x11a>
 8003fb6:	f7fe fe59 	bl	8002c6c <HAL_GetTick>
 8003fba:	0003      	movs	r3, r0
 8003fbc:	613b      	str	r3, [r7, #16]
 8003fbe:	e008      	b.n	8003fd2 <HAL_RCC_OscConfig+0x10a>
 8003fc0:	f7fe fe54 	bl	8002c6c <HAL_GetTick>
 8003fc4:	0002      	movs	r2, r0
 8003fc6:	693b      	ldr	r3, [r7, #16]
 8003fc8:	1ad3      	subs	r3, r2, r3
 8003fca:	2b64      	cmp	r3, #100	@ 0x64
 8003fcc:	d901      	bls.n	8003fd2 <HAL_RCC_OscConfig+0x10a>
 8003fce:	2303      	movs	r3, #3
 8003fd0:	e2d4      	b.n	800457c <HAL_RCC_OscConfig+0x6b4>
 8003fd2:	4b89      	ldr	r3, [pc, #548]	@ (80041f8 <HAL_RCC_OscConfig+0x330>)
 8003fd4:	681a      	ldr	r2, [r3, #0]
 8003fd6:	2380      	movs	r3, #128	@ 0x80
 8003fd8:	029b      	lsls	r3, r3, #10
 8003fda:	4013      	ands	r3, r2
 8003fdc:	d1f0      	bne.n	8003fc0 <HAL_RCC_OscConfig+0xf8>
 8003fde:	e000      	b.n	8003fe2 <HAL_RCC_OscConfig+0x11a>
 8003fe0:	46c0      	nop			@ (mov r8, r8)
 8003fe2:	687b      	ldr	r3, [r7, #4]
 8003fe4:	681b      	ldr	r3, [r3, #0]
 8003fe6:	2202      	movs	r2, #2
 8003fe8:	4013      	ands	r3, r2
 8003fea:	d100      	bne.n	8003fee <HAL_RCC_OscConfig+0x126>
 8003fec:	e099      	b.n	8004122 <HAL_RCC_OscConfig+0x25a>
 8003fee:	4b82      	ldr	r3, [pc, #520]	@ (80041f8 <HAL_RCC_OscConfig+0x330>)
 8003ff0:	689b      	ldr	r3, [r3, #8]
 8003ff2:	2238      	movs	r2, #56	@ 0x38
 8003ff4:	4013      	ands	r3, r2
 8003ff6:	61bb      	str	r3, [r7, #24]
 8003ff8:	4b7f      	ldr	r3, [pc, #508]	@ (80041f8 <HAL_RCC_OscConfig+0x330>)
 8003ffa:	68db      	ldr	r3, [r3, #12]
 8003ffc:	2203      	movs	r2, #3
 8003ffe:	4013      	ands	r3, r2
 8004000:	617b      	str	r3, [r7, #20]
 8004002:	69bb      	ldr	r3, [r7, #24]
 8004004:	2b10      	cmp	r3, #16
 8004006:	d102      	bne.n	800400e <HAL_RCC_OscConfig+0x146>
 8004008:	697b      	ldr	r3, [r7, #20]
 800400a:	2b02      	cmp	r3, #2
 800400c:	d002      	beq.n	8004014 <HAL_RCC_OscConfig+0x14c>
 800400e:	69bb      	ldr	r3, [r7, #24]
 8004010:	2b00      	cmp	r3, #0
 8004012:	d135      	bne.n	8004080 <HAL_RCC_OscConfig+0x1b8>
 8004014:	4b78      	ldr	r3, [pc, #480]	@ (80041f8 <HAL_RCC_OscConfig+0x330>)
 8004016:	681a      	ldr	r2, [r3, #0]
 8004018:	2380      	movs	r3, #128	@ 0x80
 800401a:	00db      	lsls	r3, r3, #3
 800401c:	4013      	ands	r3, r2
 800401e:	d005      	beq.n	800402c <HAL_RCC_OscConfig+0x164>
 8004020:	687b      	ldr	r3, [r7, #4]
 8004022:	68db      	ldr	r3, [r3, #12]
 8004024:	2b00      	cmp	r3, #0
 8004026:	d101      	bne.n	800402c <HAL_RCC_OscConfig+0x164>
 8004028:	2301      	movs	r3, #1
 800402a:	e2a7      	b.n	800457c <HAL_RCC_OscConfig+0x6b4>
 800402c:	4b72      	ldr	r3, [pc, #456]	@ (80041f8 <HAL_RCC_OscConfig+0x330>)
 800402e:	685b      	ldr	r3, [r3, #4]
 8004030:	4a74      	ldr	r2, [pc, #464]	@ (8004204 <HAL_RCC_OscConfig+0x33c>)
 8004032:	4013      	ands	r3, r2
 8004034:	0019      	movs	r1, r3
 8004036:	687b      	ldr	r3, [r7, #4]
 8004038:	695b      	ldr	r3, [r3, #20]
 800403a:	021a      	lsls	r2, r3, #8
 800403c:	4b6e      	ldr	r3, [pc, #440]	@ (80041f8 <HAL_RCC_OscConfig+0x330>)
 800403e:	430a      	orrs	r2, r1
 8004040:	605a      	str	r2, [r3, #4]
 8004042:	69bb      	ldr	r3, [r7, #24]
 8004044:	2b00      	cmp	r3, #0
 8004046:	d112      	bne.n	800406e <HAL_RCC_OscConfig+0x1a6>
 8004048:	4b6b      	ldr	r3, [pc, #428]	@ (80041f8 <HAL_RCC_OscConfig+0x330>)
 800404a:	681b      	ldr	r3, [r3, #0]
 800404c:	4a6e      	ldr	r2, [pc, #440]	@ (8004208 <HAL_RCC_OscConfig+0x340>)
 800404e:	4013      	ands	r3, r2
 8004050:	0019      	movs	r1, r3
 8004052:	687b      	ldr	r3, [r7, #4]
 8004054:	691a      	ldr	r2, [r3, #16]
 8004056:	4b68      	ldr	r3, [pc, #416]	@ (80041f8 <HAL_RCC_OscConfig+0x330>)
 8004058:	430a      	orrs	r2, r1
 800405a:	601a      	str	r2, [r3, #0]
 800405c:	4b66      	ldr	r3, [pc, #408]	@ (80041f8 <HAL_RCC_OscConfig+0x330>)
 800405e:	681b      	ldr	r3, [r3, #0]
 8004060:	0adb      	lsrs	r3, r3, #11
 8004062:	2207      	movs	r2, #7
 8004064:	4013      	ands	r3, r2
 8004066:	4a69      	ldr	r2, [pc, #420]	@ (800420c <HAL_RCC_OscConfig+0x344>)
 8004068:	40da      	lsrs	r2, r3
 800406a:	4b69      	ldr	r3, [pc, #420]	@ (8004210 <HAL_RCC_OscConfig+0x348>)
 800406c:	601a      	str	r2, [r3, #0]
 800406e:	4b69      	ldr	r3, [pc, #420]	@ (8004214 <HAL_RCC_OscConfig+0x34c>)
 8004070:	681b      	ldr	r3, [r3, #0]
 8004072:	0018      	movs	r0, r3
 8004074:	f7fe fd9e 	bl	8002bb4 <HAL_InitTick>
 8004078:	1e03      	subs	r3, r0, #0
 800407a:	d051      	beq.n	8004120 <HAL_RCC_OscConfig+0x258>
 800407c:	2301      	movs	r3, #1
 800407e:	e27d      	b.n	800457c <HAL_RCC_OscConfig+0x6b4>
 8004080:	687b      	ldr	r3, [r7, #4]
 8004082:	68db      	ldr	r3, [r3, #12]
 8004084:	2b00      	cmp	r3, #0
 8004086:	d030      	beq.n	80040ea <HAL_RCC_OscConfig+0x222>
 8004088:	4b5b      	ldr	r3, [pc, #364]	@ (80041f8 <HAL_RCC_OscConfig+0x330>)
 800408a:	681b      	ldr	r3, [r3, #0]
 800408c:	4a5e      	ldr	r2, [pc, #376]	@ (8004208 <HAL_RCC_OscConfig+0x340>)
 800408e:	4013      	ands	r3, r2
 8004090:	0019      	movs	r1, r3
 8004092:	687b      	ldr	r3, [r7, #4]
 8004094:	691a      	ldr	r2, [r3, #16]
 8004096:	4b58      	ldr	r3, [pc, #352]	@ (80041f8 <HAL_RCC_OscConfig+0x330>)
 8004098:	430a      	orrs	r2, r1
 800409a:	601a      	str	r2, [r3, #0]
 800409c:	4b56      	ldr	r3, [pc, #344]	@ (80041f8 <HAL_RCC_OscConfig+0x330>)
 800409e:	681a      	ldr	r2, [r3, #0]
 80040a0:	4b55      	ldr	r3, [pc, #340]	@ (80041f8 <HAL_RCC_OscConfig+0x330>)
 80040a2:	2180      	movs	r1, #128	@ 0x80
 80040a4:	0049      	lsls	r1, r1, #1
 80040a6:	430a      	orrs	r2, r1
 80040a8:	601a      	str	r2, [r3, #0]
 80040aa:	f7fe fddf 	bl	8002c6c <HAL_GetTick>
 80040ae:	0003      	movs	r3, r0
 80040b0:	613b      	str	r3, [r7, #16]
 80040b2:	e008      	b.n	80040c6 <HAL_RCC_OscConfig+0x1fe>
 80040b4:	f7fe fdda 	bl	8002c6c <HAL_GetTick>
 80040b8:	0002      	movs	r2, r0
 80040ba:	693b      	ldr	r3, [r7, #16]
 80040bc:	1ad3      	subs	r3, r2, r3
 80040be:	2b02      	cmp	r3, #2
 80040c0:	d901      	bls.n	80040c6 <HAL_RCC_OscConfig+0x1fe>
 80040c2:	2303      	movs	r3, #3
 80040c4:	e25a      	b.n	800457c <HAL_RCC_OscConfig+0x6b4>
 80040c6:	4b4c      	ldr	r3, [pc, #304]	@ (80041f8 <HAL_RCC_OscConfig+0x330>)
 80040c8:	681a      	ldr	r2, [r3, #0]
 80040ca:	2380      	movs	r3, #128	@ 0x80
 80040cc:	00db      	lsls	r3, r3, #3
 80040ce:	4013      	ands	r3, r2
 80040d0:	d0f0      	beq.n	80040b4 <HAL_RCC_OscConfig+0x1ec>
 80040d2:	4b49      	ldr	r3, [pc, #292]	@ (80041f8 <HAL_RCC_OscConfig+0x330>)
 80040d4:	685b      	ldr	r3, [r3, #4]
 80040d6:	4a4b      	ldr	r2, [pc, #300]	@ (8004204 <HAL_RCC_OscConfig+0x33c>)
 80040d8:	4013      	ands	r3, r2
 80040da:	0019      	movs	r1, r3
 80040dc:	687b      	ldr	r3, [r7, #4]
 80040de:	695b      	ldr	r3, [r3, #20]
 80040e0:	021a      	lsls	r2, r3, #8
 80040e2:	4b45      	ldr	r3, [pc, #276]	@ (80041f8 <HAL_RCC_OscConfig+0x330>)
 80040e4:	430a      	orrs	r2, r1
 80040e6:	605a      	str	r2, [r3, #4]
 80040e8:	e01b      	b.n	8004122 <HAL_RCC_OscConfig+0x25a>
 80040ea:	4b43      	ldr	r3, [pc, #268]	@ (80041f8 <HAL_RCC_OscConfig+0x330>)
 80040ec:	681a      	ldr	r2, [r3, #0]
 80040ee:	4b42      	ldr	r3, [pc, #264]	@ (80041f8 <HAL_RCC_OscConfig+0x330>)
 80040f0:	4949      	ldr	r1, [pc, #292]	@ (8004218 <HAL_RCC_OscConfig+0x350>)
 80040f2:	400a      	ands	r2, r1
 80040f4:	601a      	str	r2, [r3, #0]
 80040f6:	f7fe fdb9 	bl	8002c6c <HAL_GetTick>
 80040fa:	0003      	movs	r3, r0
 80040fc:	613b      	str	r3, [r7, #16]
 80040fe:	e008      	b.n	8004112 <HAL_RCC_OscConfig+0x24a>
 8004100:	f7fe fdb4 	bl	8002c6c <HAL_GetTick>
 8004104:	0002      	movs	r2, r0
 8004106:	693b      	ldr	r3, [r7, #16]
 8004108:	1ad3      	subs	r3, r2, r3
 800410a:	2b02      	cmp	r3, #2
 800410c:	d901      	bls.n	8004112 <HAL_RCC_OscConfig+0x24a>
 800410e:	2303      	movs	r3, #3
 8004110:	e234      	b.n	800457c <HAL_RCC_OscConfig+0x6b4>
 8004112:	4b39      	ldr	r3, [pc, #228]	@ (80041f8 <HAL_RCC_OscConfig+0x330>)
 8004114:	681a      	ldr	r2, [r3, #0]
 8004116:	2380      	movs	r3, #128	@ 0x80
 8004118:	00db      	lsls	r3, r3, #3
 800411a:	4013      	ands	r3, r2
 800411c:	d1f0      	bne.n	8004100 <HAL_RCC_OscConfig+0x238>
 800411e:	e000      	b.n	8004122 <HAL_RCC_OscConfig+0x25a>
 8004120:	46c0      	nop			@ (mov r8, r8)
 8004122:	687b      	ldr	r3, [r7, #4]
 8004124:	681b      	ldr	r3, [r3, #0]
 8004126:	2208      	movs	r2, #8
 8004128:	4013      	ands	r3, r2
 800412a:	d047      	beq.n	80041bc <HAL_RCC_OscConfig+0x2f4>
 800412c:	4b32      	ldr	r3, [pc, #200]	@ (80041f8 <HAL_RCC_OscConfig+0x330>)
 800412e:	689b      	ldr	r3, [r3, #8]
 8004130:	2238      	movs	r2, #56	@ 0x38
 8004132:	4013      	ands	r3, r2
 8004134:	2b18      	cmp	r3, #24
 8004136:	d10a      	bne.n	800414e <HAL_RCC_OscConfig+0x286>
 8004138:	4b2f      	ldr	r3, [pc, #188]	@ (80041f8 <HAL_RCC_OscConfig+0x330>)
 800413a:	6e1b      	ldr	r3, [r3, #96]	@ 0x60
 800413c:	2202      	movs	r2, #2
 800413e:	4013      	ands	r3, r2
 8004140:	d03c      	beq.n	80041bc <HAL_RCC_OscConfig+0x2f4>
 8004142:	687b      	ldr	r3, [r7, #4]
 8004144:	699b      	ldr	r3, [r3, #24]
 8004146:	2b00      	cmp	r3, #0
 8004148:	d138      	bne.n	80041bc <HAL_RCC_OscConfig+0x2f4>
 800414a:	2301      	movs	r3, #1
 800414c:	e216      	b.n	800457c <HAL_RCC_OscConfig+0x6b4>
 800414e:	687b      	ldr	r3, [r7, #4]
 8004150:	699b      	ldr	r3, [r3, #24]
 8004152:	2b00      	cmp	r3, #0
 8004154:	d019      	beq.n	800418a <HAL_RCC_OscConfig+0x2c2>
 8004156:	4b28      	ldr	r3, [pc, #160]	@ (80041f8 <HAL_RCC_OscConfig+0x330>)
 8004158:	6e1a      	ldr	r2, [r3, #96]	@ 0x60
 800415a:	4b27      	ldr	r3, [pc, #156]	@ (80041f8 <HAL_RCC_OscConfig+0x330>)
 800415c:	2101      	movs	r1, #1
 800415e:	430a      	orrs	r2, r1
 8004160:	661a      	str	r2, [r3, #96]	@ 0x60
 8004162:	f7fe fd83 	bl	8002c6c <HAL_GetTick>
 8004166:	0003      	movs	r3, r0
 8004168:	613b      	str	r3, [r7, #16]
 800416a:	e008      	b.n	800417e <HAL_RCC_OscConfig+0x2b6>
 800416c:	f7fe fd7e 	bl	8002c6c <HAL_GetTick>
 8004170:	0002      	movs	r2, r0
 8004172:	693b      	ldr	r3, [r7, #16]
 8004174:	1ad3      	subs	r3, r2, r3
 8004176:	2b02      	cmp	r3, #2
 8004178:	d901      	bls.n	800417e <HAL_RCC_OscConfig+0x2b6>
 800417a:	2303      	movs	r3, #3
 800417c:	e1fe      	b.n	800457c <HAL_RCC_OscConfig+0x6b4>
 800417e:	4b1e      	ldr	r3, [pc, #120]	@ (80041f8 <HAL_RCC_OscConfig+0x330>)
 8004180:	6e1b      	ldr	r3, [r3, #96]	@ 0x60
 8004182:	2202      	movs	r2, #2
 8004184:	4013      	ands	r3, r2
 8004186:	d0f1      	beq.n	800416c <HAL_RCC_OscConfig+0x2a4>
 8004188:	e018      	b.n	80041bc <HAL_RCC_OscConfig+0x2f4>
 800418a:	4b1b      	ldr	r3, [pc, #108]	@ (80041f8 <HAL_RCC_OscConfig+0x330>)
 800418c:	6e1a      	ldr	r2, [r3, #96]	@ 0x60
 800418e:	4b1a      	ldr	r3, [pc, #104]	@ (80041f8 <HAL_RCC_OscConfig+0x330>)
 8004190:	2101      	movs	r1, #1
 8004192:	438a      	bics	r2, r1
 8004194:	661a      	str	r2, [r3, #96]	@ 0x60
 8004196:	f7fe fd69 	bl	8002c6c <HAL_GetTick>
 800419a:	0003      	movs	r3, r0
 800419c:	613b      	str	r3, [r7, #16]
 800419e:	e008      	b.n	80041b2 <HAL_RCC_OscConfig+0x2ea>
 80041a0:	f7fe fd64 	bl	8002c6c <HAL_GetTick>
 80041a4:	0002      	movs	r2, r0
 80041a6:	693b      	ldr	r3, [r7, #16]
 80041a8:	1ad3      	subs	r3, r2, r3
 80041aa:	2b02      	cmp	r3, #2
 80041ac:	d901      	bls.n	80041b2 <HAL_RCC_OscConfig+0x2ea>
 80041ae:	2303      	movs	r3, #3
 80041b0:	e1e4      	b.n	800457c <HAL_RCC_OscConfig+0x6b4>
 80041b2:	4b11      	ldr	r3, [pc, #68]	@ (80041f8 <HAL_RCC_OscConfig+0x330>)
 80041b4:	6e1b      	ldr	r3, [r3, #96]	@ 0x60
 80041b6:	2202      	movs	r2, #2
 80041b8:	4013      	ands	r3, r2
 80041ba:	d1f1      	bne.n	80041a0 <HAL_RCC_OscConfig+0x2d8>
 80041bc:	687b      	ldr	r3, [r7, #4]
 80041be:	681b      	ldr	r3, [r3, #0]
 80041c0:	2204      	movs	r2, #4
 80041c2:	4013      	ands	r3, r2
 80041c4:	d100      	bne.n	80041c8 <HAL_RCC_OscConfig+0x300>
 80041c6:	e0c7      	b.n	8004358 <HAL_RCC_OscConfig+0x490>
 80041c8:	231f      	movs	r3, #31
 80041ca:	18fb      	adds	r3, r7, r3
 80041cc:	2200      	movs	r2, #0
 80041ce:	701a      	strb	r2, [r3, #0]
 80041d0:	4b09      	ldr	r3, [pc, #36]	@ (80041f8 <HAL_RCC_OscConfig+0x330>)
 80041d2:	689b      	ldr	r3, [r3, #8]
 80041d4:	2238      	movs	r2, #56	@ 0x38
 80041d6:	4013      	ands	r3, r2
 80041d8:	2b20      	cmp	r3, #32
 80041da:	d11f      	bne.n	800421c <HAL_RCC_OscConfig+0x354>
 80041dc:	4b06      	ldr	r3, [pc, #24]	@ (80041f8 <HAL_RCC_OscConfig+0x330>)
 80041de:	6ddb      	ldr	r3, [r3, #92]	@ 0x5c
 80041e0:	2202      	movs	r2, #2
 80041e2:	4013      	ands	r3, r2
 80041e4:	d100      	bne.n	80041e8 <HAL_RCC_OscConfig+0x320>
 80041e6:	e0b7      	b.n	8004358 <HAL_RCC_OscConfig+0x490>
 80041e8:	687b      	ldr	r3, [r7, #4]
 80041ea:	689b      	ldr	r3, [r3, #8]
 80041ec:	2b00      	cmp	r3, #0
 80041ee:	d000      	beq.n	80041f2 <HAL_RCC_OscConfig+0x32a>
 80041f0:	e0b2      	b.n	8004358 <HAL_RCC_OscConfig+0x490>
 80041f2:	2301      	movs	r3, #1
 80041f4:	e1c2      	b.n	800457c <HAL_RCC_OscConfig+0x6b4>
 80041f6:	46c0      	nop			@ (mov r8, r8)
 80041f8:	40021000 	.word	0x40021000
 80041fc:	fffeffff 	.word	0xfffeffff
 8004200:	fffbffff 	.word	0xfffbffff
 8004204:	ffff80ff 	.word	0xffff80ff
 8004208:	ffffc7ff 	.word	0xffffc7ff
 800420c:	00f42400 	.word	0x00f42400
 8004210:	200009e4 	.word	0x200009e4
 8004214:	200009e8 	.word	0x200009e8
 8004218:	fffffeff 	.word	0xfffffeff
 800421c:	4bb5      	ldr	r3, [pc, #724]	@ (80044f4 <HAL_RCC_OscConfig+0x62c>)
 800421e:	6bda      	ldr	r2, [r3, #60]	@ 0x3c
 8004220:	2380      	movs	r3, #128	@ 0x80
 8004222:	055b      	lsls	r3, r3, #21
 8004224:	4013      	ands	r3, r2
 8004226:	d101      	bne.n	800422c <HAL_RCC_OscConfig+0x364>
 8004228:	2301      	movs	r3, #1
 800422a:	e000      	b.n	800422e <HAL_RCC_OscConfig+0x366>
 800422c:	2300      	movs	r3, #0
 800422e:	2b00      	cmp	r3, #0
 8004230:	d011      	beq.n	8004256 <HAL_RCC_OscConfig+0x38e>
 8004232:	4bb0      	ldr	r3, [pc, #704]	@ (80044f4 <HAL_RCC_OscConfig+0x62c>)
 8004234:	6bda      	ldr	r2, [r3, #60]	@ 0x3c
 8004236:	4baf      	ldr	r3, [pc, #700]	@ (80044f4 <HAL_RCC_OscConfig+0x62c>)
 8004238:	2180      	movs	r1, #128	@ 0x80
 800423a:	0549      	lsls	r1, r1, #21
 800423c:	430a      	orrs	r2, r1
 800423e:	63da      	str	r2, [r3, #60]	@ 0x3c
 8004240:	4bac      	ldr	r3, [pc, #688]	@ (80044f4 <HAL_RCC_OscConfig+0x62c>)
 8004242:	6bda      	ldr	r2, [r3, #60]	@ 0x3c
 8004244:	2380      	movs	r3, #128	@ 0x80
 8004246:	055b      	lsls	r3, r3, #21
 8004248:	4013      	ands	r3, r2
 800424a:	60fb      	str	r3, [r7, #12]
 800424c:	68fb      	ldr	r3, [r7, #12]
 800424e:	231f      	movs	r3, #31
 8004250:	18fb      	adds	r3, r7, r3
 8004252:	2201      	movs	r2, #1
 8004254:	701a      	strb	r2, [r3, #0]
 8004256:	4ba8      	ldr	r3, [pc, #672]	@ (80044f8 <HAL_RCC_OscConfig+0x630>)
 8004258:	681a      	ldr	r2, [r3, #0]
 800425a:	2380      	movs	r3, #128	@ 0x80
 800425c:	005b      	lsls	r3, r3, #1
 800425e:	4013      	ands	r3, r2
 8004260:	d11a      	bne.n	8004298 <HAL_RCC_OscConfig+0x3d0>
 8004262:	4ba5      	ldr	r3, [pc, #660]	@ (80044f8 <HAL_RCC_OscConfig+0x630>)
 8004264:	681a      	ldr	r2, [r3, #0]
 8004266:	4ba4      	ldr	r3, [pc, #656]	@ (80044f8 <HAL_RCC_OscConfig+0x630>)
 8004268:	2180      	movs	r1, #128	@ 0x80
 800426a:	0049      	lsls	r1, r1, #1
 800426c:	430a      	orrs	r2, r1
 800426e:	601a      	str	r2, [r3, #0]
 8004270:	f7fe fcfc 	bl	8002c6c <HAL_GetTick>
 8004274:	0003      	movs	r3, r0
 8004276:	613b      	str	r3, [r7, #16]
 8004278:	e008      	b.n	800428c <HAL_RCC_OscConfig+0x3c4>
 800427a:	f7fe fcf7 	bl	8002c6c <HAL_GetTick>
 800427e:	0002      	movs	r2, r0
 8004280:	693b      	ldr	r3, [r7, #16]
 8004282:	1ad3      	subs	r3, r2, r3
 8004284:	2b02      	cmp	r3, #2
 8004286:	d901      	bls.n	800428c <HAL_RCC_OscConfig+0x3c4>
 8004288:	2303      	movs	r3, #3
 800428a:	e177      	b.n	800457c <HAL_RCC_OscConfig+0x6b4>
 800428c:	4b9a      	ldr	r3, [pc, #616]	@ (80044f8 <HAL_RCC_OscConfig+0x630>)
 800428e:	681a      	ldr	r2, [r3, #0]
 8004290:	2380      	movs	r3, #128	@ 0x80
 8004292:	005b      	lsls	r3, r3, #1
 8004294:	4013      	ands	r3, r2
 8004296:	d0f0      	beq.n	800427a <HAL_RCC_OscConfig+0x3b2>
 8004298:	687b      	ldr	r3, [r7, #4]
 800429a:	689b      	ldr	r3, [r3, #8]
 800429c:	2b01      	cmp	r3, #1
 800429e:	d106      	bne.n	80042ae <HAL_RCC_OscConfig+0x3e6>
 80042a0:	4b94      	ldr	r3, [pc, #592]	@ (80044f4 <HAL_RCC_OscConfig+0x62c>)
 80042a2:	6dda      	ldr	r2, [r3, #92]	@ 0x5c
 80042a4:	4b93      	ldr	r3, [pc, #588]	@ (80044f4 <HAL_RCC_OscConfig+0x62c>)
 80042a6:	2101      	movs	r1, #1
 80042a8:	430a      	orrs	r2, r1
 80042aa:	65da      	str	r2, [r3, #92]	@ 0x5c
 80042ac:	e01c      	b.n	80042e8 <HAL_RCC_OscConfig+0x420>
 80042ae:	687b      	ldr	r3, [r7, #4]
 80042b0:	689b      	ldr	r3, [r3, #8]
 80042b2:	2b05      	cmp	r3, #5
 80042b4:	d10c      	bne.n	80042d0 <HAL_RCC_OscConfig+0x408>
 80042b6:	4b8f      	ldr	r3, [pc, #572]	@ (80044f4 <HAL_RCC_OscConfig+0x62c>)
 80042b8:	6dda      	ldr	r2, [r3, #92]	@ 0x5c
 80042ba:	4b8e      	ldr	r3, [pc, #568]	@ (80044f4 <HAL_RCC_OscConfig+0x62c>)
 80042bc:	2104      	movs	r1, #4
 80042be:	430a      	orrs	r2, r1
 80042c0:	65da      	str	r2, [r3, #92]	@ 0x5c
 80042c2:	4b8c      	ldr	r3, [pc, #560]	@ (80044f4 <HAL_RCC_OscConfig+0x62c>)
 80042c4:	6dda      	ldr	r2, [r3, #92]	@ 0x5c
 80042c6:	4b8b      	ldr	r3, [pc, #556]	@ (80044f4 <HAL_RCC_OscConfig+0x62c>)
 80042c8:	2101      	movs	r1, #1
 80042ca:	430a      	orrs	r2, r1
 80042cc:	65da      	str	r2, [r3, #92]	@ 0x5c
 80042ce:	e00b      	b.n	80042e8 <HAL_RCC_OscConfig+0x420>
 80042d0:	4b88      	ldr	r3, [pc, #544]	@ (80044f4 <HAL_RCC_OscConfig+0x62c>)
 80042d2:	6dda      	ldr	r2, [r3, #92]	@ 0x5c
 80042d4:	4b87      	ldr	r3, [pc, #540]	@ (80044f4 <HAL_RCC_OscConfig+0x62c>)
 80042d6:	2101      	movs	r1, #1
 80042d8:	438a      	bics	r2, r1
 80042da:	65da      	str	r2, [r3, #92]	@ 0x5c
 80042dc:	4b85      	ldr	r3, [pc, #532]	@ (80044f4 <HAL_RCC_OscConfig+0x62c>)
 80042de:	6dda      	ldr	r2, [r3, #92]	@ 0x5c
 80042e0:	4b84      	ldr	r3, [pc, #528]	@ (80044f4 <HAL_RCC_OscConfig+0x62c>)
 80042e2:	2104      	movs	r1, #4
 80042e4:	438a      	bics	r2, r1
 80042e6:	65da      	str	r2, [r3, #92]	@ 0x5c
 80042e8:	687b      	ldr	r3, [r7, #4]
 80042ea:	689b      	ldr	r3, [r3, #8]
 80042ec:	2b00      	cmp	r3, #0
 80042ee:	d014      	beq.n	800431a <HAL_RCC_OscConfig+0x452>
 80042f0:	f7fe fcbc 	bl	8002c6c <HAL_GetTick>
 80042f4:	0003      	movs	r3, r0
 80042f6:	613b      	str	r3, [r7, #16]
 80042f8:	e009      	b.n	800430e <HAL_RCC_OscConfig+0x446>
 80042fa:	f7fe fcb7 	bl	8002c6c <HAL_GetTick>
 80042fe:	0002      	movs	r2, r0
 8004300:	693b      	ldr	r3, [r7, #16]
 8004302:	1ad3      	subs	r3, r2, r3
 8004304:	4a7d      	ldr	r2, [pc, #500]	@ (80044fc <HAL_RCC_OscConfig+0x634>)
 8004306:	4293      	cmp	r3, r2
 8004308:	d901      	bls.n	800430e <HAL_RCC_OscConfig+0x446>
 800430a:	2303      	movs	r3, #3
 800430c:	e136      	b.n	800457c <HAL_RCC_OscConfig+0x6b4>
 800430e:	4b79      	ldr	r3, [pc, #484]	@ (80044f4 <HAL_RCC_OscConfig+0x62c>)
 8004310:	6ddb      	ldr	r3, [r3, #92]	@ 0x5c
 8004312:	2202      	movs	r2, #2
 8004314:	4013      	ands	r3, r2
 8004316:	d0f0      	beq.n	80042fa <HAL_RCC_OscConfig+0x432>
 8004318:	e013      	b.n	8004342 <HAL_RCC_OscConfig+0x47a>
 800431a:	f7fe fca7 	bl	8002c6c <HAL_GetTick>
 800431e:	0003      	movs	r3, r0
 8004320:	613b      	str	r3, [r7, #16]
 8004322:	e009      	b.n	8004338 <HAL_RCC_OscConfig+0x470>
 8004324:	f7fe fca2 	bl	8002c6c <HAL_GetTick>
 8004328:	0002      	movs	r2, r0
 800432a:	693b      	ldr	r3, [r7, #16]
 800432c:	1ad3      	subs	r3, r2, r3
 800432e:	4a73      	ldr	r2, [pc, #460]	@ (80044fc <HAL_RCC_OscConfig+0x634>)
 8004330:	4293      	cmp	r3, r2
 8004332:	d901      	bls.n	8004338 <HAL_RCC_OscConfig+0x470>
 8004334:	2303      	movs	r3, #3
 8004336:	e121      	b.n	800457c <HAL_RCC_OscConfig+0x6b4>
 8004338:	4b6e      	ldr	r3, [pc, #440]	@ (80044f4 <HAL_RCC_OscConfig+0x62c>)
 800433a:	6ddb      	ldr	r3, [r3, #92]	@ 0x5c
 800433c:	2202      	movs	r2, #2
 800433e:	4013      	ands	r3, r2
 8004340:	d1f0      	bne.n	8004324 <HAL_RCC_OscConfig+0x45c>
 8004342:	231f      	movs	r3, #31
 8004344:	18fb      	adds	r3, r7, r3
 8004346:	781b      	ldrb	r3, [r3, #0]
 8004348:	2b01      	cmp	r3, #1
 800434a:	d105      	bne.n	8004358 <HAL_RCC_OscConfig+0x490>
 800434c:	4b69      	ldr	r3, [pc, #420]	@ (80044f4 <HAL_RCC_OscConfig+0x62c>)
 800434e:	6bda      	ldr	r2, [r3, #60]	@ 0x3c
 8004350:	4b68      	ldr	r3, [pc, #416]	@ (80044f4 <HAL_RCC_OscConfig+0x62c>)
 8004352:	496b      	ldr	r1, [pc, #428]	@ (8004500 <HAL_RCC_OscConfig+0x638>)
 8004354:	400a      	ands	r2, r1
 8004356:	63da      	str	r2, [r3, #60]	@ 0x3c
 8004358:	687b      	ldr	r3, [r7, #4]
 800435a:	681b      	ldr	r3, [r3, #0]
 800435c:	2220      	movs	r2, #32
 800435e:	4013      	ands	r3, r2
 8004360:	d039      	beq.n	80043d6 <HAL_RCC_OscConfig+0x50e>
 8004362:	687b      	ldr	r3, [r7, #4]
 8004364:	69db      	ldr	r3, [r3, #28]
 8004366:	2b00      	cmp	r3, #0
 8004368:	d01b      	beq.n	80043a2 <HAL_RCC_OscConfig+0x4da>
 800436a:	4b62      	ldr	r3, [pc, #392]	@ (80044f4 <HAL_RCC_OscConfig+0x62c>)
 800436c:	681a      	ldr	r2, [r3, #0]
 800436e:	4b61      	ldr	r3, [pc, #388]	@ (80044f4 <HAL_RCC_OscConfig+0x62c>)
 8004370:	2180      	movs	r1, #128	@ 0x80
 8004372:	03c9      	lsls	r1, r1, #15
 8004374:	430a      	orrs	r2, r1
 8004376:	601a      	str	r2, [r3, #0]
 8004378:	f7fe fc78 	bl	8002c6c <HAL_GetTick>
 800437c:	0003      	movs	r3, r0
 800437e:	613b      	str	r3, [r7, #16]
 8004380:	e008      	b.n	8004394 <HAL_RCC_OscConfig+0x4cc>
 8004382:	f7fe fc73 	bl	8002c6c <HAL_GetTick>
 8004386:	0002      	movs	r2, r0
 8004388:	693b      	ldr	r3, [r7, #16]
 800438a:	1ad3      	subs	r3, r2, r3
 800438c:	2b02      	cmp	r3, #2
 800438e:	d901      	bls.n	8004394 <HAL_RCC_OscConfig+0x4cc>
 8004390:	2303      	movs	r3, #3
 8004392:	e0f3      	b.n	800457c <HAL_RCC_OscConfig+0x6b4>
 8004394:	4b57      	ldr	r3, [pc, #348]	@ (80044f4 <HAL_RCC_OscConfig+0x62c>)
 8004396:	681a      	ldr	r2, [r3, #0]
 8004398:	2380      	movs	r3, #128	@ 0x80
 800439a:	041b      	lsls	r3, r3, #16
 800439c:	4013      	ands	r3, r2
 800439e:	d0f0      	beq.n	8004382 <HAL_RCC_OscConfig+0x4ba>
 80043a0:	e019      	b.n	80043d6 <HAL_RCC_OscConfig+0x50e>
 80043a2:	4b54      	ldr	r3, [pc, #336]	@ (80044f4 <HAL_RCC_OscConfig+0x62c>)
 80043a4:	681a      	ldr	r2, [r3, #0]
 80043a6:	4b53      	ldr	r3, [pc, #332]	@ (80044f4 <HAL_RCC_OscConfig+0x62c>)
 80043a8:	4956      	ldr	r1, [pc, #344]	@ (8004504 <HAL_RCC_OscConfig+0x63c>)
 80043aa:	400a      	ands	r2, r1
 80043ac:	601a      	str	r2, [r3, #0]
 80043ae:	f7fe fc5d 	bl	8002c6c <HAL_GetTick>
 80043b2:	0003      	movs	r3, r0
 80043b4:	613b      	str	r3, [r7, #16]
 80043b6:	e008      	b.n	80043ca <HAL_RCC_OscConfig+0x502>
 80043b8:	f7fe fc58 	bl	8002c6c <HAL_GetTick>
 80043bc:	0002      	movs	r2, r0
 80043be:	693b      	ldr	r3, [r7, #16]
 80043c0:	1ad3      	subs	r3, r2, r3
 80043c2:	2b02      	cmp	r3, #2
 80043c4:	d901      	bls.n	80043ca <HAL_RCC_OscConfig+0x502>
 80043c6:	2303      	movs	r3, #3
 80043c8:	e0d8      	b.n	800457c <HAL_RCC_OscConfig+0x6b4>
 80043ca:	4b4a      	ldr	r3, [pc, #296]	@ (80044f4 <HAL_RCC_OscConfig+0x62c>)
 80043cc:	681a      	ldr	r2, [r3, #0]
 80043ce:	2380      	movs	r3, #128	@ 0x80
 80043d0:	041b      	lsls	r3, r3, #16
 80043d2:	4013      	ands	r3, r2
 80043d4:	d1f0      	bne.n	80043b8 <HAL_RCC_OscConfig+0x4f0>
 80043d6:	687b      	ldr	r3, [r7, #4]
 80043d8:	6a1b      	ldr	r3, [r3, #32]
 80043da:	2b00      	cmp	r3, #0
 80043dc:	d100      	bne.n	80043e0 <HAL_RCC_OscConfig+0x518>
 80043de:	e0cc      	b.n	800457a <HAL_RCC_OscConfig+0x6b2>
 80043e0:	4b44      	ldr	r3, [pc, #272]	@ (80044f4 <HAL_RCC_OscConfig+0x62c>)
 80043e2:	689b      	ldr	r3, [r3, #8]
 80043e4:	2238      	movs	r2, #56	@ 0x38
 80043e6:	4013      	ands	r3, r2
 80043e8:	2b10      	cmp	r3, #16
 80043ea:	d100      	bne.n	80043ee <HAL_RCC_OscConfig+0x526>
 80043ec:	e07b      	b.n	80044e6 <HAL_RCC_OscConfig+0x61e>
 80043ee:	687b      	ldr	r3, [r7, #4]
 80043f0:	6a1b      	ldr	r3, [r3, #32]
 80043f2:	2b02      	cmp	r3, #2
 80043f4:	d156      	bne.n	80044a4 <HAL_RCC_OscConfig+0x5dc>
 80043f6:	4b3f      	ldr	r3, [pc, #252]	@ (80044f4 <HAL_RCC_OscConfig+0x62c>)
 80043f8:	681a      	ldr	r2, [r3, #0]
 80043fa:	4b3e      	ldr	r3, [pc, #248]	@ (80044f4 <HAL_RCC_OscConfig+0x62c>)
 80043fc:	4942      	ldr	r1, [pc, #264]	@ (8004508 <HAL_RCC_OscConfig+0x640>)
 80043fe:	400a      	ands	r2, r1
 8004400:	601a      	str	r2, [r3, #0]
 8004402:	f7fe fc33 	bl	8002c6c <HAL_GetTick>
 8004406:	0003      	movs	r3, r0
 8004408:	613b      	str	r3, [r7, #16]
 800440a:	e008      	b.n	800441e <HAL_RCC_OscConfig+0x556>
 800440c:	f7fe fc2e 	bl	8002c6c <HAL_GetTick>
 8004410:	0002      	movs	r2, r0
 8004412:	693b      	ldr	r3, [r7, #16]
 8004414:	1ad3      	subs	r3, r2, r3
 8004416:	2b02      	cmp	r3, #2
 8004418:	d901      	bls.n	800441e <HAL_RCC_OscConfig+0x556>
 800441a:	2303      	movs	r3, #3
 800441c:	e0ae      	b.n	800457c <HAL_RCC_OscConfig+0x6b4>
 800441e:	4b35      	ldr	r3, [pc, #212]	@ (80044f4 <HAL_RCC_OscConfig+0x62c>)
 8004420:	681a      	ldr	r2, [r3, #0]
 8004422:	2380      	movs	r3, #128	@ 0x80
 8004424:	049b      	lsls	r3, r3, #18
 8004426:	4013      	ands	r3, r2
 8004428:	d1f0      	bne.n	800440c <HAL_RCC_OscConfig+0x544>
 800442a:	4b32      	ldr	r3, [pc, #200]	@ (80044f4 <HAL_RCC_OscConfig+0x62c>)
 800442c:	68db      	ldr	r3, [r3, #12]
 800442e:	4a37      	ldr	r2, [pc, #220]	@ (800450c <HAL_RCC_OscConfig+0x644>)
 8004430:	4013      	ands	r3, r2
 8004432:	0019      	movs	r1, r3
 8004434:	687b      	ldr	r3, [r7, #4]
 8004436:	6a5a      	ldr	r2, [r3, #36]	@ 0x24
 8004438:	687b      	ldr	r3, [r7, #4]
 800443a:	6a9b      	ldr	r3, [r3, #40]	@ 0x28
 800443c:	431a      	orrs	r2, r3
 800443e:	687b      	ldr	r3, [r7, #4]
 8004440:	6adb      	ldr	r3, [r3, #44]	@ 0x2c
 8004442:	021b      	lsls	r3, r3, #8
 8004444:	431a      	orrs	r2, r3
 8004446:	687b      	ldr	r3, [r7, #4]
 8004448:	6b1b      	ldr	r3, [r3, #48]	@ 0x30
 800444a:	431a      	orrs	r2, r3
 800444c:	687b      	ldr	r3, [r7, #4]
 800444e:	6b5b      	ldr	r3, [r3, #52]	@ 0x34
 8004450:	431a      	orrs	r2, r3
 8004452:	687b      	ldr	r3, [r7, #4]
 8004454:	6b9b      	ldr	r3, [r3, #56]	@ 0x38
 8004456:	431a      	orrs	r2, r3
 8004458:	4b26      	ldr	r3, [pc, #152]	@ (80044f4 <HAL_RCC_OscConfig+0x62c>)
 800445a:	430a      	orrs	r2, r1
 800445c:	60da      	str	r2, [r3, #12]
 800445e:	4b25      	ldr	r3, [pc, #148]	@ (80044f4 <HAL_RCC_OscConfig+0x62c>)
 8004460:	681a      	ldr	r2, [r3, #0]
 8004462:	4b24      	ldr	r3, [pc, #144]	@ (80044f4 <HAL_RCC_OscConfig+0x62c>)
 8004464:	2180      	movs	r1, #128	@ 0x80
 8004466:	0449      	lsls	r1, r1, #17
 8004468:	430a      	orrs	r2, r1
 800446a:	601a      	str	r2, [r3, #0]
 800446c:	4b21      	ldr	r3, [pc, #132]	@ (80044f4 <HAL_RCC_OscConfig+0x62c>)
 800446e:	68da      	ldr	r2, [r3, #12]
 8004470:	4b20      	ldr	r3, [pc, #128]	@ (80044f4 <HAL_RCC_OscConfig+0x62c>)
 8004472:	2180      	movs	r1, #128	@ 0x80
 8004474:	0549      	lsls	r1, r1, #21
 8004476:	430a      	orrs	r2, r1
 8004478:	60da      	str	r2, [r3, #12]
 800447a:	f7fe fbf7 	bl	8002c6c <HAL_GetTick>
 800447e:	0003      	movs	r3, r0
 8004480:	613b      	str	r3, [r7, #16]
 8004482:	e008      	b.n	8004496 <HAL_RCC_OscConfig+0x5ce>
 8004484:	f7fe fbf2 	bl	8002c6c <HAL_GetTick>
 8004488:	0002      	movs	r2, r0
 800448a:	693b      	ldr	r3, [r7, #16]
 800448c:	1ad3      	subs	r3, r2, r3
 800448e:	2b02      	cmp	r3, #2
 8004490:	d901      	bls.n	8004496 <HAL_RCC_OscConfig+0x5ce>
 8004492:	2303      	movs	r3, #3
 8004494:	e072      	b.n	800457c <HAL_RCC_OscConfig+0x6b4>
 8004496:	4b17      	ldr	r3, [pc, #92]	@ (80044f4 <HAL_RCC_OscConfig+0x62c>)
 8004498:	681a      	ldr	r2, [r3, #0]
 800449a:	2380      	movs	r3, #128	@ 0x80
 800449c:	049b      	lsls	r3, r3, #18
 800449e:	4013      	ands	r3, r2
 80044a0:	d0f0      	beq.n	8004484 <HAL_RCC_OscConfig+0x5bc>
 80044a2:	e06a      	b.n	800457a <HAL_RCC_OscConfig+0x6b2>
 80044a4:	4b13      	ldr	r3, [pc, #76]	@ (80044f4 <HAL_RCC_OscConfig+0x62c>)
 80044a6:	681a      	ldr	r2, [r3, #0]
 80044a8:	4b12      	ldr	r3, [pc, #72]	@ (80044f4 <HAL_RCC_OscConfig+0x62c>)
 80044aa:	4917      	ldr	r1, [pc, #92]	@ (8004508 <HAL_RCC_OscConfig+0x640>)
 80044ac:	400a      	ands	r2, r1
 80044ae:	601a      	str	r2, [r3, #0]
 80044b0:	f7fe fbdc 	bl	8002c6c <HAL_GetTick>
 80044b4:	0003      	movs	r3, r0
 80044b6:	613b      	str	r3, [r7, #16]
 80044b8:	e008      	b.n	80044cc <HAL_RCC_OscConfig+0x604>
 80044ba:	f7fe fbd7 	bl	8002c6c <HAL_GetTick>
 80044be:	0002      	movs	r2, r0
 80044c0:	693b      	ldr	r3, [r7, #16]
 80044c2:	1ad3      	subs	r3, r2, r3
 80044c4:	2b02      	cmp	r3, #2
 80044c6:	d901      	bls.n	80044cc <HAL_RCC_OscConfig+0x604>
 80044c8:	2303      	movs	r3, #3
 80044ca:	e057      	b.n	800457c <HAL_RCC_OscConfig+0x6b4>
 80044cc:	4b09      	ldr	r3, [pc, #36]	@ (80044f4 <HAL_RCC_OscConfig+0x62c>)
 80044ce:	681a      	ldr	r2, [r3, #0]
 80044d0:	2380      	movs	r3, #128	@ 0x80
 80044d2:	049b      	lsls	r3, r3, #18
 80044d4:	4013      	ands	r3, r2
 80044d6:	d1f0      	bne.n	80044ba <HAL_RCC_OscConfig+0x5f2>
 80044d8:	4b06      	ldr	r3, [pc, #24]	@ (80044f4 <HAL_RCC_OscConfig+0x62c>)
 80044da:	68da      	ldr	r2, [r3, #12]
 80044dc:	4b05      	ldr	r3, [pc, #20]	@ (80044f4 <HAL_RCC_OscConfig+0x62c>)
 80044de:	490c      	ldr	r1, [pc, #48]	@ (8004510 <HAL_RCC_OscConfig+0x648>)
 80044e0:	400a      	ands	r2, r1
 80044e2:	60da      	str	r2, [r3, #12]
 80044e4:	e049      	b.n	800457a <HAL_RCC_OscConfig+0x6b2>
 80044e6:	687b      	ldr	r3, [r7, #4]
 80044e8:	6a1b      	ldr	r3, [r3, #32]
 80044ea:	2b01      	cmp	r3, #1
 80044ec:	d112      	bne.n	8004514 <HAL_RCC_OscConfig+0x64c>
 80044ee:	2301      	movs	r3, #1
 80044f0:	e044      	b.n	800457c <HAL_RCC_OscConfig+0x6b4>
 80044f2:	46c0      	nop			@ (mov r8, r8)
 80044f4:	40021000 	.word	0x40021000
 80044f8:	40007000 	.word	0x40007000
 80044fc:	00001388 	.word	0x00001388
 8004500:	efffffff 	.word	0xefffffff
 8004504:	ffbfffff 	.word	0xffbfffff
 8004508:	feffffff 	.word	0xfeffffff
 800450c:	11c1808c 	.word	0x11c1808c
 8004510:	eefefffc 	.word	0xeefefffc
 8004514:	4b1b      	ldr	r3, [pc, #108]	@ (8004584 <HAL_RCC_OscConfig+0x6bc>)
 8004516:	68db      	ldr	r3, [r3, #12]
 8004518:	617b      	str	r3, [r7, #20]
 800451a:	697b      	ldr	r3, [r7, #20]
 800451c:	2203      	movs	r2, #3
 800451e:	401a      	ands	r2, r3
 8004520:	687b      	ldr	r3, [r7, #4]
 8004522:	6a5b      	ldr	r3, [r3, #36]	@ 0x24
 8004524:	429a      	cmp	r2, r3
 8004526:	d126      	bne.n	8004576 <HAL_RCC_OscConfig+0x6ae>
 8004528:	697b      	ldr	r3, [r7, #20]
 800452a:	2270      	movs	r2, #112	@ 0x70
 800452c:	401a      	ands	r2, r3
 800452e:	687b      	ldr	r3, [r7, #4]
 8004530:	6a9b      	ldr	r3, [r3, #40]	@ 0x28
 8004532:	429a      	cmp	r2, r3
 8004534:	d11f      	bne.n	8004576 <HAL_RCC_OscConfig+0x6ae>
 8004536:	697a      	ldr	r2, [r7, #20]
 8004538:	23fe      	movs	r3, #254	@ 0xfe
 800453a:	01db      	lsls	r3, r3, #7
 800453c:	401a      	ands	r2, r3
 800453e:	687b      	ldr	r3, [r7, #4]
 8004540:	6adb      	ldr	r3, [r3, #44]	@ 0x2c
 8004542:	021b      	lsls	r3, r3, #8
 8004544:	429a      	cmp	r2, r3
 8004546:	d116      	bne.n	8004576 <HAL_RCC_OscConfig+0x6ae>
 8004548:	697a      	ldr	r2, [r7, #20]
 800454a:	23f8      	movs	r3, #248	@ 0xf8
 800454c:	039b      	lsls	r3, r3, #14
 800454e:	401a      	ands	r2, r3
 8004550:	687b      	ldr	r3, [r7, #4]
 8004552:	6b1b      	ldr	r3, [r3, #48]	@ 0x30
 8004554:	429a      	cmp	r2, r3
 8004556:	d10e      	bne.n	8004576 <HAL_RCC_OscConfig+0x6ae>
 8004558:	697a      	ldr	r2, [r7, #20]
 800455a:	23e0      	movs	r3, #224	@ 0xe0
 800455c:	051b      	lsls	r3, r3, #20
 800455e:	401a      	ands	r2, r3
 8004560:	687b      	ldr	r3, [r7, #4]
 8004562:	6b5b      	ldr	r3, [r3, #52]	@ 0x34
 8004564:	429a      	cmp	r2, r3
 8004566:	d106      	bne.n	8004576 <HAL_RCC_OscConfig+0x6ae>
 8004568:	697b      	ldr	r3, [r7, #20]
 800456a:	0f5b      	lsrs	r3, r3, #29
 800456c:	075a      	lsls	r2, r3, #29
 800456e:	687b      	ldr	r3, [r7, #4]
 8004570:	6b9b      	ldr	r3, [r3, #56]	@ 0x38
 8004572:	429a      	cmp	r2, r3
 8004574:	d001      	beq.n	800457a <HAL_RCC_OscConfig+0x6b2>
 8004576:	2301      	movs	r3, #1
 8004578:	e000      	b.n	800457c <HAL_RCC_OscConfig+0x6b4>
 800457a:	2300      	movs	r3, #0
 800457c:	0018      	movs	r0, r3
 800457e:	46bd      	mov	sp, r7
 8004580:	b008      	add	sp, #32
 8004582:	bd80      	pop	{r7, pc}
 8004584:	40021000 	.word	0x40021000

08004588 <HAL_RCC_ClockConfig>:
 8004588:	b580      	push	{r7, lr}
 800458a:	b084      	sub	sp, #16
 800458c:	af00      	add	r7, sp, #0
 800458e:	6078      	str	r0, [r7, #4]
 8004590:	6039      	str	r1, [r7, #0]
 8004592:	687b      	ldr	r3, [r7, #4]
 8004594:	2b00      	cmp	r3, #0
 8004596:	d101      	bne.n	800459c <HAL_RCC_ClockConfig+0x14>
 8004598:	2301      	movs	r3, #1
 800459a:	e0e9      	b.n	8004770 <HAL_RCC_ClockConfig+0x1e8>
 800459c:	4b76      	ldr	r3, [pc, #472]	@ (8004778 <HAL_RCC_ClockConfig+0x1f0>)
 800459e:	681b      	ldr	r3, [r3, #0]
 80045a0:	2207      	movs	r2, #7
 80045a2:	4013      	ands	r3, r2
 80045a4:	683a      	ldr	r2, [r7, #0]
 80045a6:	429a      	cmp	r2, r3
 80045a8:	d91e      	bls.n	80045e8 <HAL_RCC_ClockConfig+0x60>
 80045aa:	4b73      	ldr	r3, [pc, #460]	@ (8004778 <HAL_RCC_ClockConfig+0x1f0>)
 80045ac:	681b      	ldr	r3, [r3, #0]
 80045ae:	2207      	movs	r2, #7
 80045b0:	4393      	bics	r3, r2
 80045b2:	0019      	movs	r1, r3
 80045b4:	4b70      	ldr	r3, [pc, #448]	@ (8004778 <HAL_RCC_ClockConfig+0x1f0>)
 80045b6:	683a      	ldr	r2, [r7, #0]
 80045b8:	430a      	orrs	r2, r1
 80045ba:	601a      	str	r2, [r3, #0]
 80045bc:	f7fe fb56 	bl	8002c6c <HAL_GetTick>
 80045c0:	0003      	movs	r3, r0
 80045c2:	60fb      	str	r3, [r7, #12]
 80045c4:	e009      	b.n	80045da <HAL_RCC_ClockConfig+0x52>
 80045c6:	f7fe fb51 	bl	8002c6c <HAL_GetTick>
 80045ca:	0002      	movs	r2, r0
 80045cc:	68fb      	ldr	r3, [r7, #12]
 80045ce:	1ad3      	subs	r3, r2, r3
 80045d0:	4a6a      	ldr	r2, [pc, #424]	@ (800477c <HAL_RCC_ClockConfig+0x1f4>)
 80045d2:	4293      	cmp	r3, r2
 80045d4:	d901      	bls.n	80045da <HAL_RCC_ClockConfig+0x52>
 80045d6:	2303      	movs	r3, #3
 80045d8:	e0ca      	b.n	8004770 <HAL_RCC_ClockConfig+0x1e8>
 80045da:	4b67      	ldr	r3, [pc, #412]	@ (8004778 <HAL_RCC_ClockConfig+0x1f0>)
 80045dc:	681b      	ldr	r3, [r3, #0]
 80045de:	2207      	movs	r2, #7
 80045e0:	4013      	ands	r3, r2
 80045e2:	683a      	ldr	r2, [r7, #0]
 80045e4:	429a      	cmp	r2, r3
 80045e6:	d1ee      	bne.n	80045c6 <HAL_RCC_ClockConfig+0x3e>
 80045e8:	687b      	ldr	r3, [r7, #4]
 80045ea:	681b      	ldr	r3, [r3, #0]
 80045ec:	2202      	movs	r2, #2
 80045ee:	4013      	ands	r3, r2
 80045f0:	d015      	beq.n	800461e <HAL_RCC_ClockConfig+0x96>
 80045f2:	687b      	ldr	r3, [r7, #4]
 80045f4:	681b      	ldr	r3, [r3, #0]
 80045f6:	2204      	movs	r2, #4
 80045f8:	4013      	ands	r3, r2
 80045fa:	d006      	beq.n	800460a <HAL_RCC_ClockConfig+0x82>
 80045fc:	4b60      	ldr	r3, [pc, #384]	@ (8004780 <HAL_RCC_ClockConfig+0x1f8>)
 80045fe:	689a      	ldr	r2, [r3, #8]
 8004600:	4b5f      	ldr	r3, [pc, #380]	@ (8004780 <HAL_RCC_ClockConfig+0x1f8>)
 8004602:	21e0      	movs	r1, #224	@ 0xe0
 8004604:	01c9      	lsls	r1, r1, #7
 8004606:	430a      	orrs	r2, r1
 8004608:	609a      	str	r2, [r3, #8]
 800460a:	4b5d      	ldr	r3, [pc, #372]	@ (8004780 <HAL_RCC_ClockConfig+0x1f8>)
 800460c:	689b      	ldr	r3, [r3, #8]
 800460e:	4a5d      	ldr	r2, [pc, #372]	@ (8004784 <HAL_RCC_ClockConfig+0x1fc>)
 8004610:	4013      	ands	r3, r2
 8004612:	0019      	movs	r1, r3
 8004614:	687b      	ldr	r3, [r7, #4]
 8004616:	689a      	ldr	r2, [r3, #8]
 8004618:	4b59      	ldr	r3, [pc, #356]	@ (8004780 <HAL_RCC_ClockConfig+0x1f8>)
 800461a:	430a      	orrs	r2, r1
 800461c:	609a      	str	r2, [r3, #8]
 800461e:	687b      	ldr	r3, [r7, #4]
 8004620:	681b      	ldr	r3, [r3, #0]
 8004622:	2201      	movs	r2, #1
 8004624:	4013      	ands	r3, r2
 8004626:	d057      	beq.n	80046d8 <HAL_RCC_ClockConfig+0x150>
 8004628:	687b      	ldr	r3, [r7, #4]
 800462a:	685b      	ldr	r3, [r3, #4]
 800462c:	2b01      	cmp	r3, #1
 800462e:	d107      	bne.n	8004640 <HAL_RCC_ClockConfig+0xb8>
 8004630:	4b53      	ldr	r3, [pc, #332]	@ (8004780 <HAL_RCC_ClockConfig+0x1f8>)
 8004632:	681a      	ldr	r2, [r3, #0]
 8004634:	2380      	movs	r3, #128	@ 0x80
 8004636:	029b      	lsls	r3, r3, #10
 8004638:	4013      	ands	r3, r2
 800463a:	d12b      	bne.n	8004694 <HAL_RCC_ClockConfig+0x10c>
 800463c:	2301      	movs	r3, #1
 800463e:	e097      	b.n	8004770 <HAL_RCC_ClockConfig+0x1e8>
 8004640:	687b      	ldr	r3, [r7, #4]
 8004642:	685b      	ldr	r3, [r3, #4]
 8004644:	2b02      	cmp	r3, #2
 8004646:	d107      	bne.n	8004658 <HAL_RCC_ClockConfig+0xd0>
 8004648:	4b4d      	ldr	r3, [pc, #308]	@ (8004780 <HAL_RCC_ClockConfig+0x1f8>)
 800464a:	681a      	ldr	r2, [r3, #0]
 800464c:	2380      	movs	r3, #128	@ 0x80
 800464e:	049b      	lsls	r3, r3, #18
 8004650:	4013      	ands	r3, r2
 8004652:	d11f      	bne.n	8004694 <HAL_RCC_ClockConfig+0x10c>
 8004654:	2301      	movs	r3, #1
 8004656:	e08b      	b.n	8004770 <HAL_RCC_ClockConfig+0x1e8>
 8004658:	687b      	ldr	r3, [r7, #4]
 800465a:	685b      	ldr	r3, [r3, #4]
 800465c:	2b00      	cmp	r3, #0
 800465e:	d107      	bne.n	8004670 <HAL_RCC_ClockConfig+0xe8>
 8004660:	4b47      	ldr	r3, [pc, #284]	@ (8004780 <HAL_RCC_ClockConfig+0x1f8>)
 8004662:	681a      	ldr	r2, [r3, #0]
 8004664:	2380      	movs	r3, #128	@ 0x80
 8004666:	00db      	lsls	r3, r3, #3
 8004668:	4013      	ands	r3, r2
 800466a:	d113      	bne.n	8004694 <HAL_RCC_ClockConfig+0x10c>
 800466c:	2301      	movs	r3, #1
 800466e:	e07f      	b.n	8004770 <HAL_RCC_ClockConfig+0x1e8>
 8004670:	687b      	ldr	r3, [r7, #4]
 8004672:	685b      	ldr	r3, [r3, #4]
 8004674:	2b03      	cmp	r3, #3
 8004676:	d106      	bne.n	8004686 <HAL_RCC_ClockConfig+0xfe>
 8004678:	4b41      	ldr	r3, [pc, #260]	@ (8004780 <HAL_RCC_ClockConfig+0x1f8>)
 800467a:	6e1b      	ldr	r3, [r3, #96]	@ 0x60
 800467c:	2202      	movs	r2, #2
 800467e:	4013      	ands	r3, r2
 8004680:	d108      	bne.n	8004694 <HAL_RCC_ClockConfig+0x10c>
 8004682:	2301      	movs	r3, #1
 8004684:	e074      	b.n	8004770 <HAL_RCC_ClockConfig+0x1e8>
 8004686:	4b3e      	ldr	r3, [pc, #248]	@ (8004780 <HAL_RCC_ClockConfig+0x1f8>)
 8004688:	6ddb      	ldr	r3, [r3, #92]	@ 0x5c
 800468a:	2202      	movs	r2, #2
 800468c:	4013      	ands	r3, r2
 800468e:	d101      	bne.n	8004694 <HAL_RCC_ClockConfig+0x10c>
 8004690:	2301      	movs	r3, #1
 8004692:	e06d      	b.n	8004770 <HAL_RCC_ClockConfig+0x1e8>
 8004694:	4b3a      	ldr	r3, [pc, #232]	@ (8004780 <HAL_RCC_ClockConfig+0x1f8>)
 8004696:	689b      	ldr	r3, [r3, #8]
 8004698:	2207      	movs	r2, #7
 800469a:	4393      	bics	r3, r2
 800469c:	0019      	movs	r1, r3
 800469e:	687b      	ldr	r3, [r7, #4]
 80046a0:	685a      	ldr	r2, [r3, #4]
 80046a2:	4b37      	ldr	r3, [pc, #220]	@ (8004780 <HAL_RCC_ClockConfig+0x1f8>)
 80046a4:	430a      	orrs	r2, r1
 80046a6:	609a      	str	r2, [r3, #8]
 80046a8:	f7fe fae0 	bl	8002c6c <HAL_GetTick>
 80046ac:	0003      	movs	r3, r0
 80046ae:	60fb      	str	r3, [r7, #12]
 80046b0:	e009      	b.n	80046c6 <HAL_RCC_ClockConfig+0x13e>
 80046b2:	f7fe fadb 	bl	8002c6c <HAL_GetTick>
 80046b6:	0002      	movs	r2, r0
 80046b8:	68fb      	ldr	r3, [r7, #12]
 80046ba:	1ad3      	subs	r3, r2, r3
 80046bc:	4a2f      	ldr	r2, [pc, #188]	@ (800477c <HAL_RCC_ClockConfig+0x1f4>)
 80046be:	4293      	cmp	r3, r2
 80046c0:	d901      	bls.n	80046c6 <HAL_RCC_ClockConfig+0x13e>
 80046c2:	2303      	movs	r3, #3
 80046c4:	e054      	b.n	8004770 <HAL_RCC_ClockConfig+0x1e8>
 80046c6:	4b2e      	ldr	r3, [pc, #184]	@ (8004780 <HAL_RCC_ClockConfig+0x1f8>)
 80046c8:	689b      	ldr	r3, [r3, #8]
 80046ca:	2238      	movs	r2, #56	@ 0x38
 80046cc:	401a      	ands	r2, r3
 80046ce:	687b      	ldr	r3, [r7, #4]
 80046d0:	685b      	ldr	r3, [r3, #4]
 80046d2:	00db      	lsls	r3, r3, #3
 80046d4:	429a      	cmp	r2, r3
 80046d6:	d1ec      	bne.n	80046b2 <HAL_RCC_ClockConfig+0x12a>
 80046d8:	4b27      	ldr	r3, [pc, #156]	@ (8004778 <HAL_RCC_ClockConfig+0x1f0>)
 80046da:	681b      	ldr	r3, [r3, #0]
 80046dc:	2207      	movs	r2, #7
 80046de:	4013      	ands	r3, r2
 80046e0:	683a      	ldr	r2, [r7, #0]
 80046e2:	429a      	cmp	r2, r3
 80046e4:	d21e      	bcs.n	8004724 <HAL_RCC_ClockConfig+0x19c>
 80046e6:	4b24      	ldr	r3, [pc, #144]	@ (8004778 <HAL_RCC_ClockConfig+0x1f0>)
 80046e8:	681b      	ldr	r3, [r3, #0]
 80046ea:	2207      	movs	r2, #7
 80046ec:	4393      	bics	r3, r2
 80046ee:	0019      	movs	r1, r3
 80046f0:	4b21      	ldr	r3, [pc, #132]	@ (8004778 <HAL_RCC_ClockConfig+0x1f0>)
 80046f2:	683a      	ldr	r2, [r7, #0]
 80046f4:	430a      	orrs	r2, r1
 80046f6:	601a      	str	r2, [r3, #0]
 80046f8:	f7fe fab8 	bl	8002c6c <HAL_GetTick>
 80046fc:	0003      	movs	r3, r0
 80046fe:	60fb      	str	r3, [r7, #12]
 8004700:	e009      	b.n	8004716 <HAL_RCC_ClockConfig+0x18e>
 8004702:	f7fe fab3 	bl	8002c6c <HAL_GetTick>
 8004706:	0002      	movs	r2, r0
 8004708:	68fb      	ldr	r3, [r7, #12]
 800470a:	1ad3      	subs	r3, r2, r3
 800470c:	4a1b      	ldr	r2, [pc, #108]	@ (800477c <HAL_RCC_ClockConfig+0x1f4>)
 800470e:	4293      	cmp	r3, r2
 8004710:	d901      	bls.n	8004716 <HAL_RCC_ClockConfig+0x18e>
 8004712:	2303      	movs	r3, #3
 8004714:	e02c      	b.n	8004770 <HAL_RCC_ClockConfig+0x1e8>
 8004716:	4b18      	ldr	r3, [pc, #96]	@ (8004778 <HAL_RCC_ClockConfig+0x1f0>)
 8004718:	681b      	ldr	r3, [r3, #0]
 800471a:	2207      	movs	r2, #7
 800471c:	4013      	ands	r3, r2
 800471e:	683a      	ldr	r2, [r7, #0]
 8004720:	429a      	cmp	r2, r3
 8004722:	d1ee      	bne.n	8004702 <HAL_RCC_ClockConfig+0x17a>
 8004724:	687b      	ldr	r3, [r7, #4]
 8004726:	681b      	ldr	r3, [r3, #0]
 8004728:	2204      	movs	r2, #4
 800472a:	4013      	ands	r3, r2
 800472c:	d009      	beq.n	8004742 <HAL_RCC_ClockConfig+0x1ba>
 800472e:	4b14      	ldr	r3, [pc, #80]	@ (8004780 <HAL_RCC_ClockConfig+0x1f8>)
 8004730:	689b      	ldr	r3, [r3, #8]
 8004732:	4a15      	ldr	r2, [pc, #84]	@ (8004788 <HAL_RCC_ClockConfig+0x200>)
 8004734:	4013      	ands	r3, r2
 8004736:	0019      	movs	r1, r3
 8004738:	687b      	ldr	r3, [r7, #4]
 800473a:	68da      	ldr	r2, [r3, #12]
 800473c:	4b10      	ldr	r3, [pc, #64]	@ (8004780 <HAL_RCC_ClockConfig+0x1f8>)
 800473e:	430a      	orrs	r2, r1
 8004740:	609a      	str	r2, [r3, #8]
 8004742:	f000 f829 	bl	8004798 <HAL_RCC_GetSysClockFreq>
 8004746:	0001      	movs	r1, r0
 8004748:	4b0d      	ldr	r3, [pc, #52]	@ (8004780 <HAL_RCC_ClockConfig+0x1f8>)
 800474a:	689b      	ldr	r3, [r3, #8]
 800474c:	0a1b      	lsrs	r3, r3, #8
 800474e:	220f      	movs	r2, #15
 8004750:	401a      	ands	r2, r3
 8004752:	4b0e      	ldr	r3, [pc, #56]	@ (800478c <HAL_RCC_ClockConfig+0x204>)
 8004754:	0092      	lsls	r2, r2, #2
 8004756:	58d3      	ldr	r3, [r2, r3]
 8004758:	221f      	movs	r2, #31
 800475a:	4013      	ands	r3, r2
 800475c:	000a      	movs	r2, r1
 800475e:	40da      	lsrs	r2, r3
 8004760:	4b0b      	ldr	r3, [pc, #44]	@ (8004790 <HAL_RCC_ClockConfig+0x208>)
 8004762:	601a      	str	r2, [r3, #0]
 8004764:	4b0b      	ldr	r3, [pc, #44]	@ (8004794 <HAL_RCC_ClockConfig+0x20c>)
 8004766:	681b      	ldr	r3, [r3, #0]
 8004768:	0018      	movs	r0, r3
 800476a:	f7fe fa23 	bl	8002bb4 <HAL_InitTick>
 800476e:	0003      	movs	r3, r0
 8004770:	0018      	movs	r0, r3
 8004772:	46bd      	mov	sp, r7
 8004774:	b004      	add	sp, #16
 8004776:	bd80      	pop	{r7, pc}
 8004778:	40022000 	.word	0x40022000
 800477c:	00001388 	.word	0x00001388
 8004780:	40021000 	.word	0x40021000
 8004784:	fffff0ff 	.word	0xfffff0ff
 8004788:	ffff8fff 	.word	0xffff8fff
 800478c:	08008704 	.word	0x08008704
 8004790:	200009e4 	.word	0x200009e4
 8004794:	200009e8 	.word	0x200009e8

08004798 <HAL_RCC_GetSysClockFreq>:
 8004798:	b580      	push	{r7, lr}
 800479a:	b086      	sub	sp, #24
 800479c:	af00      	add	r7, sp, #0
 800479e:	4b3c      	ldr	r3, [pc, #240]	@ (8004890 <HAL_RCC_GetSysClockFreq+0xf8>)
 80047a0:	689b      	ldr	r3, [r3, #8]
 80047a2:	2238      	movs	r2, #56	@ 0x38
 80047a4:	4013      	ands	r3, r2
 80047a6:	d10f      	bne.n	80047c8 <HAL_RCC_GetSysClockFreq+0x30>
 80047a8:	4b39      	ldr	r3, [pc, #228]	@ (8004890 <HAL_RCC_GetSysClockFreq+0xf8>)
 80047aa:	681b      	ldr	r3, [r3, #0]
 80047ac:	0adb      	lsrs	r3, r3, #11
 80047ae:	2207      	movs	r2, #7
 80047b0:	4013      	ands	r3, r2
 80047b2:	2201      	movs	r2, #1
 80047b4:	409a      	lsls	r2, r3
 80047b6:	0013      	movs	r3, r2
 80047b8:	603b      	str	r3, [r7, #0]
 80047ba:	6839      	ldr	r1, [r7, #0]
 80047bc:	4835      	ldr	r0, [pc, #212]	@ (8004894 <HAL_RCC_GetSysClockFreq+0xfc>)
 80047be:	f7fb fcab 	bl	8000118 <__udivsi3>
 80047c2:	0003      	movs	r3, r0
 80047c4:	613b      	str	r3, [r7, #16]
 80047c6:	e05d      	b.n	8004884 <HAL_RCC_GetSysClockFreq+0xec>
 80047c8:	4b31      	ldr	r3, [pc, #196]	@ (8004890 <HAL_RCC_GetSysClockFreq+0xf8>)
 80047ca:	689b      	ldr	r3, [r3, #8]
 80047cc:	2238      	movs	r2, #56	@ 0x38
 80047ce:	4013      	ands	r3, r2
 80047d0:	2b08      	cmp	r3, #8
 80047d2:	d102      	bne.n	80047da <HAL_RCC_GetSysClockFreq+0x42>
 80047d4:	4b30      	ldr	r3, [pc, #192]	@ (8004898 <HAL_RCC_GetSysClockFreq+0x100>)
 80047d6:	613b      	str	r3, [r7, #16]
 80047d8:	e054      	b.n	8004884 <HAL_RCC_GetSysClockFreq+0xec>
 80047da:	4b2d      	ldr	r3, [pc, #180]	@ (8004890 <HAL_RCC_GetSysClockFreq+0xf8>)
 80047dc:	689b      	ldr	r3, [r3, #8]
 80047de:	2238      	movs	r2, #56	@ 0x38
 80047e0:	4013      	ands	r3, r2
 80047e2:	2b10      	cmp	r3, #16
 80047e4:	d138      	bne.n	8004858 <HAL_RCC_GetSysClockFreq+0xc0>
 80047e6:	4b2a      	ldr	r3, [pc, #168]	@ (8004890 <HAL_RCC_GetSysClockFreq+0xf8>)
 80047e8:	68db      	ldr	r3, [r3, #12]
 80047ea:	2203      	movs	r2, #3
 80047ec:	4013      	ands	r3, r2
 80047ee:	60fb      	str	r3, [r7, #12]
 80047f0:	4b27      	ldr	r3, [pc, #156]	@ (8004890 <HAL_RCC_GetSysClockFreq+0xf8>)
 80047f2:	68db      	ldr	r3, [r3, #12]
 80047f4:	091b      	lsrs	r3, r3, #4
 80047f6:	2207      	movs	r2, #7
 80047f8:	4013      	ands	r3, r2
 80047fa:	3301      	adds	r3, #1
 80047fc:	60bb      	str	r3, [r7, #8]
 80047fe:	68fb      	ldr	r3, [r7, #12]
 8004800:	2b03      	cmp	r3, #3
 8004802:	d10d      	bne.n	8004820 <HAL_RCC_GetSysClockFreq+0x88>
 8004804:	68b9      	ldr	r1, [r7, #8]
 8004806:	4824      	ldr	r0, [pc, #144]	@ (8004898 <HAL_RCC_GetSysClockFreq+0x100>)
 8004808:	f7fb fc86 	bl	8000118 <__udivsi3>
 800480c:	0003      	movs	r3, r0
 800480e:	0019      	movs	r1, r3
 8004810:	4b1f      	ldr	r3, [pc, #124]	@ (8004890 <HAL_RCC_GetSysClockFreq+0xf8>)
 8004812:	68db      	ldr	r3, [r3, #12]
 8004814:	0a1b      	lsrs	r3, r3, #8
 8004816:	227f      	movs	r2, #127	@ 0x7f
 8004818:	4013      	ands	r3, r2
 800481a:	434b      	muls	r3, r1
 800481c:	617b      	str	r3, [r7, #20]
 800481e:	e00d      	b.n	800483c <HAL_RCC_GetSysClockFreq+0xa4>
 8004820:	68b9      	ldr	r1, [r7, #8]
 8004822:	481c      	ldr	r0, [pc, #112]	@ (8004894 <HAL_RCC_GetSysClockFreq+0xfc>)
 8004824:	f7fb fc78 	bl	8000118 <__udivsi3>
 8004828:	0003      	movs	r3, r0
 800482a:	0019      	movs	r1, r3
 800482c:	4b18      	ldr	r3, [pc, #96]	@ (8004890 <HAL_RCC_GetSysClockFreq+0xf8>)
 800482e:	68db      	ldr	r3, [r3, #12]
 8004830:	0a1b      	lsrs	r3, r3, #8
 8004832:	227f      	movs	r2, #127	@ 0x7f
 8004834:	4013      	ands	r3, r2
 8004836:	434b      	muls	r3, r1
 8004838:	617b      	str	r3, [r7, #20]
 800483a:	46c0      	nop			@ (mov r8, r8)
 800483c:	4b14      	ldr	r3, [pc, #80]	@ (8004890 <HAL_RCC_GetSysClockFreq+0xf8>)
 800483e:	68db      	ldr	r3, [r3, #12]
 8004840:	0f5b      	lsrs	r3, r3, #29
 8004842:	2207      	movs	r2, #7
 8004844:	4013      	ands	r3, r2
 8004846:	3301      	adds	r3, #1
 8004848:	607b      	str	r3, [r7, #4]
 800484a:	6879      	ldr	r1, [r7, #4]
 800484c:	6978      	ldr	r0, [r7, #20]
 800484e:	f7fb fc63 	bl	8000118 <__udivsi3>
 8004852:	0003      	movs	r3, r0
 8004854:	613b      	str	r3, [r7, #16]
 8004856:	e015      	b.n	8004884 <HAL_RCC_GetSysClockFreq+0xec>
 8004858:	4b0d      	ldr	r3, [pc, #52]	@ (8004890 <HAL_RCC_GetSysClockFreq+0xf8>)
 800485a:	689b      	ldr	r3, [r3, #8]
 800485c:	2238      	movs	r2, #56	@ 0x38
 800485e:	4013      	ands	r3, r2
 8004860:	2b20      	cmp	r3, #32
 8004862:	d103      	bne.n	800486c <HAL_RCC_GetSysClockFreq+0xd4>
 8004864:	2380      	movs	r3, #128	@ 0x80
 8004866:	021b      	lsls	r3, r3, #8
 8004868:	613b      	str	r3, [r7, #16]
 800486a:	e00b      	b.n	8004884 <HAL_RCC_GetSysClockFreq+0xec>
 800486c:	4b08      	ldr	r3, [pc, #32]	@ (8004890 <HAL_RCC_GetSysClockFreq+0xf8>)
 800486e:	689b      	ldr	r3, [r3, #8]
 8004870:	2238      	movs	r2, #56	@ 0x38
 8004872:	4013      	ands	r3, r2
 8004874:	2b18      	cmp	r3, #24
 8004876:	d103      	bne.n	8004880 <HAL_RCC_GetSysClockFreq+0xe8>
 8004878:	23fa      	movs	r3, #250	@ 0xfa
 800487a:	01db      	lsls	r3, r3, #7
 800487c:	613b      	str	r3, [r7, #16]
 800487e:	e001      	b.n	8004884 <HAL_RCC_GetSysClockFreq+0xec>
 8004880:	2300      	movs	r3, #0
 8004882:	613b      	str	r3, [r7, #16]
 8004884:	693b      	ldr	r3, [r7, #16]
 8004886:	0018      	movs	r0, r3
 8004888:	46bd      	mov	sp, r7
 800488a:	b006      	add	sp, #24
 800488c:	bd80      	pop	{r7, pc}
 800488e:	46c0      	nop			@ (mov r8, r8)
 8004890:	40021000 	.word	0x40021000
 8004894:	00f42400 	.word	0x00f42400
 8004898:	007a1200 	.word	0x007a1200

0800489c <HAL_RCC_GetHCLKFreq>:
 800489c:	b580      	push	{r7, lr}
 800489e:	af00      	add	r7, sp, #0
 80048a0:	4b02      	ldr	r3, [pc, #8]	@ (80048ac <HAL_RCC_GetHCLKFreq+0x10>)
 80048a2:	681b      	ldr	r3, [r3, #0]
 80048a4:	0018      	movs	r0, r3
 80048a6:	46bd      	mov	sp, r7
 80048a8:	bd80      	pop	{r7, pc}
 80048aa:	46c0      	nop			@ (mov r8, r8)
 80048ac:	200009e4 	.word	0x200009e4

080048b0 <HAL_RCC_GetPCLK1Freq>:
 80048b0:	b5b0      	push	{r4, r5, r7, lr}
 80048b2:	af00      	add	r7, sp, #0
 80048b4:	f7ff fff2 	bl	800489c <HAL_RCC_GetHCLKFreq>
 80048b8:	0004      	movs	r4, r0
 80048ba:	f7ff faf9 	bl	8003eb0 <LL_RCC_GetAPB1Prescaler>
 80048be:	0003      	movs	r3, r0
 80048c0:	0b1a      	lsrs	r2, r3, #12
 80048c2:	4b05      	ldr	r3, [pc, #20]	@ (80048d8 <HAL_RCC_GetPCLK1Freq+0x28>)
 80048c4:	0092      	lsls	r2, r2, #2
 80048c6:	58d3      	ldr	r3, [r2, r3]
 80048c8:	221f      	movs	r2, #31
 80048ca:	4013      	ands	r3, r2
 80048cc:	40dc      	lsrs	r4, r3
 80048ce:	0023      	movs	r3, r4
 80048d0:	0018      	movs	r0, r3
 80048d2:	46bd      	mov	sp, r7
 80048d4:	bdb0      	pop	{r4, r5, r7, pc}
 80048d6:	46c0      	nop			@ (mov r8, r8)
 80048d8:	08008744 	.word	0x08008744

080048dc <HAL_RCCEx_PeriphCLKConfig>:
 80048dc:	b580      	push	{r7, lr}
 80048de:	b086      	sub	sp, #24
 80048e0:	af00      	add	r7, sp, #0
 80048e2:	6078      	str	r0, [r7, #4]
 80048e4:	2313      	movs	r3, #19
 80048e6:	18fb      	adds	r3, r7, r3
 80048e8:	2200      	movs	r2, #0
 80048ea:	701a      	strb	r2, [r3, #0]
 80048ec:	2312      	movs	r3, #18
 80048ee:	18fb      	adds	r3, r7, r3
 80048f0:	2200      	movs	r2, #0
 80048f2:	701a      	strb	r2, [r3, #0]
 80048f4:	687b      	ldr	r3, [r7, #4]
 80048f6:	681a      	ldr	r2, [r3, #0]
 80048f8:	2380      	movs	r3, #128	@ 0x80
 80048fa:	029b      	lsls	r3, r3, #10
 80048fc:	4013      	ands	r3, r2
 80048fe:	d100      	bne.n	8004902 <HAL_RCCEx_PeriphCLKConfig+0x26>
 8004900:	e0ad      	b.n	8004a5e <HAL_RCCEx_PeriphCLKConfig+0x182>
 8004902:	2011      	movs	r0, #17
 8004904:	183b      	adds	r3, r7, r0
 8004906:	2200      	movs	r2, #0
 8004908:	701a      	strb	r2, [r3, #0]
 800490a:	4b47      	ldr	r3, [pc, #284]	@ (8004a28 <HAL_RCCEx_PeriphCLKConfig+0x14c>)
 800490c:	6bda      	ldr	r2, [r3, #60]	@ 0x3c
 800490e:	2380      	movs	r3, #128	@ 0x80
 8004910:	055b      	lsls	r3, r3, #21
 8004912:	4013      	ands	r3, r2
 8004914:	d110      	bne.n	8004938 <HAL_RCCEx_PeriphCLKConfig+0x5c>
 8004916:	4b44      	ldr	r3, [pc, #272]	@ (8004a28 <HAL_RCCEx_PeriphCLKConfig+0x14c>)
 8004918:	6bda      	ldr	r2, [r3, #60]	@ 0x3c
 800491a:	4b43      	ldr	r3, [pc, #268]	@ (8004a28 <HAL_RCCEx_PeriphCLKConfig+0x14c>)
 800491c:	2180      	movs	r1, #128	@ 0x80
 800491e:	0549      	lsls	r1, r1, #21
 8004920:	430a      	orrs	r2, r1
 8004922:	63da      	str	r2, [r3, #60]	@ 0x3c
 8004924:	4b40      	ldr	r3, [pc, #256]	@ (8004a28 <HAL_RCCEx_PeriphCLKConfig+0x14c>)
 8004926:	6bda      	ldr	r2, [r3, #60]	@ 0x3c
 8004928:	2380      	movs	r3, #128	@ 0x80
 800492a:	055b      	lsls	r3, r3, #21
 800492c:	4013      	ands	r3, r2
 800492e:	60bb      	str	r3, [r7, #8]
 8004930:	68bb      	ldr	r3, [r7, #8]
 8004932:	183b      	adds	r3, r7, r0
 8004934:	2201      	movs	r2, #1
 8004936:	701a      	strb	r2, [r3, #0]
 8004938:	4b3c      	ldr	r3, [pc, #240]	@ (8004a2c <HAL_RCCEx_PeriphCLKConfig+0x150>)
 800493a:	681a      	ldr	r2, [r3, #0]
 800493c:	4b3b      	ldr	r3, [pc, #236]	@ (8004a2c <HAL_RCCEx_PeriphCLKConfig+0x150>)
 800493e:	2180      	movs	r1, #128	@ 0x80
 8004940:	0049      	lsls	r1, r1, #1
 8004942:	430a      	orrs	r2, r1
 8004944:	601a      	str	r2, [r3, #0]
 8004946:	f7fe f991 	bl	8002c6c <HAL_GetTick>
 800494a:	0003      	movs	r3, r0
 800494c:	60fb      	str	r3, [r7, #12]
 800494e:	e00b      	b.n	8004968 <HAL_RCCEx_PeriphCLKConfig+0x8c>
 8004950:	f7fe f98c 	bl	8002c6c <HAL_GetTick>
 8004954:	0002      	movs	r2, r0
 8004956:	68fb      	ldr	r3, [r7, #12]
 8004958:	1ad3      	subs	r3, r2, r3
 800495a:	2b02      	cmp	r3, #2
 800495c:	d904      	bls.n	8004968 <HAL_RCCEx_PeriphCLKConfig+0x8c>
 800495e:	2313      	movs	r3, #19
 8004960:	18fb      	adds	r3, r7, r3
 8004962:	2203      	movs	r2, #3
 8004964:	701a      	strb	r2, [r3, #0]
 8004966:	e005      	b.n	8004974 <HAL_RCCEx_PeriphCLKConfig+0x98>
 8004968:	4b30      	ldr	r3, [pc, #192]	@ (8004a2c <HAL_RCCEx_PeriphCLKConfig+0x150>)
 800496a:	681a      	ldr	r2, [r3, #0]
 800496c:	2380      	movs	r3, #128	@ 0x80
 800496e:	005b      	lsls	r3, r3, #1
 8004970:	4013      	ands	r3, r2
 8004972:	d0ed      	beq.n	8004950 <HAL_RCCEx_PeriphCLKConfig+0x74>
 8004974:	2313      	movs	r3, #19
 8004976:	18fb      	adds	r3, r7, r3
 8004978:	781b      	ldrb	r3, [r3, #0]
 800497a:	2b00      	cmp	r3, #0
 800497c:	d15e      	bne.n	8004a3c <HAL_RCCEx_PeriphCLKConfig+0x160>
 800497e:	4b2a      	ldr	r3, [pc, #168]	@ (8004a28 <HAL_RCCEx_PeriphCLKConfig+0x14c>)
 8004980:	6dda      	ldr	r2, [r3, #92]	@ 0x5c
 8004982:	23c0      	movs	r3, #192	@ 0xc0
 8004984:	009b      	lsls	r3, r3, #2
 8004986:	4013      	ands	r3, r2
 8004988:	617b      	str	r3, [r7, #20]
 800498a:	697b      	ldr	r3, [r7, #20]
 800498c:	2b00      	cmp	r3, #0
 800498e:	d019      	beq.n	80049c4 <HAL_RCCEx_PeriphCLKConfig+0xe8>
 8004990:	687b      	ldr	r3, [r7, #4]
 8004992:	6c1b      	ldr	r3, [r3, #64]	@ 0x40
 8004994:	697a      	ldr	r2, [r7, #20]
 8004996:	429a      	cmp	r2, r3
 8004998:	d014      	beq.n	80049c4 <HAL_RCCEx_PeriphCLKConfig+0xe8>
 800499a:	4b23      	ldr	r3, [pc, #140]	@ (8004a28 <HAL_RCCEx_PeriphCLKConfig+0x14c>)
 800499c:	6ddb      	ldr	r3, [r3, #92]	@ 0x5c
 800499e:	4a24      	ldr	r2, [pc, #144]	@ (8004a30 <HAL_RCCEx_PeriphCLKConfig+0x154>)
 80049a0:	4013      	ands	r3, r2
 80049a2:	617b      	str	r3, [r7, #20]
 80049a4:	4b20      	ldr	r3, [pc, #128]	@ (8004a28 <HAL_RCCEx_PeriphCLKConfig+0x14c>)
 80049a6:	6dda      	ldr	r2, [r3, #92]	@ 0x5c
 80049a8:	4b1f      	ldr	r3, [pc, #124]	@ (8004a28 <HAL_RCCEx_PeriphCLKConfig+0x14c>)
 80049aa:	2180      	movs	r1, #128	@ 0x80
 80049ac:	0249      	lsls	r1, r1, #9
 80049ae:	430a      	orrs	r2, r1
 80049b0:	65da      	str	r2, [r3, #92]	@ 0x5c
 80049b2:	4b1d      	ldr	r3, [pc, #116]	@ (8004a28 <HAL_RCCEx_PeriphCLKConfig+0x14c>)
 80049b4:	6dda      	ldr	r2, [r3, #92]	@ 0x5c
 80049b6:	4b1c      	ldr	r3, [pc, #112]	@ (8004a28 <HAL_RCCEx_PeriphCLKConfig+0x14c>)
 80049b8:	491e      	ldr	r1, [pc, #120]	@ (8004a34 <HAL_RCCEx_PeriphCLKConfig+0x158>)
 80049ba:	400a      	ands	r2, r1
 80049bc:	65da      	str	r2, [r3, #92]	@ 0x5c
 80049be:	4b1a      	ldr	r3, [pc, #104]	@ (8004a28 <HAL_RCCEx_PeriphCLKConfig+0x14c>)
 80049c0:	697a      	ldr	r2, [r7, #20]
 80049c2:	65da      	str	r2, [r3, #92]	@ 0x5c
 80049c4:	697b      	ldr	r3, [r7, #20]
 80049c6:	2201      	movs	r2, #1
 80049c8:	4013      	ands	r3, r2
 80049ca:	d016      	beq.n	80049fa <HAL_RCCEx_PeriphCLKConfig+0x11e>
 80049cc:	f7fe f94e 	bl	8002c6c <HAL_GetTick>
 80049d0:	0003      	movs	r3, r0
 80049d2:	60fb      	str	r3, [r7, #12]
 80049d4:	e00c      	b.n	80049f0 <HAL_RCCEx_PeriphCLKConfig+0x114>
 80049d6:	f7fe f949 	bl	8002c6c <HAL_GetTick>
 80049da:	0002      	movs	r2, r0
 80049dc:	68fb      	ldr	r3, [r7, #12]
 80049de:	1ad3      	subs	r3, r2, r3
 80049e0:	4a15      	ldr	r2, [pc, #84]	@ (8004a38 <HAL_RCCEx_PeriphCLKConfig+0x15c>)
 80049e2:	4293      	cmp	r3, r2
 80049e4:	d904      	bls.n	80049f0 <HAL_RCCEx_PeriphCLKConfig+0x114>
 80049e6:	2313      	movs	r3, #19
 80049e8:	18fb      	adds	r3, r7, r3
 80049ea:	2203      	movs	r2, #3
 80049ec:	701a      	strb	r2, [r3, #0]
 80049ee:	e004      	b.n	80049fa <HAL_RCCEx_PeriphCLKConfig+0x11e>
 80049f0:	4b0d      	ldr	r3, [pc, #52]	@ (8004a28 <HAL_RCCEx_PeriphCLKConfig+0x14c>)
 80049f2:	6ddb      	ldr	r3, [r3, #92]	@ 0x5c
 80049f4:	2202      	movs	r2, #2
 80049f6:	4013      	ands	r3, r2
 80049f8:	d0ed      	beq.n	80049d6 <HAL_RCCEx_PeriphCLKConfig+0xfa>
 80049fa:	2313      	movs	r3, #19
 80049fc:	18fb      	adds	r3, r7, r3
 80049fe:	781b      	ldrb	r3, [r3, #0]
 8004a00:	2b00      	cmp	r3, #0
 8004a02:	d10a      	bne.n	8004a1a <HAL_RCCEx_PeriphCLKConfig+0x13e>
 8004a04:	4b08      	ldr	r3, [pc, #32]	@ (8004a28 <HAL_RCCEx_PeriphCLKConfig+0x14c>)
 8004a06:	6ddb      	ldr	r3, [r3, #92]	@ 0x5c
 8004a08:	4a09      	ldr	r2, [pc, #36]	@ (8004a30 <HAL_RCCEx_PeriphCLKConfig+0x154>)
 8004a0a:	4013      	ands	r3, r2
 8004a0c:	0019      	movs	r1, r3
 8004a0e:	687b      	ldr	r3, [r7, #4]
 8004a10:	6c1a      	ldr	r2, [r3, #64]	@ 0x40
 8004a12:	4b05      	ldr	r3, [pc, #20]	@ (8004a28 <HAL_RCCEx_PeriphCLKConfig+0x14c>)
 8004a14:	430a      	orrs	r2, r1
 8004a16:	65da      	str	r2, [r3, #92]	@ 0x5c
 8004a18:	e016      	b.n	8004a48 <HAL_RCCEx_PeriphCLKConfig+0x16c>
 8004a1a:	2312      	movs	r3, #18
 8004a1c:	18fb      	adds	r3, r7, r3
 8004a1e:	2213      	movs	r2, #19
 8004a20:	18ba      	adds	r2, r7, r2
 8004a22:	7812      	ldrb	r2, [r2, #0]
 8004a24:	701a      	strb	r2, [r3, #0]
 8004a26:	e00f      	b.n	8004a48 <HAL_RCCEx_PeriphCLKConfig+0x16c>
 8004a28:	40021000 	.word	0x40021000
 8004a2c:	40007000 	.word	0x40007000
 8004a30:	fffffcff 	.word	0xfffffcff
 8004a34:	fffeffff 	.word	0xfffeffff
 8004a38:	00001388 	.word	0x00001388
 8004a3c:	2312      	movs	r3, #18
 8004a3e:	18fb      	adds	r3, r7, r3
 8004a40:	2213      	movs	r2, #19
 8004a42:	18ba      	adds	r2, r7, r2
 8004a44:	7812      	ldrb	r2, [r2, #0]
 8004a46:	701a      	strb	r2, [r3, #0]
 8004a48:	2311      	movs	r3, #17
 8004a4a:	18fb      	adds	r3, r7, r3
 8004a4c:	781b      	ldrb	r3, [r3, #0]
 8004a4e:	2b01      	cmp	r3, #1
 8004a50:	d105      	bne.n	8004a5e <HAL_RCCEx_PeriphCLKConfig+0x182>
 8004a52:	4bb6      	ldr	r3, [pc, #728]	@ (8004d2c <HAL_RCCEx_PeriphCLKConfig+0x450>)
 8004a54:	6bda      	ldr	r2, [r3, #60]	@ 0x3c
 8004a56:	4bb5      	ldr	r3, [pc, #724]	@ (8004d2c <HAL_RCCEx_PeriphCLKConfig+0x450>)
 8004a58:	49b5      	ldr	r1, [pc, #724]	@ (8004d30 <HAL_RCCEx_PeriphCLKConfig+0x454>)
 8004a5a:	400a      	ands	r2, r1
 8004a5c:	63da      	str	r2, [r3, #60]	@ 0x3c
 8004a5e:	687b      	ldr	r3, [r7, #4]
 8004a60:	681b      	ldr	r3, [r3, #0]
 8004a62:	2201      	movs	r2, #1
 8004a64:	4013      	ands	r3, r2
 8004a66:	d009      	beq.n	8004a7c <HAL_RCCEx_PeriphCLKConfig+0x1a0>
 8004a68:	4bb0      	ldr	r3, [pc, #704]	@ (8004d2c <HAL_RCCEx_PeriphCLKConfig+0x450>)
 8004a6a:	6d5b      	ldr	r3, [r3, #84]	@ 0x54
 8004a6c:	2203      	movs	r2, #3
 8004a6e:	4393      	bics	r3, r2
 8004a70:	0019      	movs	r1, r3
 8004a72:	687b      	ldr	r3, [r7, #4]
 8004a74:	685a      	ldr	r2, [r3, #4]
 8004a76:	4bad      	ldr	r3, [pc, #692]	@ (8004d2c <HAL_RCCEx_PeriphCLKConfig+0x450>)
 8004a78:	430a      	orrs	r2, r1
 8004a7a:	655a      	str	r2, [r3, #84]	@ 0x54
 8004a7c:	687b      	ldr	r3, [r7, #4]
 8004a7e:	681b      	ldr	r3, [r3, #0]
 8004a80:	2202      	movs	r2, #2
 8004a82:	4013      	ands	r3, r2
 8004a84:	d009      	beq.n	8004a9a <HAL_RCCEx_PeriphCLKConfig+0x1be>
 8004a86:	4ba9      	ldr	r3, [pc, #676]	@ (8004d2c <HAL_RCCEx_PeriphCLKConfig+0x450>)
 8004a88:	6d5b      	ldr	r3, [r3, #84]	@ 0x54
 8004a8a:	220c      	movs	r2, #12
 8004a8c:	4393      	bics	r3, r2
 8004a8e:	0019      	movs	r1, r3
 8004a90:	687b      	ldr	r3, [r7, #4]
 8004a92:	689a      	ldr	r2, [r3, #8]
 8004a94:	4ba5      	ldr	r3, [pc, #660]	@ (8004d2c <HAL_RCCEx_PeriphCLKConfig+0x450>)
 8004a96:	430a      	orrs	r2, r1
 8004a98:	655a      	str	r2, [r3, #84]	@ 0x54
 8004a9a:	687b      	ldr	r3, [r7, #4]
 8004a9c:	681b      	ldr	r3, [r3, #0]
 8004a9e:	2204      	movs	r2, #4
 8004aa0:	4013      	ands	r3, r2
 8004aa2:	d009      	beq.n	8004ab8 <HAL_RCCEx_PeriphCLKConfig+0x1dc>
 8004aa4:	4ba1      	ldr	r3, [pc, #644]	@ (8004d2c <HAL_RCCEx_PeriphCLKConfig+0x450>)
 8004aa6:	6d5b      	ldr	r3, [r3, #84]	@ 0x54
 8004aa8:	2230      	movs	r2, #48	@ 0x30
 8004aaa:	4393      	bics	r3, r2
 8004aac:	0019      	movs	r1, r3
 8004aae:	687b      	ldr	r3, [r7, #4]
 8004ab0:	68da      	ldr	r2, [r3, #12]
 8004ab2:	4b9e      	ldr	r3, [pc, #632]	@ (8004d2c <HAL_RCCEx_PeriphCLKConfig+0x450>)
 8004ab4:	430a      	orrs	r2, r1
 8004ab6:	655a      	str	r2, [r3, #84]	@ 0x54
 8004ab8:	687b      	ldr	r3, [r7, #4]
 8004aba:	681b      	ldr	r3, [r3, #0]
 8004abc:	2210      	movs	r2, #16
 8004abe:	4013      	ands	r3, r2
 8004ac0:	d009      	beq.n	8004ad6 <HAL_RCCEx_PeriphCLKConfig+0x1fa>
 8004ac2:	4b9a      	ldr	r3, [pc, #616]	@ (8004d2c <HAL_RCCEx_PeriphCLKConfig+0x450>)
 8004ac4:	6d5b      	ldr	r3, [r3, #84]	@ 0x54
 8004ac6:	4a9b      	ldr	r2, [pc, #620]	@ (8004d34 <HAL_RCCEx_PeriphCLKConfig+0x458>)
 8004ac8:	4013      	ands	r3, r2
 8004aca:	0019      	movs	r1, r3
 8004acc:	687b      	ldr	r3, [r7, #4]
 8004ace:	691a      	ldr	r2, [r3, #16]
 8004ad0:	4b96      	ldr	r3, [pc, #600]	@ (8004d2c <HAL_RCCEx_PeriphCLKConfig+0x450>)
 8004ad2:	430a      	orrs	r2, r1
 8004ad4:	655a      	str	r2, [r3, #84]	@ 0x54
 8004ad6:	687b      	ldr	r3, [r7, #4]
 8004ad8:	681a      	ldr	r2, [r3, #0]
 8004ada:	2380      	movs	r3, #128	@ 0x80
 8004adc:	015b      	lsls	r3, r3, #5
 8004ade:	4013      	ands	r3, r2
 8004ae0:	d009      	beq.n	8004af6 <HAL_RCCEx_PeriphCLKConfig+0x21a>
 8004ae2:	4b92      	ldr	r3, [pc, #584]	@ (8004d2c <HAL_RCCEx_PeriphCLKConfig+0x450>)
 8004ae4:	6d5b      	ldr	r3, [r3, #84]	@ 0x54
 8004ae6:	4a94      	ldr	r2, [pc, #592]	@ (8004d38 <HAL_RCCEx_PeriphCLKConfig+0x45c>)
 8004ae8:	4013      	ands	r3, r2
 8004aea:	0019      	movs	r1, r3
 8004aec:	687b      	ldr	r3, [r7, #4]
 8004aee:	695a      	ldr	r2, [r3, #20]
 8004af0:	4b8e      	ldr	r3, [pc, #568]	@ (8004d2c <HAL_RCCEx_PeriphCLKConfig+0x450>)
 8004af2:	430a      	orrs	r2, r1
 8004af4:	655a      	str	r2, [r3, #84]	@ 0x54
 8004af6:	687b      	ldr	r3, [r7, #4]
 8004af8:	681a      	ldr	r2, [r3, #0]
 8004afa:	2380      	movs	r3, #128	@ 0x80
 8004afc:	009b      	lsls	r3, r3, #2
 8004afe:	4013      	ands	r3, r2
 8004b00:	d009      	beq.n	8004b16 <HAL_RCCEx_PeriphCLKConfig+0x23a>
 8004b02:	4b8a      	ldr	r3, [pc, #552]	@ (8004d2c <HAL_RCCEx_PeriphCLKConfig+0x450>)
 8004b04:	6d5b      	ldr	r3, [r3, #84]	@ 0x54
 8004b06:	4a8d      	ldr	r2, [pc, #564]	@ (8004d3c <HAL_RCCEx_PeriphCLKConfig+0x460>)
 8004b08:	4013      	ands	r3, r2
 8004b0a:	0019      	movs	r1, r3
 8004b0c:	687b      	ldr	r3, [r7, #4]
 8004b0e:	6a9a      	ldr	r2, [r3, #40]	@ 0x28
 8004b10:	4b86      	ldr	r3, [pc, #536]	@ (8004d2c <HAL_RCCEx_PeriphCLKConfig+0x450>)
 8004b12:	430a      	orrs	r2, r1
 8004b14:	655a      	str	r2, [r3, #84]	@ 0x54
 8004b16:	687b      	ldr	r3, [r7, #4]
 8004b18:	681a      	ldr	r2, [r3, #0]
 8004b1a:	2380      	movs	r3, #128	@ 0x80
 8004b1c:	00db      	lsls	r3, r3, #3
 8004b1e:	4013      	ands	r3, r2
 8004b20:	d009      	beq.n	8004b36 <HAL_RCCEx_PeriphCLKConfig+0x25a>
 8004b22:	4b82      	ldr	r3, [pc, #520]	@ (8004d2c <HAL_RCCEx_PeriphCLKConfig+0x450>)
 8004b24:	6d5b      	ldr	r3, [r3, #84]	@ 0x54
 8004b26:	4a86      	ldr	r2, [pc, #536]	@ (8004d40 <HAL_RCCEx_PeriphCLKConfig+0x464>)
 8004b28:	4013      	ands	r3, r2
 8004b2a:	0019      	movs	r1, r3
 8004b2c:	687b      	ldr	r3, [r7, #4]
 8004b2e:	6ada      	ldr	r2, [r3, #44]	@ 0x2c
 8004b30:	4b7e      	ldr	r3, [pc, #504]	@ (8004d2c <HAL_RCCEx_PeriphCLKConfig+0x450>)
 8004b32:	430a      	orrs	r2, r1
 8004b34:	655a      	str	r2, [r3, #84]	@ 0x54
 8004b36:	687b      	ldr	r3, [r7, #4]
 8004b38:	681b      	ldr	r3, [r3, #0]
 8004b3a:	2220      	movs	r2, #32
 8004b3c:	4013      	ands	r3, r2
 8004b3e:	d009      	beq.n	8004b54 <HAL_RCCEx_PeriphCLKConfig+0x278>
 8004b40:	4b7a      	ldr	r3, [pc, #488]	@ (8004d2c <HAL_RCCEx_PeriphCLKConfig+0x450>)
 8004b42:	6d5b      	ldr	r3, [r3, #84]	@ 0x54
 8004b44:	4a7f      	ldr	r2, [pc, #508]	@ (8004d44 <HAL_RCCEx_PeriphCLKConfig+0x468>)
 8004b46:	4013      	ands	r3, r2
 8004b48:	0019      	movs	r1, r3
 8004b4a:	687b      	ldr	r3, [r7, #4]
 8004b4c:	699a      	ldr	r2, [r3, #24]
 8004b4e:	4b77      	ldr	r3, [pc, #476]	@ (8004d2c <HAL_RCCEx_PeriphCLKConfig+0x450>)
 8004b50:	430a      	orrs	r2, r1
 8004b52:	655a      	str	r2, [r3, #84]	@ 0x54
 8004b54:	687b      	ldr	r3, [r7, #4]
 8004b56:	681b      	ldr	r3, [r3, #0]
 8004b58:	2240      	movs	r2, #64	@ 0x40
 8004b5a:	4013      	ands	r3, r2
 8004b5c:	d009      	beq.n	8004b72 <HAL_RCCEx_PeriphCLKConfig+0x296>
 8004b5e:	4b73      	ldr	r3, [pc, #460]	@ (8004d2c <HAL_RCCEx_PeriphCLKConfig+0x450>)
 8004b60:	6d5b      	ldr	r3, [r3, #84]	@ 0x54
 8004b62:	4a79      	ldr	r2, [pc, #484]	@ (8004d48 <HAL_RCCEx_PeriphCLKConfig+0x46c>)
 8004b64:	4013      	ands	r3, r2
 8004b66:	0019      	movs	r1, r3
 8004b68:	687b      	ldr	r3, [r7, #4]
 8004b6a:	69da      	ldr	r2, [r3, #28]
 8004b6c:	4b6f      	ldr	r3, [pc, #444]	@ (8004d2c <HAL_RCCEx_PeriphCLKConfig+0x450>)
 8004b6e:	430a      	orrs	r2, r1
 8004b70:	655a      	str	r2, [r3, #84]	@ 0x54
 8004b72:	687b      	ldr	r3, [r7, #4]
 8004b74:	681a      	ldr	r2, [r3, #0]
 8004b76:	2380      	movs	r3, #128	@ 0x80
 8004b78:	01db      	lsls	r3, r3, #7
 8004b7a:	4013      	ands	r3, r2
 8004b7c:	d015      	beq.n	8004baa <HAL_RCCEx_PeriphCLKConfig+0x2ce>
 8004b7e:	4b6b      	ldr	r3, [pc, #428]	@ (8004d2c <HAL_RCCEx_PeriphCLKConfig+0x450>)
 8004b80:	6d5b      	ldr	r3, [r3, #84]	@ 0x54
 8004b82:	009b      	lsls	r3, r3, #2
 8004b84:	0899      	lsrs	r1, r3, #2
 8004b86:	687b      	ldr	r3, [r7, #4]
 8004b88:	6b1a      	ldr	r2, [r3, #48]	@ 0x30
 8004b8a:	4b68      	ldr	r3, [pc, #416]	@ (8004d2c <HAL_RCCEx_PeriphCLKConfig+0x450>)
 8004b8c:	430a      	orrs	r2, r1
 8004b8e:	655a      	str	r2, [r3, #84]	@ 0x54
 8004b90:	687b      	ldr	r3, [r7, #4]
 8004b92:	6b1a      	ldr	r2, [r3, #48]	@ 0x30
 8004b94:	2380      	movs	r3, #128	@ 0x80
 8004b96:	05db      	lsls	r3, r3, #23
 8004b98:	429a      	cmp	r2, r3
 8004b9a:	d106      	bne.n	8004baa <HAL_RCCEx_PeriphCLKConfig+0x2ce>
 8004b9c:	4b63      	ldr	r3, [pc, #396]	@ (8004d2c <HAL_RCCEx_PeriphCLKConfig+0x450>)
 8004b9e:	68da      	ldr	r2, [r3, #12]
 8004ba0:	4b62      	ldr	r3, [pc, #392]	@ (8004d2c <HAL_RCCEx_PeriphCLKConfig+0x450>)
 8004ba2:	2180      	movs	r1, #128	@ 0x80
 8004ba4:	0249      	lsls	r1, r1, #9
 8004ba6:	430a      	orrs	r2, r1
 8004ba8:	60da      	str	r2, [r3, #12]
 8004baa:	687b      	ldr	r3, [r7, #4]
 8004bac:	681a      	ldr	r2, [r3, #0]
 8004bae:	2380      	movs	r3, #128	@ 0x80
 8004bb0:	031b      	lsls	r3, r3, #12
 8004bb2:	4013      	ands	r3, r2
 8004bb4:	d009      	beq.n	8004bca <HAL_RCCEx_PeriphCLKConfig+0x2ee>
 8004bb6:	4b5d      	ldr	r3, [pc, #372]	@ (8004d2c <HAL_RCCEx_PeriphCLKConfig+0x450>)
 8004bb8:	6d5b      	ldr	r3, [r3, #84]	@ 0x54
 8004bba:	2240      	movs	r2, #64	@ 0x40
 8004bbc:	4393      	bics	r3, r2
 8004bbe:	0019      	movs	r1, r3
 8004bc0:	687b      	ldr	r3, [r7, #4]
 8004bc2:	6b5a      	ldr	r2, [r3, #52]	@ 0x34
 8004bc4:	4b59      	ldr	r3, [pc, #356]	@ (8004d2c <HAL_RCCEx_PeriphCLKConfig+0x450>)
 8004bc6:	430a      	orrs	r2, r1
 8004bc8:	655a      	str	r2, [r3, #84]	@ 0x54
 8004bca:	687b      	ldr	r3, [r7, #4]
 8004bcc:	681a      	ldr	r2, [r3, #0]
 8004bce:	2380      	movs	r3, #128	@ 0x80
 8004bd0:	039b      	lsls	r3, r3, #14
 8004bd2:	4013      	ands	r3, r2
 8004bd4:	d016      	beq.n	8004c04 <HAL_RCCEx_PeriphCLKConfig+0x328>
 8004bd6:	4b55      	ldr	r3, [pc, #340]	@ (8004d2c <HAL_RCCEx_PeriphCLKConfig+0x450>)
 8004bd8:	6d5b      	ldr	r3, [r3, #84]	@ 0x54
 8004bda:	4a5c      	ldr	r2, [pc, #368]	@ (8004d4c <HAL_RCCEx_PeriphCLKConfig+0x470>)
 8004bdc:	4013      	ands	r3, r2
 8004bde:	0019      	movs	r1, r3
 8004be0:	687b      	ldr	r3, [r7, #4]
 8004be2:	6b9a      	ldr	r2, [r3, #56]	@ 0x38
 8004be4:	4b51      	ldr	r3, [pc, #324]	@ (8004d2c <HAL_RCCEx_PeriphCLKConfig+0x450>)
 8004be6:	430a      	orrs	r2, r1
 8004be8:	655a      	str	r2, [r3, #84]	@ 0x54
 8004bea:	687b      	ldr	r3, [r7, #4]
 8004bec:	6b9a      	ldr	r2, [r3, #56]	@ 0x38
 8004bee:	2380      	movs	r3, #128	@ 0x80
 8004bf0:	03db      	lsls	r3, r3, #15
 8004bf2:	429a      	cmp	r2, r3
 8004bf4:	d106      	bne.n	8004c04 <HAL_RCCEx_PeriphCLKConfig+0x328>
 8004bf6:	4b4d      	ldr	r3, [pc, #308]	@ (8004d2c <HAL_RCCEx_PeriphCLKConfig+0x450>)
 8004bf8:	68da      	ldr	r2, [r3, #12]
 8004bfa:	4b4c      	ldr	r3, [pc, #304]	@ (8004d2c <HAL_RCCEx_PeriphCLKConfig+0x450>)
 8004bfc:	2180      	movs	r1, #128	@ 0x80
 8004bfe:	0449      	lsls	r1, r1, #17
 8004c00:	430a      	orrs	r2, r1
 8004c02:	60da      	str	r2, [r3, #12]
 8004c04:	687b      	ldr	r3, [r7, #4]
 8004c06:	681a      	ldr	r2, [r3, #0]
 8004c08:	2380      	movs	r3, #128	@ 0x80
 8004c0a:	03db      	lsls	r3, r3, #15
 8004c0c:	4013      	ands	r3, r2
 8004c0e:	d016      	beq.n	8004c3e <HAL_RCCEx_PeriphCLKConfig+0x362>
 8004c10:	4b46      	ldr	r3, [pc, #280]	@ (8004d2c <HAL_RCCEx_PeriphCLKConfig+0x450>)
 8004c12:	6d5b      	ldr	r3, [r3, #84]	@ 0x54
 8004c14:	4a4e      	ldr	r2, [pc, #312]	@ (8004d50 <HAL_RCCEx_PeriphCLKConfig+0x474>)
 8004c16:	4013      	ands	r3, r2
 8004c18:	0019      	movs	r1, r3
 8004c1a:	687b      	ldr	r3, [r7, #4]
 8004c1c:	6bda      	ldr	r2, [r3, #60]	@ 0x3c
 8004c1e:	4b43      	ldr	r3, [pc, #268]	@ (8004d2c <HAL_RCCEx_PeriphCLKConfig+0x450>)
 8004c20:	430a      	orrs	r2, r1
 8004c22:	655a      	str	r2, [r3, #84]	@ 0x54
 8004c24:	687b      	ldr	r3, [r7, #4]
 8004c26:	6bda      	ldr	r2, [r3, #60]	@ 0x3c
 8004c28:	2380      	movs	r3, #128	@ 0x80
 8004c2a:	045b      	lsls	r3, r3, #17
 8004c2c:	429a      	cmp	r2, r3
 8004c2e:	d106      	bne.n	8004c3e <HAL_RCCEx_PeriphCLKConfig+0x362>
 8004c30:	4b3e      	ldr	r3, [pc, #248]	@ (8004d2c <HAL_RCCEx_PeriphCLKConfig+0x450>)
 8004c32:	68da      	ldr	r2, [r3, #12]
 8004c34:	4b3d      	ldr	r3, [pc, #244]	@ (8004d2c <HAL_RCCEx_PeriphCLKConfig+0x450>)
 8004c36:	2180      	movs	r1, #128	@ 0x80
 8004c38:	0449      	lsls	r1, r1, #17
 8004c3a:	430a      	orrs	r2, r1
 8004c3c:	60da      	str	r2, [r3, #12]
 8004c3e:	687b      	ldr	r3, [r7, #4]
 8004c40:	681a      	ldr	r2, [r3, #0]
 8004c42:	2380      	movs	r3, #128	@ 0x80
 8004c44:	011b      	lsls	r3, r3, #4
 8004c46:	4013      	ands	r3, r2
 8004c48:	d014      	beq.n	8004c74 <HAL_RCCEx_PeriphCLKConfig+0x398>
 8004c4a:	4b38      	ldr	r3, [pc, #224]	@ (8004d2c <HAL_RCCEx_PeriphCLKConfig+0x450>)
 8004c4c:	6d9b      	ldr	r3, [r3, #88]	@ 0x58
 8004c4e:	2203      	movs	r2, #3
 8004c50:	4393      	bics	r3, r2
 8004c52:	0019      	movs	r1, r3
 8004c54:	687b      	ldr	r3, [r7, #4]
 8004c56:	6a1a      	ldr	r2, [r3, #32]
 8004c58:	4b34      	ldr	r3, [pc, #208]	@ (8004d2c <HAL_RCCEx_PeriphCLKConfig+0x450>)
 8004c5a:	430a      	orrs	r2, r1
 8004c5c:	659a      	str	r2, [r3, #88]	@ 0x58
 8004c5e:	687b      	ldr	r3, [r7, #4]
 8004c60:	6a1b      	ldr	r3, [r3, #32]
 8004c62:	2b01      	cmp	r3, #1
 8004c64:	d106      	bne.n	8004c74 <HAL_RCCEx_PeriphCLKConfig+0x398>
 8004c66:	4b31      	ldr	r3, [pc, #196]	@ (8004d2c <HAL_RCCEx_PeriphCLKConfig+0x450>)
 8004c68:	68da      	ldr	r2, [r3, #12]
 8004c6a:	4b30      	ldr	r3, [pc, #192]	@ (8004d2c <HAL_RCCEx_PeriphCLKConfig+0x450>)
 8004c6c:	2180      	movs	r1, #128	@ 0x80
 8004c6e:	0249      	lsls	r1, r1, #9
 8004c70:	430a      	orrs	r2, r1
 8004c72:	60da      	str	r2, [r3, #12]
 8004c74:	687b      	ldr	r3, [r7, #4]
 8004c76:	681a      	ldr	r2, [r3, #0]
 8004c78:	2380      	movs	r3, #128	@ 0x80
 8004c7a:	019b      	lsls	r3, r3, #6
 8004c7c:	4013      	ands	r3, r2
 8004c7e:	d014      	beq.n	8004caa <HAL_RCCEx_PeriphCLKConfig+0x3ce>
 8004c80:	4b2a      	ldr	r3, [pc, #168]	@ (8004d2c <HAL_RCCEx_PeriphCLKConfig+0x450>)
 8004c82:	6d9b      	ldr	r3, [r3, #88]	@ 0x58
 8004c84:	220c      	movs	r2, #12
 8004c86:	4393      	bics	r3, r2
 8004c88:	0019      	movs	r1, r3
 8004c8a:	687b      	ldr	r3, [r7, #4]
 8004c8c:	6a5a      	ldr	r2, [r3, #36]	@ 0x24
 8004c8e:	4b27      	ldr	r3, [pc, #156]	@ (8004d2c <HAL_RCCEx_PeriphCLKConfig+0x450>)
 8004c90:	430a      	orrs	r2, r1
 8004c92:	659a      	str	r2, [r3, #88]	@ 0x58
 8004c94:	687b      	ldr	r3, [r7, #4]
 8004c96:	6a5b      	ldr	r3, [r3, #36]	@ 0x24
 8004c98:	2b04      	cmp	r3, #4
 8004c9a:	d106      	bne.n	8004caa <HAL_RCCEx_PeriphCLKConfig+0x3ce>
 8004c9c:	4b23      	ldr	r3, [pc, #140]	@ (8004d2c <HAL_RCCEx_PeriphCLKConfig+0x450>)
 8004c9e:	68da      	ldr	r2, [r3, #12]
 8004ca0:	4b22      	ldr	r3, [pc, #136]	@ (8004d2c <HAL_RCCEx_PeriphCLKConfig+0x450>)
 8004ca2:	2180      	movs	r1, #128	@ 0x80
 8004ca4:	0249      	lsls	r1, r1, #9
 8004ca6:	430a      	orrs	r2, r1
 8004ca8:	60da      	str	r2, [r3, #12]
 8004caa:	687b      	ldr	r3, [r7, #4]
 8004cac:	681a      	ldr	r2, [r3, #0]
 8004cae:	2380      	movs	r3, #128	@ 0x80
 8004cb0:	045b      	lsls	r3, r3, #17
 8004cb2:	4013      	ands	r3, r2
 8004cb4:	d016      	beq.n	8004ce4 <HAL_RCCEx_PeriphCLKConfig+0x408>
 8004cb6:	4b1d      	ldr	r3, [pc, #116]	@ (8004d2c <HAL_RCCEx_PeriphCLKConfig+0x450>)
 8004cb8:	6d9b      	ldr	r3, [r3, #88]	@ 0x58
 8004cba:	4a22      	ldr	r2, [pc, #136]	@ (8004d44 <HAL_RCCEx_PeriphCLKConfig+0x468>)
 8004cbc:	4013      	ands	r3, r2
 8004cbe:	0019      	movs	r1, r3
 8004cc0:	687b      	ldr	r3, [r7, #4]
 8004cc2:	6c5a      	ldr	r2, [r3, #68]	@ 0x44
 8004cc4:	4b19      	ldr	r3, [pc, #100]	@ (8004d2c <HAL_RCCEx_PeriphCLKConfig+0x450>)
 8004cc6:	430a      	orrs	r2, r1
 8004cc8:	659a      	str	r2, [r3, #88]	@ 0x58
 8004cca:	687b      	ldr	r3, [r7, #4]
 8004ccc:	6c5a      	ldr	r2, [r3, #68]	@ 0x44
 8004cce:	2380      	movs	r3, #128	@ 0x80
 8004cd0:	019b      	lsls	r3, r3, #6
 8004cd2:	429a      	cmp	r2, r3
 8004cd4:	d106      	bne.n	8004ce4 <HAL_RCCEx_PeriphCLKConfig+0x408>
 8004cd6:	4b15      	ldr	r3, [pc, #84]	@ (8004d2c <HAL_RCCEx_PeriphCLKConfig+0x450>)
 8004cd8:	68da      	ldr	r2, [r3, #12]
 8004cda:	4b14      	ldr	r3, [pc, #80]	@ (8004d2c <HAL_RCCEx_PeriphCLKConfig+0x450>)
 8004cdc:	2180      	movs	r1, #128	@ 0x80
 8004cde:	0449      	lsls	r1, r1, #17
 8004ce0:	430a      	orrs	r2, r1
 8004ce2:	60da      	str	r2, [r3, #12]
 8004ce4:	687b      	ldr	r3, [r7, #4]
 8004ce6:	681a      	ldr	r2, [r3, #0]
 8004ce8:	2380      	movs	r3, #128	@ 0x80
 8004cea:	049b      	lsls	r3, r3, #18
 8004cec:	4013      	ands	r3, r2
 8004cee:	d016      	beq.n	8004d1e <HAL_RCCEx_PeriphCLKConfig+0x442>
 8004cf0:	4b0e      	ldr	r3, [pc, #56]	@ (8004d2c <HAL_RCCEx_PeriphCLKConfig+0x450>)
 8004cf2:	6d9b      	ldr	r3, [r3, #88]	@ 0x58
 8004cf4:	4a10      	ldr	r2, [pc, #64]	@ (8004d38 <HAL_RCCEx_PeriphCLKConfig+0x45c>)
 8004cf6:	4013      	ands	r3, r2
 8004cf8:	0019      	movs	r1, r3
 8004cfa:	687b      	ldr	r3, [r7, #4]
 8004cfc:	6c9a      	ldr	r2, [r3, #72]	@ 0x48
 8004cfe:	4b0b      	ldr	r3, [pc, #44]	@ (8004d2c <HAL_RCCEx_PeriphCLKConfig+0x450>)
 8004d00:	430a      	orrs	r2, r1
 8004d02:	659a      	str	r2, [r3, #88]	@ 0x58
 8004d04:	687b      	ldr	r3, [r7, #4]
 8004d06:	6c9a      	ldr	r2, [r3, #72]	@ 0x48
 8004d08:	2380      	movs	r3, #128	@ 0x80
 8004d0a:	005b      	lsls	r3, r3, #1
 8004d0c:	429a      	cmp	r2, r3
 8004d0e:	d106      	bne.n	8004d1e <HAL_RCCEx_PeriphCLKConfig+0x442>
 8004d10:	4b06      	ldr	r3, [pc, #24]	@ (8004d2c <HAL_RCCEx_PeriphCLKConfig+0x450>)
 8004d12:	68da      	ldr	r2, [r3, #12]
 8004d14:	4b05      	ldr	r3, [pc, #20]	@ (8004d2c <HAL_RCCEx_PeriphCLKConfig+0x450>)
 8004d16:	2180      	movs	r1, #128	@ 0x80
 8004d18:	0449      	lsls	r1, r1, #17
 8004d1a:	430a      	orrs	r2, r1
 8004d1c:	60da      	str	r2, [r3, #12]
 8004d1e:	2312      	movs	r3, #18
 8004d20:	18fb      	adds	r3, r7, r3
 8004d22:	781b      	ldrb	r3, [r3, #0]
 8004d24:	0018      	movs	r0, r3
 8004d26:	46bd      	mov	sp, r7
 8004d28:	b006      	add	sp, #24
 8004d2a:	bd80      	pop	{r7, pc}
 8004d2c:	40021000 	.word	0x40021000
 8004d30:	efffffff 	.word	0xefffffff
 8004d34:	fffff3ff 	.word	0xfffff3ff
 8004d38:	fffffcff 	.word	0xfffffcff
 8004d3c:	fff3ffff 	.word	0xfff3ffff
 8004d40:	ffcfffff 	.word	0xffcfffff
 8004d44:	ffffcfff 	.word	0xffffcfff
 8004d48:	ffff3fff 	.word	0xffff3fff
 8004d4c:	ffbfffff 	.word	0xffbfffff
 8004d50:	feffffff 	.word	0xfeffffff

08004d54 <HAL_RTC_SetAlarm_IT>:
 8004d54:	b590      	push	{r4, r7, lr}
 8004d56:	b089      	sub	sp, #36	@ 0x24
 8004d58:	af00      	add	r7, sp, #0
 8004d5a:	60f8      	str	r0, [r7, #12]
 8004d5c:	60b9      	str	r1, [r7, #8]
 8004d5e:	607a      	str	r2, [r7, #4]
 8004d60:	68fb      	ldr	r3, [r7, #12]
 8004d62:	2228      	movs	r2, #40	@ 0x28
 8004d64:	5c9b      	ldrb	r3, [r3, r2]
 8004d66:	2b01      	cmp	r3, #1
 8004d68:	d101      	bne.n	8004d6e <HAL_RTC_SetAlarm_IT+0x1a>
 8004d6a:	2302      	movs	r3, #2
 8004d6c:	e127      	b.n	8004fbe <HAL_RTC_SetAlarm_IT+0x26a>
 8004d6e:	68fb      	ldr	r3, [r7, #12]
 8004d70:	2228      	movs	r2, #40	@ 0x28
 8004d72:	2101      	movs	r1, #1
 8004d74:	5499      	strb	r1, [r3, r2]
 8004d76:	68fb      	ldr	r3, [r7, #12]
 8004d78:	2229      	movs	r2, #41	@ 0x29
 8004d7a:	2102      	movs	r1, #2
 8004d7c:	5499      	strb	r1, [r3, r2]
 8004d7e:	687b      	ldr	r3, [r7, #4]
 8004d80:	2b00      	cmp	r3, #0
 8004d82:	d136      	bne.n	8004df2 <HAL_RTC_SetAlarm_IT+0x9e>
 8004d84:	68fb      	ldr	r3, [r7, #12]
 8004d86:	681b      	ldr	r3, [r3, #0]
 8004d88:	699b      	ldr	r3, [r3, #24]
 8004d8a:	2240      	movs	r2, #64	@ 0x40
 8004d8c:	4013      	ands	r3, r2
 8004d8e:	d102      	bne.n	8004d96 <HAL_RTC_SetAlarm_IT+0x42>
 8004d90:	68bb      	ldr	r3, [r7, #8]
 8004d92:	2200      	movs	r2, #0
 8004d94:	70da      	strb	r2, [r3, #3]
 8004d96:	68bb      	ldr	r3, [r7, #8]
 8004d98:	781b      	ldrb	r3, [r3, #0]
 8004d9a:	0018      	movs	r0, r3
 8004d9c:	f000 fa1e 	bl	80051dc <RTC_ByteToBcd2>
 8004da0:	0003      	movs	r3, r0
 8004da2:	041c      	lsls	r4, r3, #16
 8004da4:	68bb      	ldr	r3, [r7, #8]
 8004da6:	785b      	ldrb	r3, [r3, #1]
 8004da8:	0018      	movs	r0, r3
 8004daa:	f000 fa17 	bl	80051dc <RTC_ByteToBcd2>
 8004dae:	0003      	movs	r3, r0
 8004db0:	021b      	lsls	r3, r3, #8
 8004db2:	431c      	orrs	r4, r3
 8004db4:	68bb      	ldr	r3, [r7, #8]
 8004db6:	789b      	ldrb	r3, [r3, #2]
 8004db8:	0018      	movs	r0, r3
 8004dba:	f000 fa0f 	bl	80051dc <RTC_ByteToBcd2>
 8004dbe:	0003      	movs	r3, r0
 8004dc0:	0022      	movs	r2, r4
 8004dc2:	431a      	orrs	r2, r3
 8004dc4:	68bb      	ldr	r3, [r7, #8]
 8004dc6:	78db      	ldrb	r3, [r3, #3]
 8004dc8:	059b      	lsls	r3, r3, #22
 8004dca:	431a      	orrs	r2, r3
 8004dcc:	0014      	movs	r4, r2
 8004dce:	68bb      	ldr	r3, [r7, #8]
 8004dd0:	2220      	movs	r2, #32
 8004dd2:	5c9b      	ldrb	r3, [r3, r2]
 8004dd4:	0018      	movs	r0, r3
 8004dd6:	f000 fa01 	bl	80051dc <RTC_ByteToBcd2>
 8004dda:	0003      	movs	r3, r0
 8004ddc:	061b      	lsls	r3, r3, #24
 8004dde:	0022      	movs	r2, r4
 8004de0:	431a      	orrs	r2, r3
 8004de2:	68bb      	ldr	r3, [r7, #8]
 8004de4:	69db      	ldr	r3, [r3, #28]
 8004de6:	431a      	orrs	r2, r3
 8004de8:	68bb      	ldr	r3, [r7, #8]
 8004dea:	695b      	ldr	r3, [r3, #20]
 8004dec:	4313      	orrs	r3, r2
 8004dee:	61fb      	str	r3, [r7, #28]
 8004df0:	e022      	b.n	8004e38 <HAL_RTC_SetAlarm_IT+0xe4>
 8004df2:	68fb      	ldr	r3, [r7, #12]
 8004df4:	681b      	ldr	r3, [r3, #0]
 8004df6:	699b      	ldr	r3, [r3, #24]
 8004df8:	2240      	movs	r2, #64	@ 0x40
 8004dfa:	4013      	ands	r3, r2
 8004dfc:	d102      	bne.n	8004e04 <HAL_RTC_SetAlarm_IT+0xb0>
 8004dfe:	68bb      	ldr	r3, [r7, #8]
 8004e00:	2200      	movs	r2, #0
 8004e02:	70da      	strb	r2, [r3, #3]
 8004e04:	68bb      	ldr	r3, [r7, #8]
 8004e06:	781b      	ldrb	r3, [r3, #0]
 8004e08:	041a      	lsls	r2, r3, #16
 8004e0a:	68bb      	ldr	r3, [r7, #8]
 8004e0c:	785b      	ldrb	r3, [r3, #1]
 8004e0e:	021b      	lsls	r3, r3, #8
 8004e10:	4313      	orrs	r3, r2
 8004e12:	68ba      	ldr	r2, [r7, #8]
 8004e14:	7892      	ldrb	r2, [r2, #2]
 8004e16:	431a      	orrs	r2, r3
 8004e18:	68bb      	ldr	r3, [r7, #8]
 8004e1a:	78db      	ldrb	r3, [r3, #3]
 8004e1c:	059b      	lsls	r3, r3, #22
 8004e1e:	431a      	orrs	r2, r3
 8004e20:	68bb      	ldr	r3, [r7, #8]
 8004e22:	2120      	movs	r1, #32
 8004e24:	5c5b      	ldrb	r3, [r3, r1]
 8004e26:	061b      	lsls	r3, r3, #24
 8004e28:	431a      	orrs	r2, r3
 8004e2a:	68bb      	ldr	r3, [r7, #8]
 8004e2c:	69db      	ldr	r3, [r3, #28]
 8004e2e:	431a      	orrs	r2, r3
 8004e30:	68bb      	ldr	r3, [r7, #8]
 8004e32:	695b      	ldr	r3, [r3, #20]
 8004e34:	4313      	orrs	r3, r2
 8004e36:	61fb      	str	r3, [r7, #28]
 8004e38:	68bb      	ldr	r3, [r7, #8]
 8004e3a:	685a      	ldr	r2, [r3, #4]
 8004e3c:	68bb      	ldr	r3, [r7, #8]
 8004e3e:	699b      	ldr	r3, [r3, #24]
 8004e40:	4313      	orrs	r3, r2
 8004e42:	61bb      	str	r3, [r7, #24]
 8004e44:	68fb      	ldr	r3, [r7, #12]
 8004e46:	681b      	ldr	r3, [r3, #0]
 8004e48:	22ca      	movs	r2, #202	@ 0xca
 8004e4a:	625a      	str	r2, [r3, #36]	@ 0x24
 8004e4c:	68fb      	ldr	r3, [r7, #12]
 8004e4e:	681b      	ldr	r3, [r3, #0]
 8004e50:	2253      	movs	r2, #83	@ 0x53
 8004e52:	625a      	str	r2, [r3, #36]	@ 0x24
 8004e54:	68bb      	ldr	r3, [r7, #8]
 8004e56:	6a5a      	ldr	r2, [r3, #36]	@ 0x24
 8004e58:	2380      	movs	r3, #128	@ 0x80
 8004e5a:	005b      	lsls	r3, r3, #1
 8004e5c:	429a      	cmp	r2, r3
 8004e5e:	d14c      	bne.n	8004efa <HAL_RTC_SetAlarm_IT+0x1a6>
 8004e60:	68fb      	ldr	r3, [r7, #12]
 8004e62:	681b      	ldr	r3, [r3, #0]
 8004e64:	699a      	ldr	r2, [r3, #24]
 8004e66:	68fb      	ldr	r3, [r7, #12]
 8004e68:	681b      	ldr	r3, [r3, #0]
 8004e6a:	4957      	ldr	r1, [pc, #348]	@ (8004fc8 <HAL_RTC_SetAlarm_IT+0x274>)
 8004e6c:	400a      	ands	r2, r1
 8004e6e:	619a      	str	r2, [r3, #24]
 8004e70:	68fb      	ldr	r3, [r7, #12]
 8004e72:	681b      	ldr	r3, [r3, #0]
 8004e74:	6dda      	ldr	r2, [r3, #92]	@ 0x5c
 8004e76:	68fb      	ldr	r3, [r7, #12]
 8004e78:	681b      	ldr	r3, [r3, #0]
 8004e7a:	2101      	movs	r1, #1
 8004e7c:	430a      	orrs	r2, r1
 8004e7e:	65da      	str	r2, [r3, #92]	@ 0x5c
 8004e80:	f7fd fef4 	bl	8002c6c <HAL_GetTick>
 8004e84:	0003      	movs	r3, r0
 8004e86:	617b      	str	r3, [r7, #20]
 8004e88:	e016      	b.n	8004eb8 <HAL_RTC_SetAlarm_IT+0x164>
 8004e8a:	f7fd feef 	bl	8002c6c <HAL_GetTick>
 8004e8e:	0002      	movs	r2, r0
 8004e90:	697b      	ldr	r3, [r7, #20]
 8004e92:	1ad2      	subs	r2, r2, r3
 8004e94:	23fa      	movs	r3, #250	@ 0xfa
 8004e96:	009b      	lsls	r3, r3, #2
 8004e98:	429a      	cmp	r2, r3
 8004e9a:	d90d      	bls.n	8004eb8 <HAL_RTC_SetAlarm_IT+0x164>
 8004e9c:	68fb      	ldr	r3, [r7, #12]
 8004e9e:	681b      	ldr	r3, [r3, #0]
 8004ea0:	22ff      	movs	r2, #255	@ 0xff
 8004ea2:	625a      	str	r2, [r3, #36]	@ 0x24
 8004ea4:	68fb      	ldr	r3, [r7, #12]
 8004ea6:	2229      	movs	r2, #41	@ 0x29
 8004ea8:	2103      	movs	r1, #3
 8004eaa:	5499      	strb	r1, [r3, r2]
 8004eac:	68fb      	ldr	r3, [r7, #12]
 8004eae:	2228      	movs	r2, #40	@ 0x28
 8004eb0:	2100      	movs	r1, #0
 8004eb2:	5499      	strb	r1, [r3, r2]
 8004eb4:	2303      	movs	r3, #3
 8004eb6:	e082      	b.n	8004fbe <HAL_RTC_SetAlarm_IT+0x26a>
 8004eb8:	68fb      	ldr	r3, [r7, #12]
 8004eba:	681b      	ldr	r3, [r3, #0]
 8004ebc:	68db      	ldr	r3, [r3, #12]
 8004ebe:	2201      	movs	r2, #1
 8004ec0:	4013      	ands	r3, r2
 8004ec2:	d0e2      	beq.n	8004e8a <HAL_RTC_SetAlarm_IT+0x136>
 8004ec4:	68fb      	ldr	r3, [r7, #12]
 8004ec6:	681b      	ldr	r3, [r3, #0]
 8004ec8:	69fa      	ldr	r2, [r7, #28]
 8004eca:	641a      	str	r2, [r3, #64]	@ 0x40
 8004ecc:	68fb      	ldr	r3, [r7, #12]
 8004ece:	681b      	ldr	r3, [r3, #0]
 8004ed0:	69ba      	ldr	r2, [r7, #24]
 8004ed2:	645a      	str	r2, [r3, #68]	@ 0x44
 8004ed4:	68fb      	ldr	r3, [r7, #12]
 8004ed6:	681b      	ldr	r3, [r3, #0]
 8004ed8:	699a      	ldr	r2, [r3, #24]
 8004eda:	68fb      	ldr	r3, [r7, #12]
 8004edc:	681b      	ldr	r3, [r3, #0]
 8004ede:	2180      	movs	r1, #128	@ 0x80
 8004ee0:	0049      	lsls	r1, r1, #1
 8004ee2:	430a      	orrs	r2, r1
 8004ee4:	619a      	str	r2, [r3, #24]
 8004ee6:	68fb      	ldr	r3, [r7, #12]
 8004ee8:	681b      	ldr	r3, [r3, #0]
 8004eea:	699a      	ldr	r2, [r3, #24]
 8004eec:	68fb      	ldr	r3, [r7, #12]
 8004eee:	681b      	ldr	r3, [r3, #0]
 8004ef0:	2180      	movs	r1, #128	@ 0x80
 8004ef2:	0149      	lsls	r1, r1, #5
 8004ef4:	430a      	orrs	r2, r1
 8004ef6:	619a      	str	r2, [r3, #24]
 8004ef8:	e04b      	b.n	8004f92 <HAL_RTC_SetAlarm_IT+0x23e>
 8004efa:	68fb      	ldr	r3, [r7, #12]
 8004efc:	681b      	ldr	r3, [r3, #0]
 8004efe:	699a      	ldr	r2, [r3, #24]
 8004f00:	68fb      	ldr	r3, [r7, #12]
 8004f02:	681b      	ldr	r3, [r3, #0]
 8004f04:	4931      	ldr	r1, [pc, #196]	@ (8004fcc <HAL_RTC_SetAlarm_IT+0x278>)
 8004f06:	400a      	ands	r2, r1
 8004f08:	619a      	str	r2, [r3, #24]
 8004f0a:	68fb      	ldr	r3, [r7, #12]
 8004f0c:	681b      	ldr	r3, [r3, #0]
 8004f0e:	6dda      	ldr	r2, [r3, #92]	@ 0x5c
 8004f10:	68fb      	ldr	r3, [r7, #12]
 8004f12:	681b      	ldr	r3, [r3, #0]
 8004f14:	2102      	movs	r1, #2
 8004f16:	430a      	orrs	r2, r1
 8004f18:	65da      	str	r2, [r3, #92]	@ 0x5c
 8004f1a:	f7fd fea7 	bl	8002c6c <HAL_GetTick>
 8004f1e:	0003      	movs	r3, r0
 8004f20:	617b      	str	r3, [r7, #20]
 8004f22:	e016      	b.n	8004f52 <HAL_RTC_SetAlarm_IT+0x1fe>
 8004f24:	f7fd fea2 	bl	8002c6c <HAL_GetTick>
 8004f28:	0002      	movs	r2, r0
 8004f2a:	697b      	ldr	r3, [r7, #20]
 8004f2c:	1ad2      	subs	r2, r2, r3
 8004f2e:	23fa      	movs	r3, #250	@ 0xfa
 8004f30:	009b      	lsls	r3, r3, #2
 8004f32:	429a      	cmp	r2, r3
 8004f34:	d90d      	bls.n	8004f52 <HAL_RTC_SetAlarm_IT+0x1fe>
 8004f36:	68fb      	ldr	r3, [r7, #12]
 8004f38:	681b      	ldr	r3, [r3, #0]
 8004f3a:	22ff      	movs	r2, #255	@ 0xff
 8004f3c:	625a      	str	r2, [r3, #36]	@ 0x24
 8004f3e:	68fb      	ldr	r3, [r7, #12]
 8004f40:	2229      	movs	r2, #41	@ 0x29
 8004f42:	2103      	movs	r1, #3
 8004f44:	5499      	strb	r1, [r3, r2]
 8004f46:	68fb      	ldr	r3, [r7, #12]
 8004f48:	2228      	movs	r2, #40	@ 0x28
 8004f4a:	2100      	movs	r1, #0
 8004f4c:	5499      	strb	r1, [r3, r2]
 8004f4e:	2303      	movs	r3, #3
 8004f50:	e035      	b.n	8004fbe <HAL_RTC_SetAlarm_IT+0x26a>
 8004f52:	68fb      	ldr	r3, [r7, #12]
 8004f54:	681b      	ldr	r3, [r3, #0]
 8004f56:	68db      	ldr	r3, [r3, #12]
 8004f58:	2202      	movs	r2, #2
 8004f5a:	4013      	ands	r3, r2
 8004f5c:	d0e2      	beq.n	8004f24 <HAL_RTC_SetAlarm_IT+0x1d0>
 8004f5e:	68fb      	ldr	r3, [r7, #12]
 8004f60:	681b      	ldr	r3, [r3, #0]
 8004f62:	69fa      	ldr	r2, [r7, #28]
 8004f64:	649a      	str	r2, [r3, #72]	@ 0x48
 8004f66:	68fb      	ldr	r3, [r7, #12]
 8004f68:	681b      	ldr	r3, [r3, #0]
 8004f6a:	69ba      	ldr	r2, [r7, #24]
 8004f6c:	64da      	str	r2, [r3, #76]	@ 0x4c
 8004f6e:	68fb      	ldr	r3, [r7, #12]
 8004f70:	681b      	ldr	r3, [r3, #0]
 8004f72:	699a      	ldr	r2, [r3, #24]
 8004f74:	68fb      	ldr	r3, [r7, #12]
 8004f76:	681b      	ldr	r3, [r3, #0]
 8004f78:	2180      	movs	r1, #128	@ 0x80
 8004f7a:	0089      	lsls	r1, r1, #2
 8004f7c:	430a      	orrs	r2, r1
 8004f7e:	619a      	str	r2, [r3, #24]
 8004f80:	68fb      	ldr	r3, [r7, #12]
 8004f82:	681b      	ldr	r3, [r3, #0]
 8004f84:	699a      	ldr	r2, [r3, #24]
 8004f86:	68fb      	ldr	r3, [r7, #12]
 8004f88:	681b      	ldr	r3, [r3, #0]
 8004f8a:	2180      	movs	r1, #128	@ 0x80
 8004f8c:	0189      	lsls	r1, r1, #6
 8004f8e:	430a      	orrs	r2, r1
 8004f90:	619a      	str	r2, [r3, #24]
 8004f92:	4a0f      	ldr	r2, [pc, #60]	@ (8004fd0 <HAL_RTC_SetAlarm_IT+0x27c>)
 8004f94:	2380      	movs	r3, #128	@ 0x80
 8004f96:	58d3      	ldr	r3, [r2, r3]
 8004f98:	490d      	ldr	r1, [pc, #52]	@ (8004fd0 <HAL_RTC_SetAlarm_IT+0x27c>)
 8004f9a:	2280      	movs	r2, #128	@ 0x80
 8004f9c:	0312      	lsls	r2, r2, #12
 8004f9e:	4313      	orrs	r3, r2
 8004fa0:	2280      	movs	r2, #128	@ 0x80
 8004fa2:	508b      	str	r3, [r1, r2]
 8004fa4:	68fb      	ldr	r3, [r7, #12]
 8004fa6:	681b      	ldr	r3, [r3, #0]
 8004fa8:	22ff      	movs	r2, #255	@ 0xff
 8004faa:	625a      	str	r2, [r3, #36]	@ 0x24
 8004fac:	68fb      	ldr	r3, [r7, #12]
 8004fae:	2229      	movs	r2, #41	@ 0x29
 8004fb0:	2101      	movs	r1, #1
 8004fb2:	5499      	strb	r1, [r3, r2]
 8004fb4:	68fb      	ldr	r3, [r7, #12]
 8004fb6:	2228      	movs	r2, #40	@ 0x28
 8004fb8:	2100      	movs	r1, #0
 8004fba:	5499      	strb	r1, [r3, r2]
 8004fbc:	2300      	movs	r3, #0
 8004fbe:	0018      	movs	r0, r3
 8004fc0:	46bd      	mov	sp, r7
 8004fc2:	b009      	add	sp, #36	@ 0x24
 8004fc4:	bd90      	pop	{r4, r7, pc}
 8004fc6:	46c0      	nop			@ (mov r8, r8)
 8004fc8:	fffffeff 	.word	0xfffffeff
 8004fcc:	fffffdff 	.word	0xfffffdff
 8004fd0:	40021800 	.word	0x40021800

08004fd4 <HAL_RTC_GetAlarm>:
 8004fd4:	b580      	push	{r7, lr}
 8004fd6:	b086      	sub	sp, #24
 8004fd8:	af00      	add	r7, sp, #0
 8004fda:	60f8      	str	r0, [r7, #12]
 8004fdc:	60b9      	str	r1, [r7, #8]
 8004fde:	607a      	str	r2, [r7, #4]
 8004fe0:	603b      	str	r3, [r7, #0]
 8004fe2:	687a      	ldr	r2, [r7, #4]
 8004fe4:	2380      	movs	r3, #128	@ 0x80
 8004fe6:	005b      	lsls	r3, r3, #1
 8004fe8:	429a      	cmp	r2, r3
 8004fea:	d144      	bne.n	8005076 <HAL_RTC_GetAlarm+0xa2>
 8004fec:	68bb      	ldr	r3, [r7, #8]
 8004fee:	2280      	movs	r2, #128	@ 0x80
 8004ff0:	0052      	lsls	r2, r2, #1
 8004ff2:	625a      	str	r2, [r3, #36]	@ 0x24
 8004ff4:	68fb      	ldr	r3, [r7, #12]
 8004ff6:	681b      	ldr	r3, [r3, #0]
 8004ff8:	6c1b      	ldr	r3, [r3, #64]	@ 0x40
 8004ffa:	617b      	str	r3, [r7, #20]
 8004ffc:	68fb      	ldr	r3, [r7, #12]
 8004ffe:	681b      	ldr	r3, [r3, #0]
 8005000:	6c5b      	ldr	r3, [r3, #68]	@ 0x44
 8005002:	045b      	lsls	r3, r3, #17
 8005004:	0c5b      	lsrs	r3, r3, #17
 8005006:	613b      	str	r3, [r7, #16]
 8005008:	697b      	ldr	r3, [r7, #20]
 800500a:	0c1b      	lsrs	r3, r3, #16
 800500c:	b2db      	uxtb	r3, r3
 800500e:	223f      	movs	r2, #63	@ 0x3f
 8005010:	4013      	ands	r3, r2
 8005012:	b2da      	uxtb	r2, r3
 8005014:	68bb      	ldr	r3, [r7, #8]
 8005016:	701a      	strb	r2, [r3, #0]
 8005018:	697b      	ldr	r3, [r7, #20]
 800501a:	0a1b      	lsrs	r3, r3, #8
 800501c:	b2db      	uxtb	r3, r3
 800501e:	227f      	movs	r2, #127	@ 0x7f
 8005020:	4013      	ands	r3, r2
 8005022:	b2da      	uxtb	r2, r3
 8005024:	68bb      	ldr	r3, [r7, #8]
 8005026:	705a      	strb	r2, [r3, #1]
 8005028:	697b      	ldr	r3, [r7, #20]
 800502a:	b2db      	uxtb	r3, r3
 800502c:	227f      	movs	r2, #127	@ 0x7f
 800502e:	4013      	ands	r3, r2
 8005030:	b2da      	uxtb	r2, r3
 8005032:	68bb      	ldr	r3, [r7, #8]
 8005034:	709a      	strb	r2, [r3, #2]
 8005036:	697b      	ldr	r3, [r7, #20]
 8005038:	0d9b      	lsrs	r3, r3, #22
 800503a:	b2db      	uxtb	r3, r3
 800503c:	2201      	movs	r2, #1
 800503e:	4013      	ands	r3, r2
 8005040:	b2da      	uxtb	r2, r3
 8005042:	68bb      	ldr	r3, [r7, #8]
 8005044:	70da      	strb	r2, [r3, #3]
 8005046:	68bb      	ldr	r3, [r7, #8]
 8005048:	693a      	ldr	r2, [r7, #16]
 800504a:	605a      	str	r2, [r3, #4]
 800504c:	697b      	ldr	r3, [r7, #20]
 800504e:	0e1b      	lsrs	r3, r3, #24
 8005050:	b2db      	uxtb	r3, r3
 8005052:	223f      	movs	r2, #63	@ 0x3f
 8005054:	4013      	ands	r3, r2
 8005056:	b2d9      	uxtb	r1, r3
 8005058:	68bb      	ldr	r3, [r7, #8]
 800505a:	2220      	movs	r2, #32
 800505c:	5499      	strb	r1, [r3, r2]
 800505e:	697a      	ldr	r2, [r7, #20]
 8005060:	2380      	movs	r3, #128	@ 0x80
 8005062:	05db      	lsls	r3, r3, #23
 8005064:	401a      	ands	r2, r3
 8005066:	68bb      	ldr	r3, [r7, #8]
 8005068:	61da      	str	r2, [r3, #28]
 800506a:	697b      	ldr	r3, [r7, #20]
 800506c:	4a3b      	ldr	r2, [pc, #236]	@ (800515c <HAL_RTC_GetAlarm+0x188>)
 800506e:	401a      	ands	r2, r3
 8005070:	68bb      	ldr	r3, [r7, #8]
 8005072:	615a      	str	r2, [r3, #20]
 8005074:	e043      	b.n	80050fe <HAL_RTC_GetAlarm+0x12a>
 8005076:	68bb      	ldr	r3, [r7, #8]
 8005078:	2280      	movs	r2, #128	@ 0x80
 800507a:	0092      	lsls	r2, r2, #2
 800507c:	625a      	str	r2, [r3, #36]	@ 0x24
 800507e:	68fb      	ldr	r3, [r7, #12]
 8005080:	681b      	ldr	r3, [r3, #0]
 8005082:	6c9b      	ldr	r3, [r3, #72]	@ 0x48
 8005084:	617b      	str	r3, [r7, #20]
 8005086:	68fb      	ldr	r3, [r7, #12]
 8005088:	681b      	ldr	r3, [r3, #0]
 800508a:	6cdb      	ldr	r3, [r3, #76]	@ 0x4c
 800508c:	045b      	lsls	r3, r3, #17
 800508e:	0c5b      	lsrs	r3, r3, #17
 8005090:	613b      	str	r3, [r7, #16]
 8005092:	697b      	ldr	r3, [r7, #20]
 8005094:	0c1b      	lsrs	r3, r3, #16
 8005096:	b2db      	uxtb	r3, r3
 8005098:	223f      	movs	r2, #63	@ 0x3f
 800509a:	4013      	ands	r3, r2
 800509c:	b2da      	uxtb	r2, r3
 800509e:	68bb      	ldr	r3, [r7, #8]
 80050a0:	701a      	strb	r2, [r3, #0]
 80050a2:	697b      	ldr	r3, [r7, #20]
 80050a4:	0a1b      	lsrs	r3, r3, #8
 80050a6:	b2db      	uxtb	r3, r3
 80050a8:	227f      	movs	r2, #127	@ 0x7f
 80050aa:	4013      	ands	r3, r2
 80050ac:	b2da      	uxtb	r2, r3
 80050ae:	68bb      	ldr	r3, [r7, #8]
 80050b0:	705a      	strb	r2, [r3, #1]
 80050b2:	697b      	ldr	r3, [r7, #20]
 80050b4:	b2db      	uxtb	r3, r3
 80050b6:	227f      	movs	r2, #127	@ 0x7f
 80050b8:	4013      	ands	r3, r2
 80050ba:	b2da      	uxtb	r2, r3
 80050bc:	68bb      	ldr	r3, [r7, #8]
 80050be:	709a      	strb	r2, [r3, #2]
 80050c0:	697b      	ldr	r3, [r7, #20]
 80050c2:	0d9b      	lsrs	r3, r3, #22
 80050c4:	b2db      	uxtb	r3, r3
 80050c6:	2201      	movs	r2, #1
 80050c8:	4013      	ands	r3, r2
 80050ca:	b2da      	uxtb	r2, r3
 80050cc:	68bb      	ldr	r3, [r7, #8]
 80050ce:	70da      	strb	r2, [r3, #3]
 80050d0:	68bb      	ldr	r3, [r7, #8]
 80050d2:	693a      	ldr	r2, [r7, #16]
 80050d4:	605a      	str	r2, [r3, #4]
 80050d6:	697b      	ldr	r3, [r7, #20]
 80050d8:	0e1b      	lsrs	r3, r3, #24
 80050da:	b2db      	uxtb	r3, r3
 80050dc:	223f      	movs	r2, #63	@ 0x3f
 80050de:	4013      	ands	r3, r2
 80050e0:	b2d9      	uxtb	r1, r3
 80050e2:	68bb      	ldr	r3, [r7, #8]
 80050e4:	2220      	movs	r2, #32
 80050e6:	5499      	strb	r1, [r3, r2]
 80050e8:	697a      	ldr	r2, [r7, #20]
 80050ea:	2380      	movs	r3, #128	@ 0x80
 80050ec:	05db      	lsls	r3, r3, #23
 80050ee:	401a      	ands	r2, r3
 80050f0:	68bb      	ldr	r3, [r7, #8]
 80050f2:	61da      	str	r2, [r3, #28]
 80050f4:	697b      	ldr	r3, [r7, #20]
 80050f6:	4a19      	ldr	r2, [pc, #100]	@ (800515c <HAL_RTC_GetAlarm+0x188>)
 80050f8:	401a      	ands	r2, r3
 80050fa:	68bb      	ldr	r3, [r7, #8]
 80050fc:	615a      	str	r2, [r3, #20]
 80050fe:	683b      	ldr	r3, [r7, #0]
 8005100:	2b00      	cmp	r3, #0
 8005102:	d125      	bne.n	8005150 <HAL_RTC_GetAlarm+0x17c>
 8005104:	68bb      	ldr	r3, [r7, #8]
 8005106:	781b      	ldrb	r3, [r3, #0]
 8005108:	0018      	movs	r0, r3
 800510a:	f000 f88f 	bl	800522c <RTC_Bcd2ToByte>
 800510e:	0003      	movs	r3, r0
 8005110:	001a      	movs	r2, r3
 8005112:	68bb      	ldr	r3, [r7, #8]
 8005114:	701a      	strb	r2, [r3, #0]
 8005116:	68bb      	ldr	r3, [r7, #8]
 8005118:	785b      	ldrb	r3, [r3, #1]
 800511a:	0018      	movs	r0, r3
 800511c:	f000 f886 	bl	800522c <RTC_Bcd2ToByte>
 8005120:	0003      	movs	r3, r0
 8005122:	001a      	movs	r2, r3
 8005124:	68bb      	ldr	r3, [r7, #8]
 8005126:	705a      	strb	r2, [r3, #1]
 8005128:	68bb      	ldr	r3, [r7, #8]
 800512a:	789b      	ldrb	r3, [r3, #2]
 800512c:	0018      	movs	r0, r3
 800512e:	f000 f87d 	bl	800522c <RTC_Bcd2ToByte>
 8005132:	0003      	movs	r3, r0
 8005134:	001a      	movs	r2, r3
 8005136:	68bb      	ldr	r3, [r7, #8]
 8005138:	709a      	strb	r2, [r3, #2]
 800513a:	68bb      	ldr	r3, [r7, #8]
 800513c:	2220      	movs	r2, #32
 800513e:	5c9b      	ldrb	r3, [r3, r2]
 8005140:	0018      	movs	r0, r3
 8005142:	f000 f873 	bl	800522c <RTC_Bcd2ToByte>
 8005146:	0003      	movs	r3, r0
 8005148:	0019      	movs	r1, r3
 800514a:	68bb      	ldr	r3, [r7, #8]
 800514c:	2220      	movs	r2, #32
 800514e:	5499      	strb	r1, [r3, r2]
 8005150:	2300      	movs	r3, #0
 8005152:	0018      	movs	r0, r3
 8005154:	46bd      	mov	sp, r7
 8005156:	b006      	add	sp, #24
 8005158:	bd80      	pop	{r7, pc}
 800515a:	46c0      	nop			@ (mov r8, r8)
 800515c:	80808080 	.word	0x80808080

08005160 <HAL_RTC_AlarmIRQHandler>:
 8005160:	b580      	push	{r7, lr}
 8005162:	b082      	sub	sp, #8
 8005164:	af00      	add	r7, sp, #0
 8005166:	6078      	str	r0, [r7, #4]
 8005168:	687b      	ldr	r3, [r7, #4]
 800516a:	681b      	ldr	r3, [r3, #0]
 800516c:	699a      	ldr	r2, [r3, #24]
 800516e:	2380      	movs	r3, #128	@ 0x80
 8005170:	015b      	lsls	r3, r3, #5
 8005172:	4013      	ands	r3, r2
 8005174:	d011      	beq.n	800519a <HAL_RTC_AlarmIRQHandler+0x3a>
 8005176:	687b      	ldr	r3, [r7, #4]
 8005178:	681b      	ldr	r3, [r3, #0]
 800517a:	6d1b      	ldr	r3, [r3, #80]	@ 0x50
 800517c:	2201      	movs	r2, #1
 800517e:	4013      	ands	r3, r2
 8005180:	d00b      	beq.n	800519a <HAL_RTC_AlarmIRQHandler+0x3a>
 8005182:	687b      	ldr	r3, [r7, #4]
 8005184:	681b      	ldr	r3, [r3, #0]
 8005186:	6dda      	ldr	r2, [r3, #92]	@ 0x5c
 8005188:	687b      	ldr	r3, [r7, #4]
 800518a:	681b      	ldr	r3, [r3, #0]
 800518c:	2101      	movs	r1, #1
 800518e:	430a      	orrs	r2, r1
 8005190:	65da      	str	r2, [r3, #92]	@ 0x5c
 8005192:	687b      	ldr	r3, [r7, #4]
 8005194:	0018      	movs	r0, r3
 8005196:	f7fd fa1f 	bl	80025d8 <HAL_RTC_AlarmAEventCallback>
 800519a:	687b      	ldr	r3, [r7, #4]
 800519c:	681b      	ldr	r3, [r3, #0]
 800519e:	699a      	ldr	r2, [r3, #24]
 80051a0:	2380      	movs	r3, #128	@ 0x80
 80051a2:	019b      	lsls	r3, r3, #6
 80051a4:	4013      	ands	r3, r2
 80051a6:	d011      	beq.n	80051cc <HAL_RTC_AlarmIRQHandler+0x6c>
 80051a8:	687b      	ldr	r3, [r7, #4]
 80051aa:	681b      	ldr	r3, [r3, #0]
 80051ac:	6d1b      	ldr	r3, [r3, #80]	@ 0x50
 80051ae:	2202      	movs	r2, #2
 80051b0:	4013      	ands	r3, r2
 80051b2:	d00b      	beq.n	80051cc <HAL_RTC_AlarmIRQHandler+0x6c>
 80051b4:	687b      	ldr	r3, [r7, #4]
 80051b6:	681b      	ldr	r3, [r3, #0]
 80051b8:	6dda      	ldr	r2, [r3, #92]	@ 0x5c
 80051ba:	687b      	ldr	r3, [r7, #4]
 80051bc:	681b      	ldr	r3, [r3, #0]
 80051be:	2102      	movs	r1, #2
 80051c0:	430a      	orrs	r2, r1
 80051c2:	65da      	str	r2, [r3, #92]	@ 0x5c
 80051c4:	687b      	ldr	r3, [r7, #4]
 80051c6:	0018      	movs	r0, r3
 80051c8:	f000 f873 	bl	80052b2 <HAL_RTCEx_AlarmBEventCallback>
 80051cc:	687b      	ldr	r3, [r7, #4]
 80051ce:	2229      	movs	r2, #41	@ 0x29
 80051d0:	2101      	movs	r1, #1
 80051d2:	5499      	strb	r1, [r3, r2]
 80051d4:	46c0      	nop			@ (mov r8, r8)
 80051d6:	46bd      	mov	sp, r7
 80051d8:	b002      	add	sp, #8
 80051da:	bd80      	pop	{r7, pc}

080051dc <RTC_ByteToBcd2>:
 80051dc:	b580      	push	{r7, lr}
 80051de:	b084      	sub	sp, #16
 80051e0:	af00      	add	r7, sp, #0
 80051e2:	0002      	movs	r2, r0
 80051e4:	1dfb      	adds	r3, r7, #7
 80051e6:	701a      	strb	r2, [r3, #0]
 80051e8:	2300      	movs	r3, #0
 80051ea:	60fb      	str	r3, [r7, #12]
 80051ec:	230b      	movs	r3, #11
 80051ee:	18fb      	adds	r3, r7, r3
 80051f0:	1dfa      	adds	r2, r7, #7
 80051f2:	7812      	ldrb	r2, [r2, #0]
 80051f4:	701a      	strb	r2, [r3, #0]
 80051f6:	e008      	b.n	800520a <RTC_ByteToBcd2+0x2e>
 80051f8:	68fb      	ldr	r3, [r7, #12]
 80051fa:	3301      	adds	r3, #1
 80051fc:	60fb      	str	r3, [r7, #12]
 80051fe:	220b      	movs	r2, #11
 8005200:	18bb      	adds	r3, r7, r2
 8005202:	18ba      	adds	r2, r7, r2
 8005204:	7812      	ldrb	r2, [r2, #0]
 8005206:	3a0a      	subs	r2, #10
 8005208:	701a      	strb	r2, [r3, #0]
 800520a:	210b      	movs	r1, #11
 800520c:	187b      	adds	r3, r7, r1
 800520e:	781b      	ldrb	r3, [r3, #0]
 8005210:	2b09      	cmp	r3, #9
 8005212:	d8f1      	bhi.n	80051f8 <RTC_ByteToBcd2+0x1c>
 8005214:	68fb      	ldr	r3, [r7, #12]
 8005216:	b2db      	uxtb	r3, r3
 8005218:	011b      	lsls	r3, r3, #4
 800521a:	b2da      	uxtb	r2, r3
 800521c:	187b      	adds	r3, r7, r1
 800521e:	781b      	ldrb	r3, [r3, #0]
 8005220:	4313      	orrs	r3, r2
 8005222:	b2db      	uxtb	r3, r3
 8005224:	0018      	movs	r0, r3
 8005226:	46bd      	mov	sp, r7
 8005228:	b004      	add	sp, #16
 800522a:	bd80      	pop	{r7, pc}

0800522c <RTC_Bcd2ToByte>:
 800522c:	b580      	push	{r7, lr}
 800522e:	b084      	sub	sp, #16
 8005230:	af00      	add	r7, sp, #0
 8005232:	0002      	movs	r2, r0
 8005234:	1dfb      	adds	r3, r7, #7
 8005236:	701a      	strb	r2, [r3, #0]
 8005238:	1dfb      	adds	r3, r7, #7
 800523a:	781b      	ldrb	r3, [r3, #0]
 800523c:	091b      	lsrs	r3, r3, #4
 800523e:	b2db      	uxtb	r3, r3
 8005240:	001a      	movs	r2, r3
 8005242:	0013      	movs	r3, r2
 8005244:	009b      	lsls	r3, r3, #2
 8005246:	189b      	adds	r3, r3, r2
 8005248:	005b      	lsls	r3, r3, #1
 800524a:	60fb      	str	r3, [r7, #12]
 800524c:	68fb      	ldr	r3, [r7, #12]
 800524e:	b2da      	uxtb	r2, r3
 8005250:	1dfb      	adds	r3, r7, #7
 8005252:	781b      	ldrb	r3, [r3, #0]
 8005254:	210f      	movs	r1, #15
 8005256:	400b      	ands	r3, r1
 8005258:	b2db      	uxtb	r3, r3
 800525a:	18d3      	adds	r3, r2, r3
 800525c:	b2db      	uxtb	r3, r3
 800525e:	0018      	movs	r0, r3
 8005260:	46bd      	mov	sp, r7
 8005262:	b004      	add	sp, #16
 8005264:	bd80      	pop	{r7, pc}

08005266 <HAL_RTCEx_WakeUpTimerIRQHandler>:
 8005266:	b580      	push	{r7, lr}
 8005268:	b082      	sub	sp, #8
 800526a:	af00      	add	r7, sp, #0
 800526c:	6078      	str	r0, [r7, #4]
 800526e:	687b      	ldr	r3, [r7, #4]
 8005270:	681b      	ldr	r3, [r3, #0]
 8005272:	6d1b      	ldr	r3, [r3, #80]	@ 0x50
 8005274:	2204      	movs	r2, #4
 8005276:	4013      	ands	r3, r2
 8005278:	d00b      	beq.n	8005292 <HAL_RTCEx_WakeUpTimerIRQHandler+0x2c>
 800527a:	687b      	ldr	r3, [r7, #4]
 800527c:	681b      	ldr	r3, [r3, #0]
 800527e:	6dda      	ldr	r2, [r3, #92]	@ 0x5c
 8005280:	687b      	ldr	r3, [r7, #4]
 8005282:	681b      	ldr	r3, [r3, #0]
 8005284:	2104      	movs	r1, #4
 8005286:	430a      	orrs	r2, r1
 8005288:	65da      	str	r2, [r3, #92]	@ 0x5c
 800528a:	687b      	ldr	r3, [r7, #4]
 800528c:	0018      	movs	r0, r3
 800528e:	f000 f808 	bl	80052a2 <HAL_RTCEx_WakeUpTimerEventCallback>
 8005292:	687b      	ldr	r3, [r7, #4]
 8005294:	2229      	movs	r2, #41	@ 0x29
 8005296:	2101      	movs	r1, #1
 8005298:	5499      	strb	r1, [r3, r2]
 800529a:	46c0      	nop			@ (mov r8, r8)
 800529c:	46bd      	mov	sp, r7
 800529e:	b002      	add	sp, #8
 80052a0:	bd80      	pop	{r7, pc}

080052a2 <HAL_RTCEx_WakeUpTimerEventCallback>:
 80052a2:	b580      	push	{r7, lr}
 80052a4:	b082      	sub	sp, #8
 80052a6:	af00      	add	r7, sp, #0
 80052a8:	6078      	str	r0, [r7, #4]
 80052aa:	46c0      	nop			@ (mov r8, r8)
 80052ac:	46bd      	mov	sp, r7
 80052ae:	b002      	add	sp, #8
 80052b0:	bd80      	pop	{r7, pc}

080052b2 <HAL_RTCEx_AlarmBEventCallback>:
 80052b2:	b580      	push	{r7, lr}
 80052b4:	b082      	sub	sp, #8
 80052b6:	af00      	add	r7, sp, #0
 80052b8:	6078      	str	r0, [r7, #4]
 80052ba:	46c0      	nop			@ (mov r8, r8)
 80052bc:	46bd      	mov	sp, r7
 80052be:	b002      	add	sp, #8
 80052c0:	bd80      	pop	{r7, pc}
	...

080052c4 <HAL_SPI_Init>:
 80052c4:	b580      	push	{r7, lr}
 80052c6:	b084      	sub	sp, #16
 80052c8:	af00      	add	r7, sp, #0
 80052ca:	6078      	str	r0, [r7, #4]
 80052cc:	687b      	ldr	r3, [r7, #4]
 80052ce:	2b00      	cmp	r3, #0
 80052d0:	d101      	bne.n	80052d6 <HAL_SPI_Init+0x12>
 80052d2:	2301      	movs	r3, #1
 80052d4:	e0a8      	b.n	8005428 <HAL_SPI_Init+0x164>
 80052d6:	687b      	ldr	r3, [r7, #4]
 80052d8:	6a5b      	ldr	r3, [r3, #36]	@ 0x24
 80052da:	2b00      	cmp	r3, #0
 80052dc:	d109      	bne.n	80052f2 <HAL_SPI_Init+0x2e>
 80052de:	687b      	ldr	r3, [r7, #4]
 80052e0:	685a      	ldr	r2, [r3, #4]
 80052e2:	2382      	movs	r3, #130	@ 0x82
 80052e4:	005b      	lsls	r3, r3, #1
 80052e6:	429a      	cmp	r2, r3
 80052e8:	d009      	beq.n	80052fe <HAL_SPI_Init+0x3a>
 80052ea:	687b      	ldr	r3, [r7, #4]
 80052ec:	2200      	movs	r2, #0
 80052ee:	61da      	str	r2, [r3, #28]
 80052f0:	e005      	b.n	80052fe <HAL_SPI_Init+0x3a>
 80052f2:	687b      	ldr	r3, [r7, #4]
 80052f4:	2200      	movs	r2, #0
 80052f6:	611a      	str	r2, [r3, #16]
 80052f8:	687b      	ldr	r3, [r7, #4]
 80052fa:	2200      	movs	r2, #0
 80052fc:	615a      	str	r2, [r3, #20]
 80052fe:	687b      	ldr	r3, [r7, #4]
 8005300:	2200      	movs	r2, #0
 8005302:	629a      	str	r2, [r3, #40]	@ 0x28
 8005304:	687b      	ldr	r3, [r7, #4]
 8005306:	225d      	movs	r2, #93	@ 0x5d
 8005308:	5c9b      	ldrb	r3, [r3, r2]
 800530a:	b2db      	uxtb	r3, r3
 800530c:	2b00      	cmp	r3, #0
 800530e:	d107      	bne.n	8005320 <HAL_SPI_Init+0x5c>
 8005310:	687b      	ldr	r3, [r7, #4]
 8005312:	225c      	movs	r2, #92	@ 0x5c
 8005314:	2100      	movs	r1, #0
 8005316:	5499      	strb	r1, [r3, r2]
 8005318:	687b      	ldr	r3, [r7, #4]
 800531a:	0018      	movs	r0, r3
 800531c:	f7fd fa26 	bl	800276c <HAL_SPI_MspInit>
 8005320:	687b      	ldr	r3, [r7, #4]
 8005322:	225d      	movs	r2, #93	@ 0x5d
 8005324:	2102      	movs	r1, #2
 8005326:	5499      	strb	r1, [r3, r2]
 8005328:	687b      	ldr	r3, [r7, #4]
 800532a:	681b      	ldr	r3, [r3, #0]
 800532c:	681a      	ldr	r2, [r3, #0]
 800532e:	687b      	ldr	r3, [r7, #4]
 8005330:	681b      	ldr	r3, [r3, #0]
 8005332:	2140      	movs	r1, #64	@ 0x40
 8005334:	438a      	bics	r2, r1
 8005336:	601a      	str	r2, [r3, #0]
 8005338:	687b      	ldr	r3, [r7, #4]
 800533a:	68da      	ldr	r2, [r3, #12]
 800533c:	23e0      	movs	r3, #224	@ 0xe0
 800533e:	00db      	lsls	r3, r3, #3
 8005340:	429a      	cmp	r2, r3
 8005342:	d902      	bls.n	800534a <HAL_SPI_Init+0x86>
 8005344:	2300      	movs	r3, #0
 8005346:	60fb      	str	r3, [r7, #12]
 8005348:	e002      	b.n	8005350 <HAL_SPI_Init+0x8c>
 800534a:	2380      	movs	r3, #128	@ 0x80
 800534c:	015b      	lsls	r3, r3, #5
 800534e:	60fb      	str	r3, [r7, #12]
 8005350:	687b      	ldr	r3, [r7, #4]
 8005352:	68da      	ldr	r2, [r3, #12]
 8005354:	23f0      	movs	r3, #240	@ 0xf0
 8005356:	011b      	lsls	r3, r3, #4
 8005358:	429a      	cmp	r2, r3
 800535a:	d008      	beq.n	800536e <HAL_SPI_Init+0xaa>
 800535c:	687b      	ldr	r3, [r7, #4]
 800535e:	68da      	ldr	r2, [r3, #12]
 8005360:	23e0      	movs	r3, #224	@ 0xe0
 8005362:	00db      	lsls	r3, r3, #3
 8005364:	429a      	cmp	r2, r3
 8005366:	d002      	beq.n	800536e <HAL_SPI_Init+0xaa>
 8005368:	687b      	ldr	r3, [r7, #4]
 800536a:	2200      	movs	r2, #0
 800536c:	629a      	str	r2, [r3, #40]	@ 0x28
 800536e:	687b      	ldr	r3, [r7, #4]
 8005370:	685a      	ldr	r2, [r3, #4]
 8005372:	2382      	movs	r3, #130	@ 0x82
 8005374:	005b      	lsls	r3, r3, #1
 8005376:	401a      	ands	r2, r3
 8005378:	687b      	ldr	r3, [r7, #4]
 800537a:	6899      	ldr	r1, [r3, #8]
 800537c:	2384      	movs	r3, #132	@ 0x84
 800537e:	021b      	lsls	r3, r3, #8
 8005380:	400b      	ands	r3, r1
 8005382:	431a      	orrs	r2, r3
 8005384:	687b      	ldr	r3, [r7, #4]
 8005386:	691b      	ldr	r3, [r3, #16]
 8005388:	2102      	movs	r1, #2
 800538a:	400b      	ands	r3, r1
 800538c:	431a      	orrs	r2, r3
 800538e:	687b      	ldr	r3, [r7, #4]
 8005390:	695b      	ldr	r3, [r3, #20]
 8005392:	2101      	movs	r1, #1
 8005394:	400b      	ands	r3, r1
 8005396:	431a      	orrs	r2, r3
 8005398:	687b      	ldr	r3, [r7, #4]
 800539a:	6999      	ldr	r1, [r3, #24]
 800539c:	2380      	movs	r3, #128	@ 0x80
 800539e:	009b      	lsls	r3, r3, #2
 80053a0:	400b      	ands	r3, r1
 80053a2:	431a      	orrs	r2, r3
 80053a4:	687b      	ldr	r3, [r7, #4]
 80053a6:	69db      	ldr	r3, [r3, #28]
 80053a8:	2138      	movs	r1, #56	@ 0x38
 80053aa:	400b      	ands	r3, r1
 80053ac:	431a      	orrs	r2, r3
 80053ae:	687b      	ldr	r3, [r7, #4]
 80053b0:	6a1b      	ldr	r3, [r3, #32]
 80053b2:	2180      	movs	r1, #128	@ 0x80
 80053b4:	400b      	ands	r3, r1
 80053b6:	431a      	orrs	r2, r3
 80053b8:	0011      	movs	r1, r2
 80053ba:	687b      	ldr	r3, [r7, #4]
 80053bc:	6a9a      	ldr	r2, [r3, #40]	@ 0x28
 80053be:	2380      	movs	r3, #128	@ 0x80
 80053c0:	019b      	lsls	r3, r3, #6
 80053c2:	401a      	ands	r2, r3
 80053c4:	687b      	ldr	r3, [r7, #4]
 80053c6:	681b      	ldr	r3, [r3, #0]
 80053c8:	430a      	orrs	r2, r1
 80053ca:	601a      	str	r2, [r3, #0]
 80053cc:	687b      	ldr	r3, [r7, #4]
 80053ce:	699b      	ldr	r3, [r3, #24]
 80053d0:	0c1b      	lsrs	r3, r3, #16
 80053d2:	2204      	movs	r2, #4
 80053d4:	401a      	ands	r2, r3
 80053d6:	687b      	ldr	r3, [r7, #4]
 80053d8:	6a5b      	ldr	r3, [r3, #36]	@ 0x24
 80053da:	2110      	movs	r1, #16
 80053dc:	400b      	ands	r3, r1
 80053de:	431a      	orrs	r2, r3
 80053e0:	687b      	ldr	r3, [r7, #4]
 80053e2:	6b5b      	ldr	r3, [r3, #52]	@ 0x34
 80053e4:	2108      	movs	r1, #8
 80053e6:	400b      	ands	r3, r1
 80053e8:	431a      	orrs	r2, r3
 80053ea:	687b      	ldr	r3, [r7, #4]
 80053ec:	68d9      	ldr	r1, [r3, #12]
 80053ee:	23f0      	movs	r3, #240	@ 0xf0
 80053f0:	011b      	lsls	r3, r3, #4
 80053f2:	400b      	ands	r3, r1
 80053f4:	431a      	orrs	r2, r3
 80053f6:	0011      	movs	r1, r2
 80053f8:	68fa      	ldr	r2, [r7, #12]
 80053fa:	2380      	movs	r3, #128	@ 0x80
 80053fc:	015b      	lsls	r3, r3, #5
 80053fe:	401a      	ands	r2, r3
 8005400:	687b      	ldr	r3, [r7, #4]
 8005402:	681b      	ldr	r3, [r3, #0]
 8005404:	430a      	orrs	r2, r1
 8005406:	605a      	str	r2, [r3, #4]
 8005408:	687b      	ldr	r3, [r7, #4]
 800540a:	681b      	ldr	r3, [r3, #0]
 800540c:	69da      	ldr	r2, [r3, #28]
 800540e:	687b      	ldr	r3, [r7, #4]
 8005410:	681b      	ldr	r3, [r3, #0]
 8005412:	4907      	ldr	r1, [pc, #28]	@ (8005430 <HAL_SPI_Init+0x16c>)
 8005414:	400a      	ands	r2, r1
 8005416:	61da      	str	r2, [r3, #28]
 8005418:	687b      	ldr	r3, [r7, #4]
 800541a:	2200      	movs	r2, #0
 800541c:	661a      	str	r2, [r3, #96]	@ 0x60
 800541e:	687b      	ldr	r3, [r7, #4]
 8005420:	225d      	movs	r2, #93	@ 0x5d
 8005422:	2101      	movs	r1, #1
 8005424:	5499      	strb	r1, [r3, r2]
 8005426:	2300      	movs	r3, #0
 8005428:	0018      	movs	r0, r3
 800542a:	46bd      	mov	sp, r7
 800542c:	b004      	add	sp, #16
 800542e:	bd80      	pop	{r7, pc}
 8005430:	fffff7ff 	.word	0xfffff7ff

08005434 <HAL_SPI_Transmit>:
 8005434:	b580      	push	{r7, lr}
 8005436:	b088      	sub	sp, #32
 8005438:	af00      	add	r7, sp, #0
 800543a:	60f8      	str	r0, [r7, #12]
 800543c:	60b9      	str	r1, [r7, #8]
 800543e:	603b      	str	r3, [r7, #0]
 8005440:	1dbb      	adds	r3, r7, #6
 8005442:	801a      	strh	r2, [r3, #0]
 8005444:	231f      	movs	r3, #31
 8005446:	18fb      	adds	r3, r7, r3
 8005448:	2200      	movs	r2, #0
 800544a:	701a      	strb	r2, [r3, #0]
 800544c:	68fb      	ldr	r3, [r7, #12]
 800544e:	225c      	movs	r2, #92	@ 0x5c
 8005450:	5c9b      	ldrb	r3, [r3, r2]
 8005452:	2b01      	cmp	r3, #1
 8005454:	d101      	bne.n	800545a <HAL_SPI_Transmit+0x26>
 8005456:	2302      	movs	r3, #2
 8005458:	e147      	b.n	80056ea <HAL_SPI_Transmit+0x2b6>
 800545a:	68fb      	ldr	r3, [r7, #12]
 800545c:	225c      	movs	r2, #92	@ 0x5c
 800545e:	2101      	movs	r1, #1
 8005460:	5499      	strb	r1, [r3, r2]
 8005462:	f7fd fc03 	bl	8002c6c <HAL_GetTick>
 8005466:	0003      	movs	r3, r0
 8005468:	61bb      	str	r3, [r7, #24]
 800546a:	2316      	movs	r3, #22
 800546c:	18fb      	adds	r3, r7, r3
 800546e:	1dba      	adds	r2, r7, #6
 8005470:	8812      	ldrh	r2, [r2, #0]
 8005472:	801a      	strh	r2, [r3, #0]
 8005474:	68fb      	ldr	r3, [r7, #12]
 8005476:	225d      	movs	r2, #93	@ 0x5d
 8005478:	5c9b      	ldrb	r3, [r3, r2]
 800547a:	b2db      	uxtb	r3, r3
 800547c:	2b01      	cmp	r3, #1
 800547e:	d004      	beq.n	800548a <HAL_SPI_Transmit+0x56>
 8005480:	231f      	movs	r3, #31
 8005482:	18fb      	adds	r3, r7, r3
 8005484:	2202      	movs	r2, #2
 8005486:	701a      	strb	r2, [r3, #0]
 8005488:	e128      	b.n	80056dc <HAL_SPI_Transmit+0x2a8>
 800548a:	68bb      	ldr	r3, [r7, #8]
 800548c:	2b00      	cmp	r3, #0
 800548e:	d003      	beq.n	8005498 <HAL_SPI_Transmit+0x64>
 8005490:	1dbb      	adds	r3, r7, #6
 8005492:	881b      	ldrh	r3, [r3, #0]
 8005494:	2b00      	cmp	r3, #0
 8005496:	d104      	bne.n	80054a2 <HAL_SPI_Transmit+0x6e>
 8005498:	231f      	movs	r3, #31
 800549a:	18fb      	adds	r3, r7, r3
 800549c:	2201      	movs	r2, #1
 800549e:	701a      	strb	r2, [r3, #0]
 80054a0:	e11c      	b.n	80056dc <HAL_SPI_Transmit+0x2a8>
 80054a2:	68fb      	ldr	r3, [r7, #12]
 80054a4:	225d      	movs	r2, #93	@ 0x5d
 80054a6:	2103      	movs	r1, #3
 80054a8:	5499      	strb	r1, [r3, r2]
 80054aa:	68fb      	ldr	r3, [r7, #12]
 80054ac:	2200      	movs	r2, #0
 80054ae:	661a      	str	r2, [r3, #96]	@ 0x60
 80054b0:	68fb      	ldr	r3, [r7, #12]
 80054b2:	68ba      	ldr	r2, [r7, #8]
 80054b4:	639a      	str	r2, [r3, #56]	@ 0x38
 80054b6:	68fb      	ldr	r3, [r7, #12]
 80054b8:	1dba      	adds	r2, r7, #6
 80054ba:	8812      	ldrh	r2, [r2, #0]
 80054bc:	879a      	strh	r2, [r3, #60]	@ 0x3c
 80054be:	68fb      	ldr	r3, [r7, #12]
 80054c0:	1dba      	adds	r2, r7, #6
 80054c2:	8812      	ldrh	r2, [r2, #0]
 80054c4:	87da      	strh	r2, [r3, #62]	@ 0x3e
 80054c6:	68fb      	ldr	r3, [r7, #12]
 80054c8:	2200      	movs	r2, #0
 80054ca:	641a      	str	r2, [r3, #64]	@ 0x40
 80054cc:	68fb      	ldr	r3, [r7, #12]
 80054ce:	2244      	movs	r2, #68	@ 0x44
 80054d0:	2100      	movs	r1, #0
 80054d2:	5299      	strh	r1, [r3, r2]
 80054d4:	68fb      	ldr	r3, [r7, #12]
 80054d6:	2246      	movs	r2, #70	@ 0x46
 80054d8:	2100      	movs	r1, #0
 80054da:	5299      	strh	r1, [r3, r2]
 80054dc:	68fb      	ldr	r3, [r7, #12]
 80054de:	2200      	movs	r2, #0
 80054e0:	651a      	str	r2, [r3, #80]	@ 0x50
 80054e2:	68fb      	ldr	r3, [r7, #12]
 80054e4:	2200      	movs	r2, #0
 80054e6:	64da      	str	r2, [r3, #76]	@ 0x4c
 80054e8:	68fb      	ldr	r3, [r7, #12]
 80054ea:	689a      	ldr	r2, [r3, #8]
 80054ec:	2380      	movs	r3, #128	@ 0x80
 80054ee:	021b      	lsls	r3, r3, #8
 80054f0:	429a      	cmp	r2, r3
 80054f2:	d110      	bne.n	8005516 <HAL_SPI_Transmit+0xe2>
 80054f4:	68fb      	ldr	r3, [r7, #12]
 80054f6:	681b      	ldr	r3, [r3, #0]
 80054f8:	681a      	ldr	r2, [r3, #0]
 80054fa:	68fb      	ldr	r3, [r7, #12]
 80054fc:	681b      	ldr	r3, [r3, #0]
 80054fe:	2140      	movs	r1, #64	@ 0x40
 8005500:	438a      	bics	r2, r1
 8005502:	601a      	str	r2, [r3, #0]
 8005504:	68fb      	ldr	r3, [r7, #12]
 8005506:	681b      	ldr	r3, [r3, #0]
 8005508:	681a      	ldr	r2, [r3, #0]
 800550a:	68fb      	ldr	r3, [r7, #12]
 800550c:	681b      	ldr	r3, [r3, #0]
 800550e:	2180      	movs	r1, #128	@ 0x80
 8005510:	01c9      	lsls	r1, r1, #7
 8005512:	430a      	orrs	r2, r1
 8005514:	601a      	str	r2, [r3, #0]
 8005516:	68fb      	ldr	r3, [r7, #12]
 8005518:	681b      	ldr	r3, [r3, #0]
 800551a:	681b      	ldr	r3, [r3, #0]
 800551c:	2240      	movs	r2, #64	@ 0x40
 800551e:	4013      	ands	r3, r2
 8005520:	2b40      	cmp	r3, #64	@ 0x40
 8005522:	d007      	beq.n	8005534 <HAL_SPI_Transmit+0x100>
 8005524:	68fb      	ldr	r3, [r7, #12]
 8005526:	681b      	ldr	r3, [r3, #0]
 8005528:	681a      	ldr	r2, [r3, #0]
 800552a:	68fb      	ldr	r3, [r7, #12]
 800552c:	681b      	ldr	r3, [r3, #0]
 800552e:	2140      	movs	r1, #64	@ 0x40
 8005530:	430a      	orrs	r2, r1
 8005532:	601a      	str	r2, [r3, #0]
 8005534:	68fb      	ldr	r3, [r7, #12]
 8005536:	68da      	ldr	r2, [r3, #12]
 8005538:	23e0      	movs	r3, #224	@ 0xe0
 800553a:	00db      	lsls	r3, r3, #3
 800553c:	429a      	cmp	r2, r3
 800553e:	d952      	bls.n	80055e6 <HAL_SPI_Transmit+0x1b2>
 8005540:	68fb      	ldr	r3, [r7, #12]
 8005542:	685b      	ldr	r3, [r3, #4]
 8005544:	2b00      	cmp	r3, #0
 8005546:	d004      	beq.n	8005552 <HAL_SPI_Transmit+0x11e>
 8005548:	2316      	movs	r3, #22
 800554a:	18fb      	adds	r3, r7, r3
 800554c:	881b      	ldrh	r3, [r3, #0]
 800554e:	2b01      	cmp	r3, #1
 8005550:	d143      	bne.n	80055da <HAL_SPI_Transmit+0x1a6>
 8005552:	68fb      	ldr	r3, [r7, #12]
 8005554:	6b9b      	ldr	r3, [r3, #56]	@ 0x38
 8005556:	881a      	ldrh	r2, [r3, #0]
 8005558:	68fb      	ldr	r3, [r7, #12]
 800555a:	681b      	ldr	r3, [r3, #0]
 800555c:	60da      	str	r2, [r3, #12]
 800555e:	68fb      	ldr	r3, [r7, #12]
 8005560:	6b9b      	ldr	r3, [r3, #56]	@ 0x38
 8005562:	1c9a      	adds	r2, r3, #2
 8005564:	68fb      	ldr	r3, [r7, #12]
 8005566:	639a      	str	r2, [r3, #56]	@ 0x38
 8005568:	68fb      	ldr	r3, [r7, #12]
 800556a:	8fdb      	ldrh	r3, [r3, #62]	@ 0x3e
 800556c:	b29b      	uxth	r3, r3
 800556e:	3b01      	subs	r3, #1
 8005570:	b29a      	uxth	r2, r3
 8005572:	68fb      	ldr	r3, [r7, #12]
 8005574:	87da      	strh	r2, [r3, #62]	@ 0x3e
 8005576:	e030      	b.n	80055da <HAL_SPI_Transmit+0x1a6>
 8005578:	68fb      	ldr	r3, [r7, #12]
 800557a:	681b      	ldr	r3, [r3, #0]
 800557c:	689b      	ldr	r3, [r3, #8]
 800557e:	2202      	movs	r2, #2
 8005580:	4013      	ands	r3, r2
 8005582:	2b02      	cmp	r3, #2
 8005584:	d112      	bne.n	80055ac <HAL_SPI_Transmit+0x178>
 8005586:	68fb      	ldr	r3, [r7, #12]
 8005588:	6b9b      	ldr	r3, [r3, #56]	@ 0x38
 800558a:	881a      	ldrh	r2, [r3, #0]
 800558c:	68fb      	ldr	r3, [r7, #12]
 800558e:	681b      	ldr	r3, [r3, #0]
 8005590:	60da      	str	r2, [r3, #12]
 8005592:	68fb      	ldr	r3, [r7, #12]
 8005594:	6b9b      	ldr	r3, [r3, #56]	@ 0x38
 8005596:	1c9a      	adds	r2, r3, #2
 8005598:	68fb      	ldr	r3, [r7, #12]
 800559a:	639a      	str	r2, [r3, #56]	@ 0x38
 800559c:	68fb      	ldr	r3, [r7, #12]
 800559e:	8fdb      	ldrh	r3, [r3, #62]	@ 0x3e
 80055a0:	b29b      	uxth	r3, r3
 80055a2:	3b01      	subs	r3, #1
 80055a4:	b29a      	uxth	r2, r3
 80055a6:	68fb      	ldr	r3, [r7, #12]
 80055a8:	87da      	strh	r2, [r3, #62]	@ 0x3e
 80055aa:	e016      	b.n	80055da <HAL_SPI_Transmit+0x1a6>
 80055ac:	f7fd fb5e 	bl	8002c6c <HAL_GetTick>
 80055b0:	0002      	movs	r2, r0
 80055b2:	69bb      	ldr	r3, [r7, #24]
 80055b4:	1ad3      	subs	r3, r2, r3
 80055b6:	683a      	ldr	r2, [r7, #0]
 80055b8:	429a      	cmp	r2, r3
 80055ba:	d802      	bhi.n	80055c2 <HAL_SPI_Transmit+0x18e>
 80055bc:	683b      	ldr	r3, [r7, #0]
 80055be:	3301      	adds	r3, #1
 80055c0:	d102      	bne.n	80055c8 <HAL_SPI_Transmit+0x194>
 80055c2:	683b      	ldr	r3, [r7, #0]
 80055c4:	2b00      	cmp	r3, #0
 80055c6:	d108      	bne.n	80055da <HAL_SPI_Transmit+0x1a6>
 80055c8:	231f      	movs	r3, #31
 80055ca:	18fb      	adds	r3, r7, r3
 80055cc:	2203      	movs	r2, #3
 80055ce:	701a      	strb	r2, [r3, #0]
 80055d0:	68fb      	ldr	r3, [r7, #12]
 80055d2:	225d      	movs	r2, #93	@ 0x5d
 80055d4:	2101      	movs	r1, #1
 80055d6:	5499      	strb	r1, [r3, r2]
 80055d8:	e080      	b.n	80056dc <HAL_SPI_Transmit+0x2a8>
 80055da:	68fb      	ldr	r3, [r7, #12]
 80055dc:	8fdb      	ldrh	r3, [r3, #62]	@ 0x3e
 80055de:	b29b      	uxth	r3, r3
 80055e0:	2b00      	cmp	r3, #0
 80055e2:	d1c9      	bne.n	8005578 <HAL_SPI_Transmit+0x144>
 80055e4:	e053      	b.n	800568e <HAL_SPI_Transmit+0x25a>
 80055e6:	68fb      	ldr	r3, [r7, #12]
 80055e8:	685b      	ldr	r3, [r3, #4]
 80055ea:	2b00      	cmp	r3, #0
 80055ec:	d004      	beq.n	80055f8 <HAL_SPI_Transmit+0x1c4>
 80055ee:	2316      	movs	r3, #22
 80055f0:	18fb      	adds	r3, r7, r3
 80055f2:	881b      	ldrh	r3, [r3, #0]
 80055f4:	2b01      	cmp	r3, #1
 80055f6:	d145      	bne.n	8005684 <HAL_SPI_Transmit+0x250>
 80055f8:	68fb      	ldr	r3, [r7, #12]
 80055fa:	6b9a      	ldr	r2, [r3, #56]	@ 0x38
 80055fc:	68fb      	ldr	r3, [r7, #12]
 80055fe:	681b      	ldr	r3, [r3, #0]
 8005600:	330c      	adds	r3, #12
 8005602:	7812      	ldrb	r2, [r2, #0]
 8005604:	701a      	strb	r2, [r3, #0]
 8005606:	68fb      	ldr	r3, [r7, #12]
 8005608:	6b9b      	ldr	r3, [r3, #56]	@ 0x38
 800560a:	1c5a      	adds	r2, r3, #1
 800560c:	68fb      	ldr	r3, [r7, #12]
 800560e:	639a      	str	r2, [r3, #56]	@ 0x38
 8005610:	68fb      	ldr	r3, [r7, #12]
 8005612:	8fdb      	ldrh	r3, [r3, #62]	@ 0x3e
 8005614:	b29b      	uxth	r3, r3
 8005616:	3b01      	subs	r3, #1
 8005618:	b29a      	uxth	r2, r3
 800561a:	68fb      	ldr	r3, [r7, #12]
 800561c:	87da      	strh	r2, [r3, #62]	@ 0x3e
 800561e:	e031      	b.n	8005684 <HAL_SPI_Transmit+0x250>
 8005620:	68fb      	ldr	r3, [r7, #12]
 8005622:	681b      	ldr	r3, [r3, #0]
 8005624:	689b      	ldr	r3, [r3, #8]
 8005626:	2202      	movs	r2, #2
 8005628:	4013      	ands	r3, r2
 800562a:	2b02      	cmp	r3, #2
 800562c:	d113      	bne.n	8005656 <HAL_SPI_Transmit+0x222>
 800562e:	68fb      	ldr	r3, [r7, #12]
 8005630:	6b9a      	ldr	r2, [r3, #56]	@ 0x38
 8005632:	68fb      	ldr	r3, [r7, #12]
 8005634:	681b      	ldr	r3, [r3, #0]
 8005636:	330c      	adds	r3, #12
 8005638:	7812      	ldrb	r2, [r2, #0]
 800563a:	701a      	strb	r2, [r3, #0]
 800563c:	68fb      	ldr	r3, [r7, #12]
 800563e:	6b9b      	ldr	r3, [r3, #56]	@ 0x38
 8005640:	1c5a      	adds	r2, r3, #1
 8005642:	68fb      	ldr	r3, [r7, #12]
 8005644:	639a      	str	r2, [r3, #56]	@ 0x38
 8005646:	68fb      	ldr	r3, [r7, #12]
 8005648:	8fdb      	ldrh	r3, [r3, #62]	@ 0x3e
 800564a:	b29b      	uxth	r3, r3
 800564c:	3b01      	subs	r3, #1
 800564e:	b29a      	uxth	r2, r3
 8005650:	68fb      	ldr	r3, [r7, #12]
 8005652:	87da      	strh	r2, [r3, #62]	@ 0x3e
 8005654:	e016      	b.n	8005684 <HAL_SPI_Transmit+0x250>
 8005656:	f7fd fb09 	bl	8002c6c <HAL_GetTick>
 800565a:	0002      	movs	r2, r0
 800565c:	69bb      	ldr	r3, [r7, #24]
 800565e:	1ad3      	subs	r3, r2, r3
 8005660:	683a      	ldr	r2, [r7, #0]
 8005662:	429a      	cmp	r2, r3
 8005664:	d802      	bhi.n	800566c <HAL_SPI_Transmit+0x238>
 8005666:	683b      	ldr	r3, [r7, #0]
 8005668:	3301      	adds	r3, #1
 800566a:	d102      	bne.n	8005672 <HAL_SPI_Transmit+0x23e>
 800566c:	683b      	ldr	r3, [r7, #0]
 800566e:	2b00      	cmp	r3, #0
 8005670:	d108      	bne.n	8005684 <HAL_SPI_Transmit+0x250>
 8005672:	231f      	movs	r3, #31
 8005674:	18fb      	adds	r3, r7, r3
 8005676:	2203      	movs	r2, #3
 8005678:	701a      	strb	r2, [r3, #0]
 800567a:	68fb      	ldr	r3, [r7, #12]
 800567c:	225d      	movs	r2, #93	@ 0x5d
 800567e:	2101      	movs	r1, #1
 8005680:	5499      	strb	r1, [r3, r2]
 8005682:	e02b      	b.n	80056dc <HAL_SPI_Transmit+0x2a8>
 8005684:	68fb      	ldr	r3, [r7, #12]
 8005686:	8fdb      	ldrh	r3, [r3, #62]	@ 0x3e
 8005688:	b29b      	uxth	r3, r3
 800568a:	2b00      	cmp	r3, #0
 800568c:	d1c8      	bne.n	8005620 <HAL_SPI_Transmit+0x1ec>
 800568e:	69ba      	ldr	r2, [r7, #24]
 8005690:	6839      	ldr	r1, [r7, #0]
 8005692:	68fb      	ldr	r3, [r7, #12]
 8005694:	0018      	movs	r0, r3
 8005696:	f000 f95d 	bl	8005954 <SPI_EndRxTxTransaction>
 800569a:	1e03      	subs	r3, r0, #0
 800569c:	d002      	beq.n	80056a4 <HAL_SPI_Transmit+0x270>
 800569e:	68fb      	ldr	r3, [r7, #12]
 80056a0:	2220      	movs	r2, #32
 80056a2:	661a      	str	r2, [r3, #96]	@ 0x60
 80056a4:	68fb      	ldr	r3, [r7, #12]
 80056a6:	689b      	ldr	r3, [r3, #8]
 80056a8:	2b00      	cmp	r3, #0
 80056aa:	d10a      	bne.n	80056c2 <HAL_SPI_Transmit+0x28e>
 80056ac:	2300      	movs	r3, #0
 80056ae:	613b      	str	r3, [r7, #16]
 80056b0:	68fb      	ldr	r3, [r7, #12]
 80056b2:	681b      	ldr	r3, [r3, #0]
 80056b4:	68db      	ldr	r3, [r3, #12]
 80056b6:	613b      	str	r3, [r7, #16]
 80056b8:	68fb      	ldr	r3, [r7, #12]
 80056ba:	681b      	ldr	r3, [r3, #0]
 80056bc:	689b      	ldr	r3, [r3, #8]
 80056be:	613b      	str	r3, [r7, #16]
 80056c0:	693b      	ldr	r3, [r7, #16]
 80056c2:	68fb      	ldr	r3, [r7, #12]
 80056c4:	6e1b      	ldr	r3, [r3, #96]	@ 0x60
 80056c6:	2b00      	cmp	r3, #0
 80056c8:	d004      	beq.n	80056d4 <HAL_SPI_Transmit+0x2a0>
 80056ca:	231f      	movs	r3, #31
 80056cc:	18fb      	adds	r3, r7, r3
 80056ce:	2201      	movs	r2, #1
 80056d0:	701a      	strb	r2, [r3, #0]
 80056d2:	e003      	b.n	80056dc <HAL_SPI_Transmit+0x2a8>
 80056d4:	68fb      	ldr	r3, [r7, #12]
 80056d6:	225d      	movs	r2, #93	@ 0x5d
 80056d8:	2101      	movs	r1, #1
 80056da:	5499      	strb	r1, [r3, r2]
 80056dc:	68fb      	ldr	r3, [r7, #12]
 80056de:	225c      	movs	r2, #92	@ 0x5c
 80056e0:	2100      	movs	r1, #0
 80056e2:	5499      	strb	r1, [r3, r2]
 80056e4:	231f      	movs	r3, #31
 80056e6:	18fb      	adds	r3, r7, r3
 80056e8:	781b      	ldrb	r3, [r3, #0]
 80056ea:	0018      	movs	r0, r3
 80056ec:	46bd      	mov	sp, r7
 80056ee:	b008      	add	sp, #32
 80056f0:	bd80      	pop	{r7, pc}
	...

080056f4 <SPI_WaitFlagStateUntilTimeout>:
 80056f4:	b580      	push	{r7, lr}
 80056f6:	b088      	sub	sp, #32
 80056f8:	af00      	add	r7, sp, #0
 80056fa:	60f8      	str	r0, [r7, #12]
 80056fc:	60b9      	str	r1, [r7, #8]
 80056fe:	603b      	str	r3, [r7, #0]
 8005700:	1dfb      	adds	r3, r7, #7
 8005702:	701a      	strb	r2, [r3, #0]
 8005704:	f7fd fab2 	bl	8002c6c <HAL_GetTick>
 8005708:	0002      	movs	r2, r0
 800570a:	6abb      	ldr	r3, [r7, #40]	@ 0x28
 800570c:	1a9b      	subs	r3, r3, r2
 800570e:	683a      	ldr	r2, [r7, #0]
 8005710:	18d3      	adds	r3, r2, r3
 8005712:	61fb      	str	r3, [r7, #28]
 8005714:	f7fd faaa 	bl	8002c6c <HAL_GetTick>
 8005718:	0003      	movs	r3, r0
 800571a:	61bb      	str	r3, [r7, #24]
 800571c:	4b3a      	ldr	r3, [pc, #232]	@ (8005808 <SPI_WaitFlagStateUntilTimeout+0x114>)
 800571e:	681b      	ldr	r3, [r3, #0]
 8005720:	015b      	lsls	r3, r3, #5
 8005722:	0d1b      	lsrs	r3, r3, #20
 8005724:	69fa      	ldr	r2, [r7, #28]
 8005726:	4353      	muls	r3, r2
 8005728:	617b      	str	r3, [r7, #20]
 800572a:	e058      	b.n	80057de <SPI_WaitFlagStateUntilTimeout+0xea>
 800572c:	683b      	ldr	r3, [r7, #0]
 800572e:	3301      	adds	r3, #1
 8005730:	d055      	beq.n	80057de <SPI_WaitFlagStateUntilTimeout+0xea>
 8005732:	f7fd fa9b 	bl	8002c6c <HAL_GetTick>
 8005736:	0002      	movs	r2, r0
 8005738:	69bb      	ldr	r3, [r7, #24]
 800573a:	1ad3      	subs	r3, r2, r3
 800573c:	69fa      	ldr	r2, [r7, #28]
 800573e:	429a      	cmp	r2, r3
 8005740:	d902      	bls.n	8005748 <SPI_WaitFlagStateUntilTimeout+0x54>
 8005742:	69fb      	ldr	r3, [r7, #28]
 8005744:	2b00      	cmp	r3, #0
 8005746:	d142      	bne.n	80057ce <SPI_WaitFlagStateUntilTimeout+0xda>
 8005748:	68fb      	ldr	r3, [r7, #12]
 800574a:	681b      	ldr	r3, [r3, #0]
 800574c:	685a      	ldr	r2, [r3, #4]
 800574e:	68fb      	ldr	r3, [r7, #12]
 8005750:	681b      	ldr	r3, [r3, #0]
 8005752:	21e0      	movs	r1, #224	@ 0xe0
 8005754:	438a      	bics	r2, r1
 8005756:	605a      	str	r2, [r3, #4]
 8005758:	68fb      	ldr	r3, [r7, #12]
 800575a:	685a      	ldr	r2, [r3, #4]
 800575c:	2382      	movs	r3, #130	@ 0x82
 800575e:	005b      	lsls	r3, r3, #1
 8005760:	429a      	cmp	r2, r3
 8005762:	d113      	bne.n	800578c <SPI_WaitFlagStateUntilTimeout+0x98>
 8005764:	68fb      	ldr	r3, [r7, #12]
 8005766:	689a      	ldr	r2, [r3, #8]
 8005768:	2380      	movs	r3, #128	@ 0x80
 800576a:	021b      	lsls	r3, r3, #8
 800576c:	429a      	cmp	r2, r3
 800576e:	d005      	beq.n	800577c <SPI_WaitFlagStateUntilTimeout+0x88>
 8005770:	68fb      	ldr	r3, [r7, #12]
 8005772:	689a      	ldr	r2, [r3, #8]
 8005774:	2380      	movs	r3, #128	@ 0x80
 8005776:	00db      	lsls	r3, r3, #3
 8005778:	429a      	cmp	r2, r3
 800577a:	d107      	bne.n	800578c <SPI_WaitFlagStateUntilTimeout+0x98>
 800577c:	68fb      	ldr	r3, [r7, #12]
 800577e:	681b      	ldr	r3, [r3, #0]
 8005780:	681a      	ldr	r2, [r3, #0]
 8005782:	68fb      	ldr	r3, [r7, #12]
 8005784:	681b      	ldr	r3, [r3, #0]
 8005786:	2140      	movs	r1, #64	@ 0x40
 8005788:	438a      	bics	r2, r1
 800578a:	601a      	str	r2, [r3, #0]
 800578c:	68fb      	ldr	r3, [r7, #12]
 800578e:	6a9a      	ldr	r2, [r3, #40]	@ 0x28
 8005790:	2380      	movs	r3, #128	@ 0x80
 8005792:	019b      	lsls	r3, r3, #6
 8005794:	429a      	cmp	r2, r3
 8005796:	d110      	bne.n	80057ba <SPI_WaitFlagStateUntilTimeout+0xc6>
 8005798:	68fb      	ldr	r3, [r7, #12]
 800579a:	681b      	ldr	r3, [r3, #0]
 800579c:	681a      	ldr	r2, [r3, #0]
 800579e:	68fb      	ldr	r3, [r7, #12]
 80057a0:	681b      	ldr	r3, [r3, #0]
 80057a2:	491a      	ldr	r1, [pc, #104]	@ (800580c <SPI_WaitFlagStateUntilTimeout+0x118>)
 80057a4:	400a      	ands	r2, r1
 80057a6:	601a      	str	r2, [r3, #0]
 80057a8:	68fb      	ldr	r3, [r7, #12]
 80057aa:	681b      	ldr	r3, [r3, #0]
 80057ac:	681a      	ldr	r2, [r3, #0]
 80057ae:	68fb      	ldr	r3, [r7, #12]
 80057b0:	681b      	ldr	r3, [r3, #0]
 80057b2:	2180      	movs	r1, #128	@ 0x80
 80057b4:	0189      	lsls	r1, r1, #6
 80057b6:	430a      	orrs	r2, r1
 80057b8:	601a      	str	r2, [r3, #0]
 80057ba:	68fb      	ldr	r3, [r7, #12]
 80057bc:	225d      	movs	r2, #93	@ 0x5d
 80057be:	2101      	movs	r1, #1
 80057c0:	5499      	strb	r1, [r3, r2]
 80057c2:	68fb      	ldr	r3, [r7, #12]
 80057c4:	225c      	movs	r2, #92	@ 0x5c
 80057c6:	2100      	movs	r1, #0
 80057c8:	5499      	strb	r1, [r3, r2]
 80057ca:	2303      	movs	r3, #3
 80057cc:	e017      	b.n	80057fe <SPI_WaitFlagStateUntilTimeout+0x10a>
 80057ce:	697b      	ldr	r3, [r7, #20]
 80057d0:	2b00      	cmp	r3, #0
 80057d2:	d101      	bne.n	80057d8 <SPI_WaitFlagStateUntilTimeout+0xe4>
 80057d4:	2300      	movs	r3, #0
 80057d6:	61fb      	str	r3, [r7, #28]
 80057d8:	697b      	ldr	r3, [r7, #20]
 80057da:	3b01      	subs	r3, #1
 80057dc:	617b      	str	r3, [r7, #20]
 80057de:	68fb      	ldr	r3, [r7, #12]
 80057e0:	681b      	ldr	r3, [r3, #0]
 80057e2:	689b      	ldr	r3, [r3, #8]
 80057e4:	68ba      	ldr	r2, [r7, #8]
 80057e6:	4013      	ands	r3, r2
 80057e8:	68ba      	ldr	r2, [r7, #8]
 80057ea:	1ad3      	subs	r3, r2, r3
 80057ec:	425a      	negs	r2, r3
 80057ee:	4153      	adcs	r3, r2
 80057f0:	b2db      	uxtb	r3, r3
 80057f2:	001a      	movs	r2, r3
 80057f4:	1dfb      	adds	r3, r7, #7
 80057f6:	781b      	ldrb	r3, [r3, #0]
 80057f8:	429a      	cmp	r2, r3
 80057fa:	d197      	bne.n	800572c <SPI_WaitFlagStateUntilTimeout+0x38>
 80057fc:	2300      	movs	r3, #0
 80057fe:	0018      	movs	r0, r3
 8005800:	46bd      	mov	sp, r7
 8005802:	b008      	add	sp, #32
 8005804:	bd80      	pop	{r7, pc}
 8005806:	46c0      	nop			@ (mov r8, r8)
 8005808:	200009e4 	.word	0x200009e4
 800580c:	ffffdfff 	.word	0xffffdfff

08005810 <SPI_WaitFifoStateUntilTimeout>:
 8005810:	b580      	push	{r7, lr}
 8005812:	b08a      	sub	sp, #40	@ 0x28
 8005814:	af00      	add	r7, sp, #0
 8005816:	60f8      	str	r0, [r7, #12]
 8005818:	60b9      	str	r1, [r7, #8]
 800581a:	607a      	str	r2, [r7, #4]
 800581c:	603b      	str	r3, [r7, #0]
 800581e:	2317      	movs	r3, #23
 8005820:	18fb      	adds	r3, r7, r3
 8005822:	2200      	movs	r2, #0
 8005824:	701a      	strb	r2, [r3, #0]
 8005826:	f7fd fa21 	bl	8002c6c <HAL_GetTick>
 800582a:	0002      	movs	r2, r0
 800582c:	6b3b      	ldr	r3, [r7, #48]	@ 0x30
 800582e:	1a9b      	subs	r3, r3, r2
 8005830:	683a      	ldr	r2, [r7, #0]
 8005832:	18d3      	adds	r3, r2, r3
 8005834:	627b      	str	r3, [r7, #36]	@ 0x24
 8005836:	f7fd fa19 	bl	8002c6c <HAL_GetTick>
 800583a:	0003      	movs	r3, r0
 800583c:	623b      	str	r3, [r7, #32]
 800583e:	68fb      	ldr	r3, [r7, #12]
 8005840:	681b      	ldr	r3, [r3, #0]
 8005842:	330c      	adds	r3, #12
 8005844:	61fb      	str	r3, [r7, #28]
 8005846:	4b41      	ldr	r3, [pc, #260]	@ (800594c <SPI_WaitFifoStateUntilTimeout+0x13c>)
 8005848:	681a      	ldr	r2, [r3, #0]
 800584a:	0013      	movs	r3, r2
 800584c:	009b      	lsls	r3, r3, #2
 800584e:	189b      	adds	r3, r3, r2
 8005850:	00da      	lsls	r2, r3, #3
 8005852:	1ad3      	subs	r3, r2, r3
 8005854:	0d1b      	lsrs	r3, r3, #20
 8005856:	6a7a      	ldr	r2, [r7, #36]	@ 0x24
 8005858:	4353      	muls	r3, r2
 800585a:	61bb      	str	r3, [r7, #24]
 800585c:	e068      	b.n	8005930 <SPI_WaitFifoStateUntilTimeout+0x120>
 800585e:	68ba      	ldr	r2, [r7, #8]
 8005860:	23c0      	movs	r3, #192	@ 0xc0
 8005862:	00db      	lsls	r3, r3, #3
 8005864:	429a      	cmp	r2, r3
 8005866:	d10a      	bne.n	800587e <SPI_WaitFifoStateUntilTimeout+0x6e>
 8005868:	687b      	ldr	r3, [r7, #4]
 800586a:	2b00      	cmp	r3, #0
 800586c:	d107      	bne.n	800587e <SPI_WaitFifoStateUntilTimeout+0x6e>
 800586e:	69fb      	ldr	r3, [r7, #28]
 8005870:	781b      	ldrb	r3, [r3, #0]
 8005872:	b2da      	uxtb	r2, r3
 8005874:	2117      	movs	r1, #23
 8005876:	187b      	adds	r3, r7, r1
 8005878:	701a      	strb	r2, [r3, #0]
 800587a:	187b      	adds	r3, r7, r1
 800587c:	781b      	ldrb	r3, [r3, #0]
 800587e:	683b      	ldr	r3, [r7, #0]
 8005880:	3301      	adds	r3, #1
 8005882:	d055      	beq.n	8005930 <SPI_WaitFifoStateUntilTimeout+0x120>
 8005884:	f7fd f9f2 	bl	8002c6c <HAL_GetTick>
 8005888:	0002      	movs	r2, r0
 800588a:	6a3b      	ldr	r3, [r7, #32]
 800588c:	1ad3      	subs	r3, r2, r3
 800588e:	6a7a      	ldr	r2, [r7, #36]	@ 0x24
 8005890:	429a      	cmp	r2, r3
 8005892:	d902      	bls.n	800589a <SPI_WaitFifoStateUntilTimeout+0x8a>
 8005894:	6a7b      	ldr	r3, [r7, #36]	@ 0x24
 8005896:	2b00      	cmp	r3, #0
 8005898:	d142      	bne.n	8005920 <SPI_WaitFifoStateUntilTimeout+0x110>
 800589a:	68fb      	ldr	r3, [r7, #12]
 800589c:	681b      	ldr	r3, [r3, #0]
 800589e:	685a      	ldr	r2, [r3, #4]
 80058a0:	68fb      	ldr	r3, [r7, #12]
 80058a2:	681b      	ldr	r3, [r3, #0]
 80058a4:	21e0      	movs	r1, #224	@ 0xe0
 80058a6:	438a      	bics	r2, r1
 80058a8:	605a      	str	r2, [r3, #4]
 80058aa:	68fb      	ldr	r3, [r7, #12]
 80058ac:	685a      	ldr	r2, [r3, #4]
 80058ae:	2382      	movs	r3, #130	@ 0x82
 80058b0:	005b      	lsls	r3, r3, #1
 80058b2:	429a      	cmp	r2, r3
 80058b4:	d113      	bne.n	80058de <SPI_WaitFifoStateUntilTimeout+0xce>
 80058b6:	68fb      	ldr	r3, [r7, #12]
 80058b8:	689a      	ldr	r2, [r3, #8]
 80058ba:	2380      	movs	r3, #128	@ 0x80
 80058bc:	021b      	lsls	r3, r3, #8
 80058be:	429a      	cmp	r2, r3
 80058c0:	d005      	beq.n	80058ce <SPI_WaitFifoStateUntilTimeout+0xbe>
 80058c2:	68fb      	ldr	r3, [r7, #12]
 80058c4:	689a      	ldr	r2, [r3, #8]
 80058c6:	2380      	movs	r3, #128	@ 0x80
 80058c8:	00db      	lsls	r3, r3, #3
 80058ca:	429a      	cmp	r2, r3
 80058cc:	d107      	bne.n	80058de <SPI_WaitFifoStateUntilTimeout+0xce>
 80058ce:	68fb      	ldr	r3, [r7, #12]
 80058d0:	681b      	ldr	r3, [r3, #0]
 80058d2:	681a      	ldr	r2, [r3, #0]
 80058d4:	68fb      	ldr	r3, [r7, #12]
 80058d6:	681b      	ldr	r3, [r3, #0]
 80058d8:	2140      	movs	r1, #64	@ 0x40
 80058da:	438a      	bics	r2, r1
 80058dc:	601a      	str	r2, [r3, #0]
 80058de:	68fb      	ldr	r3, [r7, #12]
 80058e0:	6a9a      	ldr	r2, [r3, #40]	@ 0x28
 80058e2:	2380      	movs	r3, #128	@ 0x80
 80058e4:	019b      	lsls	r3, r3, #6
 80058e6:	429a      	cmp	r2, r3
 80058e8:	d110      	bne.n	800590c <SPI_WaitFifoStateUntilTimeout+0xfc>
 80058ea:	68fb      	ldr	r3, [r7, #12]
 80058ec:	681b      	ldr	r3, [r3, #0]
 80058ee:	681a      	ldr	r2, [r3, #0]
 80058f0:	68fb      	ldr	r3, [r7, #12]
 80058f2:	681b      	ldr	r3, [r3, #0]
 80058f4:	4916      	ldr	r1, [pc, #88]	@ (8005950 <SPI_WaitFifoStateUntilTimeout+0x140>)
 80058f6:	400a      	ands	r2, r1
 80058f8:	601a      	str	r2, [r3, #0]
 80058fa:	68fb      	ldr	r3, [r7, #12]
 80058fc:	681b      	ldr	r3, [r3, #0]
 80058fe:	681a      	ldr	r2, [r3, #0]
 8005900:	68fb      	ldr	r3, [r7, #12]
 8005902:	681b      	ldr	r3, [r3, #0]
 8005904:	2180      	movs	r1, #128	@ 0x80
 8005906:	0189      	lsls	r1, r1, #6
 8005908:	430a      	orrs	r2, r1
 800590a:	601a      	str	r2, [r3, #0]
 800590c:	68fb      	ldr	r3, [r7, #12]
 800590e:	225d      	movs	r2, #93	@ 0x5d
 8005910:	2101      	movs	r1, #1
 8005912:	5499      	strb	r1, [r3, r2]
 8005914:	68fb      	ldr	r3, [r7, #12]
 8005916:	225c      	movs	r2, #92	@ 0x5c
 8005918:	2100      	movs	r1, #0
 800591a:	5499      	strb	r1, [r3, r2]
 800591c:	2303      	movs	r3, #3
 800591e:	e010      	b.n	8005942 <SPI_WaitFifoStateUntilTimeout+0x132>
 8005920:	69bb      	ldr	r3, [r7, #24]
 8005922:	2b00      	cmp	r3, #0
 8005924:	d101      	bne.n	800592a <SPI_WaitFifoStateUntilTimeout+0x11a>
 8005926:	2300      	movs	r3, #0
 8005928:	627b      	str	r3, [r7, #36]	@ 0x24
 800592a:	69bb      	ldr	r3, [r7, #24]
 800592c:	3b01      	subs	r3, #1
 800592e:	61bb      	str	r3, [r7, #24]
 8005930:	68fb      	ldr	r3, [r7, #12]
 8005932:	681b      	ldr	r3, [r3, #0]
 8005934:	689b      	ldr	r3, [r3, #8]
 8005936:	68ba      	ldr	r2, [r7, #8]
 8005938:	4013      	ands	r3, r2
 800593a:	687a      	ldr	r2, [r7, #4]
 800593c:	429a      	cmp	r2, r3
 800593e:	d18e      	bne.n	800585e <SPI_WaitFifoStateUntilTimeout+0x4e>
 8005940:	2300      	movs	r3, #0
 8005942:	0018      	movs	r0, r3
 8005944:	46bd      	mov	sp, r7
 8005946:	b00a      	add	sp, #40	@ 0x28
 8005948:	bd80      	pop	{r7, pc}
 800594a:	46c0      	nop			@ (mov r8, r8)
 800594c:	200009e4 	.word	0x200009e4
 8005950:	ffffdfff 	.word	0xffffdfff

08005954 <SPI_EndRxTxTransaction>:
 8005954:	b580      	push	{r7, lr}
 8005956:	b086      	sub	sp, #24
 8005958:	af02      	add	r7, sp, #8
 800595a:	60f8      	str	r0, [r7, #12]
 800595c:	60b9      	str	r1, [r7, #8]
 800595e:	607a      	str	r2, [r7, #4]
 8005960:	68ba      	ldr	r2, [r7, #8]
 8005962:	23c0      	movs	r3, #192	@ 0xc0
 8005964:	0159      	lsls	r1, r3, #5
 8005966:	68f8      	ldr	r0, [r7, #12]
 8005968:	687b      	ldr	r3, [r7, #4]
 800596a:	9300      	str	r3, [sp, #0]
 800596c:	0013      	movs	r3, r2
 800596e:	2200      	movs	r2, #0
 8005970:	f7ff ff4e 	bl	8005810 <SPI_WaitFifoStateUntilTimeout>
 8005974:	1e03      	subs	r3, r0, #0
 8005976:	d007      	beq.n	8005988 <SPI_EndRxTxTransaction+0x34>
 8005978:	68fb      	ldr	r3, [r7, #12]
 800597a:	6e1b      	ldr	r3, [r3, #96]	@ 0x60
 800597c:	2220      	movs	r2, #32
 800597e:	431a      	orrs	r2, r3
 8005980:	68fb      	ldr	r3, [r7, #12]
 8005982:	661a      	str	r2, [r3, #96]	@ 0x60
 8005984:	2303      	movs	r3, #3
 8005986:	e027      	b.n	80059d8 <SPI_EndRxTxTransaction+0x84>
 8005988:	68ba      	ldr	r2, [r7, #8]
 800598a:	68f8      	ldr	r0, [r7, #12]
 800598c:	687b      	ldr	r3, [r7, #4]
 800598e:	9300      	str	r3, [sp, #0]
 8005990:	0013      	movs	r3, r2
 8005992:	2200      	movs	r2, #0
 8005994:	2180      	movs	r1, #128	@ 0x80
 8005996:	f7ff fead 	bl	80056f4 <SPI_WaitFlagStateUntilTimeout>
 800599a:	1e03      	subs	r3, r0, #0
 800599c:	d007      	beq.n	80059ae <SPI_EndRxTxTransaction+0x5a>
 800599e:	68fb      	ldr	r3, [r7, #12]
 80059a0:	6e1b      	ldr	r3, [r3, #96]	@ 0x60
 80059a2:	2220      	movs	r2, #32
 80059a4:	431a      	orrs	r2, r3
 80059a6:	68fb      	ldr	r3, [r7, #12]
 80059a8:	661a      	str	r2, [r3, #96]	@ 0x60
 80059aa:	2303      	movs	r3, #3
 80059ac:	e014      	b.n	80059d8 <SPI_EndRxTxTransaction+0x84>
 80059ae:	68ba      	ldr	r2, [r7, #8]
 80059b0:	23c0      	movs	r3, #192	@ 0xc0
 80059b2:	00d9      	lsls	r1, r3, #3
 80059b4:	68f8      	ldr	r0, [r7, #12]
 80059b6:	687b      	ldr	r3, [r7, #4]
 80059b8:	9300      	str	r3, [sp, #0]
 80059ba:	0013      	movs	r3, r2
 80059bc:	2200      	movs	r2, #0
 80059be:	f7ff ff27 	bl	8005810 <SPI_WaitFifoStateUntilTimeout>
 80059c2:	1e03      	subs	r3, r0, #0
 80059c4:	d007      	beq.n	80059d6 <SPI_EndRxTxTransaction+0x82>
 80059c6:	68fb      	ldr	r3, [r7, #12]
 80059c8:	6e1b      	ldr	r3, [r3, #96]	@ 0x60
 80059ca:	2220      	movs	r2, #32
 80059cc:	431a      	orrs	r2, r3
 80059ce:	68fb      	ldr	r3, [r7, #12]
 80059d0:	661a      	str	r2, [r3, #96]	@ 0x60
 80059d2:	2303      	movs	r3, #3
 80059d4:	e000      	b.n	80059d8 <SPI_EndRxTxTransaction+0x84>
 80059d6:	2300      	movs	r3, #0
 80059d8:	0018      	movs	r0, r3
 80059da:	46bd      	mov	sp, r7
 80059dc:	b004      	add	sp, #16
 80059de:	bd80      	pop	{r7, pc}

080059e0 <HAL_TIM_Base_Init>:
 80059e0:	b580      	push	{r7, lr}
 80059e2:	b082      	sub	sp, #8
 80059e4:	af00      	add	r7, sp, #0
 80059e6:	6078      	str	r0, [r7, #4]
 80059e8:	687b      	ldr	r3, [r7, #4]
 80059ea:	2b00      	cmp	r3, #0
 80059ec:	d101      	bne.n	80059f2 <HAL_TIM_Base_Init+0x12>
 80059ee:	2301      	movs	r3, #1
 80059f0:	e04a      	b.n	8005a88 <HAL_TIM_Base_Init+0xa8>
 80059f2:	687b      	ldr	r3, [r7, #4]
 80059f4:	223d      	movs	r2, #61	@ 0x3d
 80059f6:	5c9b      	ldrb	r3, [r3, r2]
 80059f8:	b2db      	uxtb	r3, r3
 80059fa:	2b00      	cmp	r3, #0
 80059fc:	d107      	bne.n	8005a0e <HAL_TIM_Base_Init+0x2e>
 80059fe:	687b      	ldr	r3, [r7, #4]
 8005a00:	223c      	movs	r2, #60	@ 0x3c
 8005a02:	2100      	movs	r1, #0
 8005a04:	5499      	strb	r1, [r3, r2]
 8005a06:	687b      	ldr	r3, [r7, #4]
 8005a08:	0018      	movs	r0, r3
 8005a0a:	f7fc ff1d 	bl	8002848 <HAL_TIM_Base_MspInit>
 8005a0e:	687b      	ldr	r3, [r7, #4]
 8005a10:	223d      	movs	r2, #61	@ 0x3d
 8005a12:	2102      	movs	r1, #2
 8005a14:	5499      	strb	r1, [r3, r2]
 8005a16:	687b      	ldr	r3, [r7, #4]
 8005a18:	681a      	ldr	r2, [r3, #0]
 8005a1a:	687b      	ldr	r3, [r7, #4]
 8005a1c:	3304      	adds	r3, #4
 8005a1e:	0019      	movs	r1, r3
 8005a20:	0010      	movs	r0, r2
 8005a22:	f000 fb11 	bl	8006048 <TIM_Base_SetConfig>
 8005a26:	687b      	ldr	r3, [r7, #4]
 8005a28:	2248      	movs	r2, #72	@ 0x48
 8005a2a:	2101      	movs	r1, #1
 8005a2c:	5499      	strb	r1, [r3, r2]
 8005a2e:	687b      	ldr	r3, [r7, #4]
 8005a30:	223e      	movs	r2, #62	@ 0x3e
 8005a32:	2101      	movs	r1, #1
 8005a34:	5499      	strb	r1, [r3, r2]
 8005a36:	687b      	ldr	r3, [r7, #4]
 8005a38:	223f      	movs	r2, #63	@ 0x3f
 8005a3a:	2101      	movs	r1, #1
 8005a3c:	5499      	strb	r1, [r3, r2]
 8005a3e:	687b      	ldr	r3, [r7, #4]
 8005a40:	2240      	movs	r2, #64	@ 0x40
 8005a42:	2101      	movs	r1, #1
 8005a44:	5499      	strb	r1, [r3, r2]
 8005a46:	687b      	ldr	r3, [r7, #4]
 8005a48:	2241      	movs	r2, #65	@ 0x41
 8005a4a:	2101      	movs	r1, #1
 8005a4c:	5499      	strb	r1, [r3, r2]
 8005a4e:	687b      	ldr	r3, [r7, #4]
 8005a50:	2242      	movs	r2, #66	@ 0x42
 8005a52:	2101      	movs	r1, #1
 8005a54:	5499      	strb	r1, [r3, r2]
 8005a56:	687b      	ldr	r3, [r7, #4]
 8005a58:	2243      	movs	r2, #67	@ 0x43
 8005a5a:	2101      	movs	r1, #1
 8005a5c:	5499      	strb	r1, [r3, r2]
 8005a5e:	687b      	ldr	r3, [r7, #4]
 8005a60:	2244      	movs	r2, #68	@ 0x44
 8005a62:	2101      	movs	r1, #1
 8005a64:	5499      	strb	r1, [r3, r2]
 8005a66:	687b      	ldr	r3, [r7, #4]
 8005a68:	2245      	movs	r2, #69	@ 0x45
 8005a6a:	2101      	movs	r1, #1
 8005a6c:	5499      	strb	r1, [r3, r2]
 8005a6e:	687b      	ldr	r3, [r7, #4]
 8005a70:	2246      	movs	r2, #70	@ 0x46
 8005a72:	2101      	movs	r1, #1
 8005a74:	5499      	strb	r1, [r3, r2]
 8005a76:	687b      	ldr	r3, [r7, #4]
 8005a78:	2247      	movs	r2, #71	@ 0x47
 8005a7a:	2101      	movs	r1, #1
 8005a7c:	5499      	strb	r1, [r3, r2]
 8005a7e:	687b      	ldr	r3, [r7, #4]
 8005a80:	223d      	movs	r2, #61	@ 0x3d
 8005a82:	2101      	movs	r1, #1
 8005a84:	5499      	strb	r1, [r3, r2]
 8005a86:	2300      	movs	r3, #0
 8005a88:	0018      	movs	r0, r3
 8005a8a:	46bd      	mov	sp, r7
 8005a8c:	b002      	add	sp, #8
 8005a8e:	bd80      	pop	{r7, pc}

08005a90 <HAL_TIM_PWM_Init>:
 8005a90:	b580      	push	{r7, lr}
 8005a92:	b082      	sub	sp, #8
 8005a94:	af00      	add	r7, sp, #0
 8005a96:	6078      	str	r0, [r7, #4]
 8005a98:	687b      	ldr	r3, [r7, #4]
 8005a9a:	2b00      	cmp	r3, #0
 8005a9c:	d101      	bne.n	8005aa2 <HAL_TIM_PWM_Init+0x12>
 8005a9e:	2301      	movs	r3, #1
 8005aa0:	e04a      	b.n	8005b38 <HAL_TIM_PWM_Init+0xa8>
 8005aa2:	687b      	ldr	r3, [r7, #4]
 8005aa4:	223d      	movs	r2, #61	@ 0x3d
 8005aa6:	5c9b      	ldrb	r3, [r3, r2]
 8005aa8:	b2db      	uxtb	r3, r3
 8005aaa:	2b00      	cmp	r3, #0
 8005aac:	d107      	bne.n	8005abe <HAL_TIM_PWM_Init+0x2e>
 8005aae:	687b      	ldr	r3, [r7, #4]
 8005ab0:	223c      	movs	r2, #60	@ 0x3c
 8005ab2:	2100      	movs	r1, #0
 8005ab4:	5499      	strb	r1, [r3, r2]
 8005ab6:	687b      	ldr	r3, [r7, #4]
 8005ab8:	0018      	movs	r0, r3
 8005aba:	f000 f841 	bl	8005b40 <HAL_TIM_PWM_MspInit>
 8005abe:	687b      	ldr	r3, [r7, #4]
 8005ac0:	223d      	movs	r2, #61	@ 0x3d
 8005ac2:	2102      	movs	r1, #2
 8005ac4:	5499      	strb	r1, [r3, r2]
 8005ac6:	687b      	ldr	r3, [r7, #4]
 8005ac8:	681a      	ldr	r2, [r3, #0]
 8005aca:	687b      	ldr	r3, [r7, #4]
 8005acc:	3304      	adds	r3, #4
 8005ace:	0019      	movs	r1, r3
 8005ad0:	0010      	movs	r0, r2
 8005ad2:	f000 fab9 	bl	8006048 <TIM_Base_SetConfig>
 8005ad6:	687b      	ldr	r3, [r7, #4]
 8005ad8:	2248      	movs	r2, #72	@ 0x48
 8005ada:	2101      	movs	r1, #1
 8005adc:	5499      	strb	r1, [r3, r2]
 8005ade:	687b      	ldr	r3, [r7, #4]
 8005ae0:	223e      	movs	r2, #62	@ 0x3e
 8005ae2:	2101      	movs	r1, #1
 8005ae4:	5499      	strb	r1, [r3, r2]
 8005ae6:	687b      	ldr	r3, [r7, #4]
 8005ae8:	223f      	movs	r2, #63	@ 0x3f
 8005aea:	2101      	movs	r1, #1
 8005aec:	5499      	strb	r1, [r3, r2]
 8005aee:	687b      	ldr	r3, [r7, #4]
 8005af0:	2240      	movs	r2, #64	@ 0x40
 8005af2:	2101      	movs	r1, #1
 8005af4:	5499      	strb	r1, [r3, r2]
 8005af6:	687b      	ldr	r3, [r7, #4]
 8005af8:	2241      	movs	r2, #65	@ 0x41
 8005afa:	2101      	movs	r1, #1
 8005afc:	5499      	strb	r1, [r3, r2]
 8005afe:	687b      	ldr	r3, [r7, #4]
 8005b00:	2242      	movs	r2, #66	@ 0x42
 8005b02:	2101      	movs	r1, #1
 8005b04:	5499      	strb	r1, [r3, r2]
 8005b06:	687b      	ldr	r3, [r7, #4]
 8005b08:	2243      	movs	r2, #67	@ 0x43
 8005b0a:	2101      	movs	r1, #1
 8005b0c:	5499      	strb	r1, [r3, r2]
 8005b0e:	687b      	ldr	r3, [r7, #4]
 8005b10:	2244      	movs	r2, #68	@ 0x44
 8005b12:	2101      	movs	r1, #1
 8005b14:	5499      	strb	r1, [r3, r2]
 8005b16:	687b      	ldr	r3, [r7, #4]
 8005b18:	2245      	movs	r2, #69	@ 0x45
 8005b1a:	2101      	movs	r1, #1
 8005b1c:	5499      	strb	r1, [r3, r2]
 8005b1e:	687b      	ldr	r3, [r7, #4]
 8005b20:	2246      	movs	r2, #70	@ 0x46
 8005b22:	2101      	movs	r1, #1
 8005b24:	5499      	strb	r1, [r3, r2]
 8005b26:	687b      	ldr	r3, [r7, #4]
 8005b28:	2247      	movs	r2, #71	@ 0x47
 8005b2a:	2101      	movs	r1, #1
 8005b2c:	5499      	strb	r1, [r3, r2]
 8005b2e:	687b      	ldr	r3, [r7, #4]
 8005b30:	223d      	movs	r2, #61	@ 0x3d
 8005b32:	2101      	movs	r1, #1
 8005b34:	5499      	strb	r1, [r3, r2]
 8005b36:	2300      	movs	r3, #0
 8005b38:	0018      	movs	r0, r3
 8005b3a:	46bd      	mov	sp, r7
 8005b3c:	b002      	add	sp, #8
 8005b3e:	bd80      	pop	{r7, pc}

08005b40 <HAL_TIM_PWM_MspInit>:
 8005b40:	b580      	push	{r7, lr}
 8005b42:	b082      	sub	sp, #8
 8005b44:	af00      	add	r7, sp, #0
 8005b46:	6078      	str	r0, [r7, #4]
 8005b48:	46c0      	nop			@ (mov r8, r8)
 8005b4a:	46bd      	mov	sp, r7
 8005b4c:	b002      	add	sp, #8
 8005b4e:	bd80      	pop	{r7, pc}

08005b50 <HAL_TIM_PWM_Start>:
 8005b50:	b580      	push	{r7, lr}
 8005b52:	b084      	sub	sp, #16
 8005b54:	af00      	add	r7, sp, #0
 8005b56:	6078      	str	r0, [r7, #4]
 8005b58:	6039      	str	r1, [r7, #0]
 8005b5a:	683b      	ldr	r3, [r7, #0]
 8005b5c:	2b00      	cmp	r3, #0
 8005b5e:	d108      	bne.n	8005b72 <HAL_TIM_PWM_Start+0x22>
 8005b60:	687b      	ldr	r3, [r7, #4]
 8005b62:	223e      	movs	r2, #62	@ 0x3e
 8005b64:	5c9b      	ldrb	r3, [r3, r2]
 8005b66:	b2db      	uxtb	r3, r3
 8005b68:	3b01      	subs	r3, #1
 8005b6a:	1e5a      	subs	r2, r3, #1
 8005b6c:	4193      	sbcs	r3, r2
 8005b6e:	b2db      	uxtb	r3, r3
 8005b70:	e037      	b.n	8005be2 <HAL_TIM_PWM_Start+0x92>
 8005b72:	683b      	ldr	r3, [r7, #0]
 8005b74:	2b04      	cmp	r3, #4
 8005b76:	d108      	bne.n	8005b8a <HAL_TIM_PWM_Start+0x3a>
 8005b78:	687b      	ldr	r3, [r7, #4]
 8005b7a:	223f      	movs	r2, #63	@ 0x3f
 8005b7c:	5c9b      	ldrb	r3, [r3, r2]
 8005b7e:	b2db      	uxtb	r3, r3
 8005b80:	3b01      	subs	r3, #1
 8005b82:	1e5a      	subs	r2, r3, #1
 8005b84:	4193      	sbcs	r3, r2
 8005b86:	b2db      	uxtb	r3, r3
 8005b88:	e02b      	b.n	8005be2 <HAL_TIM_PWM_Start+0x92>
 8005b8a:	683b      	ldr	r3, [r7, #0]
 8005b8c:	2b08      	cmp	r3, #8
 8005b8e:	d108      	bne.n	8005ba2 <HAL_TIM_PWM_Start+0x52>
 8005b90:	687b      	ldr	r3, [r7, #4]
 8005b92:	2240      	movs	r2, #64	@ 0x40
 8005b94:	5c9b      	ldrb	r3, [r3, r2]
 8005b96:	b2db      	uxtb	r3, r3
 8005b98:	3b01      	subs	r3, #1
 8005b9a:	1e5a      	subs	r2, r3, #1
 8005b9c:	4193      	sbcs	r3, r2
 8005b9e:	b2db      	uxtb	r3, r3
 8005ba0:	e01f      	b.n	8005be2 <HAL_TIM_PWM_Start+0x92>
 8005ba2:	683b      	ldr	r3, [r7, #0]
 8005ba4:	2b0c      	cmp	r3, #12
 8005ba6:	d108      	bne.n	8005bba <HAL_TIM_PWM_Start+0x6a>
 8005ba8:	687b      	ldr	r3, [r7, #4]
 8005baa:	2241      	movs	r2, #65	@ 0x41
 8005bac:	5c9b      	ldrb	r3, [r3, r2]
 8005bae:	b2db      	uxtb	r3, r3
 8005bb0:	3b01      	subs	r3, #1
 8005bb2:	1e5a      	subs	r2, r3, #1
 8005bb4:	4193      	sbcs	r3, r2
 8005bb6:	b2db      	uxtb	r3, r3
 8005bb8:	e013      	b.n	8005be2 <HAL_TIM_PWM_Start+0x92>
 8005bba:	683b      	ldr	r3, [r7, #0]
 8005bbc:	2b10      	cmp	r3, #16
 8005bbe:	d108      	bne.n	8005bd2 <HAL_TIM_PWM_Start+0x82>
 8005bc0:	687b      	ldr	r3, [r7, #4]
 8005bc2:	2242      	movs	r2, #66	@ 0x42
 8005bc4:	5c9b      	ldrb	r3, [r3, r2]
 8005bc6:	b2db      	uxtb	r3, r3
 8005bc8:	3b01      	subs	r3, #1
 8005bca:	1e5a      	subs	r2, r3, #1
 8005bcc:	4193      	sbcs	r3, r2
 8005bce:	b2db      	uxtb	r3, r3
 8005bd0:	e007      	b.n	8005be2 <HAL_TIM_PWM_Start+0x92>
 8005bd2:	687b      	ldr	r3, [r7, #4]
 8005bd4:	2243      	movs	r2, #67	@ 0x43
 8005bd6:	5c9b      	ldrb	r3, [r3, r2]
 8005bd8:	b2db      	uxtb	r3, r3
 8005bda:	3b01      	subs	r3, #1
 8005bdc:	1e5a      	subs	r2, r3, #1
 8005bde:	4193      	sbcs	r3, r2
 8005be0:	b2db      	uxtb	r3, r3
 8005be2:	2b00      	cmp	r3, #0
 8005be4:	d001      	beq.n	8005bea <HAL_TIM_PWM_Start+0x9a>
 8005be6:	2301      	movs	r3, #1
 8005be8:	e090      	b.n	8005d0c <HAL_TIM_PWM_Start+0x1bc>
 8005bea:	683b      	ldr	r3, [r7, #0]
 8005bec:	2b00      	cmp	r3, #0
 8005bee:	d104      	bne.n	8005bfa <HAL_TIM_PWM_Start+0xaa>
 8005bf0:	687b      	ldr	r3, [r7, #4]
 8005bf2:	223e      	movs	r2, #62	@ 0x3e
 8005bf4:	2102      	movs	r1, #2
 8005bf6:	5499      	strb	r1, [r3, r2]
 8005bf8:	e023      	b.n	8005c42 <HAL_TIM_PWM_Start+0xf2>
 8005bfa:	683b      	ldr	r3, [r7, #0]
 8005bfc:	2b04      	cmp	r3, #4
 8005bfe:	d104      	bne.n	8005c0a <HAL_TIM_PWM_Start+0xba>
 8005c00:	687b      	ldr	r3, [r7, #4]
 8005c02:	223f      	movs	r2, #63	@ 0x3f
 8005c04:	2102      	movs	r1, #2
 8005c06:	5499      	strb	r1, [r3, r2]
 8005c08:	e01b      	b.n	8005c42 <HAL_TIM_PWM_Start+0xf2>
 8005c0a:	683b      	ldr	r3, [r7, #0]
 8005c0c:	2b08      	cmp	r3, #8
 8005c0e:	d104      	bne.n	8005c1a <HAL_TIM_PWM_Start+0xca>
 8005c10:	687b      	ldr	r3, [r7, #4]
 8005c12:	2240      	movs	r2, #64	@ 0x40
 8005c14:	2102      	movs	r1, #2
 8005c16:	5499      	strb	r1, [r3, r2]
 8005c18:	e013      	b.n	8005c42 <HAL_TIM_PWM_Start+0xf2>
 8005c1a:	683b      	ldr	r3, [r7, #0]
 8005c1c:	2b0c      	cmp	r3, #12
 8005c1e:	d104      	bne.n	8005c2a <HAL_TIM_PWM_Start+0xda>
 8005c20:	687b      	ldr	r3, [r7, #4]
 8005c22:	2241      	movs	r2, #65	@ 0x41
 8005c24:	2102      	movs	r1, #2
 8005c26:	5499      	strb	r1, [r3, r2]
 8005c28:	e00b      	b.n	8005c42 <HAL_TIM_PWM_Start+0xf2>
 8005c2a:	683b      	ldr	r3, [r7, #0]
 8005c2c:	2b10      	cmp	r3, #16
 8005c2e:	d104      	bne.n	8005c3a <HAL_TIM_PWM_Start+0xea>
 8005c30:	687b      	ldr	r3, [r7, #4]
 8005c32:	2242      	movs	r2, #66	@ 0x42
 8005c34:	2102      	movs	r1, #2
 8005c36:	5499      	strb	r1, [r3, r2]
 8005c38:	e003      	b.n	8005c42 <HAL_TIM_PWM_Start+0xf2>
 8005c3a:	687b      	ldr	r3, [r7, #4]
 8005c3c:	2243      	movs	r2, #67	@ 0x43
 8005c3e:	2102      	movs	r1, #2
 8005c40:	5499      	strb	r1, [r3, r2]
 8005c42:	687b      	ldr	r3, [r7, #4]
 8005c44:	681b      	ldr	r3, [r3, #0]
 8005c46:	6839      	ldr	r1, [r7, #0]
 8005c48:	2201      	movs	r2, #1
 8005c4a:	0018      	movs	r0, r3
 8005c4c:	f000 fd58 	bl	8006700 <TIM_CCxChannelCmd>
 8005c50:	687b      	ldr	r3, [r7, #4]
 8005c52:	681b      	ldr	r3, [r3, #0]
 8005c54:	4a2f      	ldr	r2, [pc, #188]	@ (8005d14 <HAL_TIM_PWM_Start+0x1c4>)
 8005c56:	4293      	cmp	r3, r2
 8005c58:	d00e      	beq.n	8005c78 <HAL_TIM_PWM_Start+0x128>
 8005c5a:	687b      	ldr	r3, [r7, #4]
 8005c5c:	681b      	ldr	r3, [r3, #0]
 8005c5e:	4a2e      	ldr	r2, [pc, #184]	@ (8005d18 <HAL_TIM_PWM_Start+0x1c8>)
 8005c60:	4293      	cmp	r3, r2
 8005c62:	d009      	beq.n	8005c78 <HAL_TIM_PWM_Start+0x128>
 8005c64:	687b      	ldr	r3, [r7, #4]
 8005c66:	681b      	ldr	r3, [r3, #0]
 8005c68:	4a2c      	ldr	r2, [pc, #176]	@ (8005d1c <HAL_TIM_PWM_Start+0x1cc>)
 8005c6a:	4293      	cmp	r3, r2
 8005c6c:	d004      	beq.n	8005c78 <HAL_TIM_PWM_Start+0x128>
 8005c6e:	687b      	ldr	r3, [r7, #4]
 8005c70:	681b      	ldr	r3, [r3, #0]
 8005c72:	4a2b      	ldr	r2, [pc, #172]	@ (8005d20 <HAL_TIM_PWM_Start+0x1d0>)
 8005c74:	4293      	cmp	r3, r2
 8005c76:	d101      	bne.n	8005c7c <HAL_TIM_PWM_Start+0x12c>
 8005c78:	2301      	movs	r3, #1
 8005c7a:	e000      	b.n	8005c7e <HAL_TIM_PWM_Start+0x12e>
 8005c7c:	2300      	movs	r3, #0
 8005c7e:	2b00      	cmp	r3, #0
 8005c80:	d008      	beq.n	8005c94 <HAL_TIM_PWM_Start+0x144>
 8005c82:	687b      	ldr	r3, [r7, #4]
 8005c84:	681b      	ldr	r3, [r3, #0]
 8005c86:	6c5a      	ldr	r2, [r3, #68]	@ 0x44
 8005c88:	687b      	ldr	r3, [r7, #4]
 8005c8a:	681b      	ldr	r3, [r3, #0]
 8005c8c:	2180      	movs	r1, #128	@ 0x80
 8005c8e:	0209      	lsls	r1, r1, #8
 8005c90:	430a      	orrs	r2, r1
 8005c92:	645a      	str	r2, [r3, #68]	@ 0x44
 8005c94:	687b      	ldr	r3, [r7, #4]
 8005c96:	681b      	ldr	r3, [r3, #0]
 8005c98:	4a1e      	ldr	r2, [pc, #120]	@ (8005d14 <HAL_TIM_PWM_Start+0x1c4>)
 8005c9a:	4293      	cmp	r3, r2
 8005c9c:	d014      	beq.n	8005cc8 <HAL_TIM_PWM_Start+0x178>
 8005c9e:	687b      	ldr	r3, [r7, #4]
 8005ca0:	681a      	ldr	r2, [r3, #0]
 8005ca2:	2380      	movs	r3, #128	@ 0x80
 8005ca4:	05db      	lsls	r3, r3, #23
 8005ca6:	429a      	cmp	r2, r3
 8005ca8:	d00e      	beq.n	8005cc8 <HAL_TIM_PWM_Start+0x178>
 8005caa:	687b      	ldr	r3, [r7, #4]
 8005cac:	681b      	ldr	r3, [r3, #0]
 8005cae:	4a1d      	ldr	r2, [pc, #116]	@ (8005d24 <HAL_TIM_PWM_Start+0x1d4>)
 8005cb0:	4293      	cmp	r3, r2
 8005cb2:	d009      	beq.n	8005cc8 <HAL_TIM_PWM_Start+0x178>
 8005cb4:	687b      	ldr	r3, [r7, #4]
 8005cb6:	681b      	ldr	r3, [r3, #0]
 8005cb8:	4a1b      	ldr	r2, [pc, #108]	@ (8005d28 <HAL_TIM_PWM_Start+0x1d8>)
 8005cba:	4293      	cmp	r3, r2
 8005cbc:	d004      	beq.n	8005cc8 <HAL_TIM_PWM_Start+0x178>
 8005cbe:	687b      	ldr	r3, [r7, #4]
 8005cc0:	681b      	ldr	r3, [r3, #0]
 8005cc2:	4a15      	ldr	r2, [pc, #84]	@ (8005d18 <HAL_TIM_PWM_Start+0x1c8>)
 8005cc4:	4293      	cmp	r3, r2
 8005cc6:	d116      	bne.n	8005cf6 <HAL_TIM_PWM_Start+0x1a6>
 8005cc8:	687b      	ldr	r3, [r7, #4]
 8005cca:	681b      	ldr	r3, [r3, #0]
 8005ccc:	689b      	ldr	r3, [r3, #8]
 8005cce:	4a17      	ldr	r2, [pc, #92]	@ (8005d2c <HAL_TIM_PWM_Start+0x1dc>)
 8005cd0:	4013      	ands	r3, r2
 8005cd2:	60fb      	str	r3, [r7, #12]
 8005cd4:	68fb      	ldr	r3, [r7, #12]
 8005cd6:	2b06      	cmp	r3, #6
 8005cd8:	d016      	beq.n	8005d08 <HAL_TIM_PWM_Start+0x1b8>
 8005cda:	68fa      	ldr	r2, [r7, #12]
 8005cdc:	2380      	movs	r3, #128	@ 0x80
 8005cde:	025b      	lsls	r3, r3, #9
 8005ce0:	429a      	cmp	r2, r3
 8005ce2:	d011      	beq.n	8005d08 <HAL_TIM_PWM_Start+0x1b8>
 8005ce4:	687b      	ldr	r3, [r7, #4]
 8005ce6:	681b      	ldr	r3, [r3, #0]
 8005ce8:	681a      	ldr	r2, [r3, #0]
 8005cea:	687b      	ldr	r3, [r7, #4]
 8005cec:	681b      	ldr	r3, [r3, #0]
 8005cee:	2101      	movs	r1, #1
 8005cf0:	430a      	orrs	r2, r1
 8005cf2:	601a      	str	r2, [r3, #0]
 8005cf4:	e008      	b.n	8005d08 <HAL_TIM_PWM_Start+0x1b8>
 8005cf6:	687b      	ldr	r3, [r7, #4]
 8005cf8:	681b      	ldr	r3, [r3, #0]
 8005cfa:	681a      	ldr	r2, [r3, #0]
 8005cfc:	687b      	ldr	r3, [r7, #4]
 8005cfe:	681b      	ldr	r3, [r3, #0]
 8005d00:	2101      	movs	r1, #1
 8005d02:	430a      	orrs	r2, r1
 8005d04:	601a      	str	r2, [r3, #0]
 8005d06:	e000      	b.n	8005d0a <HAL_TIM_PWM_Start+0x1ba>
 8005d08:	46c0      	nop			@ (mov r8, r8)
 8005d0a:	2300      	movs	r3, #0
 8005d0c:	0018      	movs	r0, r3
 8005d0e:	46bd      	mov	sp, r7
 8005d10:	b004      	add	sp, #16
 8005d12:	bd80      	pop	{r7, pc}
 8005d14:	40012c00 	.word	0x40012c00
 8005d18:	40014000 	.word	0x40014000
 8005d1c:	40014400 	.word	0x40014400
 8005d20:	40014800 	.word	0x40014800
 8005d24:	40000400 	.word	0x40000400
 8005d28:	40000800 	.word	0x40000800
 8005d2c:	00010007 	.word	0x00010007

08005d30 <HAL_TIM_PWM_Stop>:
 8005d30:	b580      	push	{r7, lr}
 8005d32:	b082      	sub	sp, #8
 8005d34:	af00      	add	r7, sp, #0
 8005d36:	6078      	str	r0, [r7, #4]
 8005d38:	6039      	str	r1, [r7, #0]
 8005d3a:	687b      	ldr	r3, [r7, #4]
 8005d3c:	681b      	ldr	r3, [r3, #0]
 8005d3e:	6839      	ldr	r1, [r7, #0]
 8005d40:	2200      	movs	r2, #0
 8005d42:	0018      	movs	r0, r3
 8005d44:	f000 fcdc 	bl	8006700 <TIM_CCxChannelCmd>
 8005d48:	687b      	ldr	r3, [r7, #4]
 8005d4a:	681b      	ldr	r3, [r3, #0]
 8005d4c:	4a37      	ldr	r2, [pc, #220]	@ (8005e2c <HAL_TIM_PWM_Stop+0xfc>)
 8005d4e:	4293      	cmp	r3, r2
 8005d50:	d00e      	beq.n	8005d70 <HAL_TIM_PWM_Stop+0x40>
 8005d52:	687b      	ldr	r3, [r7, #4]
 8005d54:	681b      	ldr	r3, [r3, #0]
 8005d56:	4a36      	ldr	r2, [pc, #216]	@ (8005e30 <HAL_TIM_PWM_Stop+0x100>)
 8005d58:	4293      	cmp	r3, r2
 8005d5a:	d009      	beq.n	8005d70 <HAL_TIM_PWM_Stop+0x40>
 8005d5c:	687b      	ldr	r3, [r7, #4]
 8005d5e:	681b      	ldr	r3, [r3, #0]
 8005d60:	4a34      	ldr	r2, [pc, #208]	@ (8005e34 <HAL_TIM_PWM_Stop+0x104>)
 8005d62:	4293      	cmp	r3, r2
 8005d64:	d004      	beq.n	8005d70 <HAL_TIM_PWM_Stop+0x40>
 8005d66:	687b      	ldr	r3, [r7, #4]
 8005d68:	681b      	ldr	r3, [r3, #0]
 8005d6a:	4a33      	ldr	r2, [pc, #204]	@ (8005e38 <HAL_TIM_PWM_Stop+0x108>)
 8005d6c:	4293      	cmp	r3, r2
 8005d6e:	d101      	bne.n	8005d74 <HAL_TIM_PWM_Stop+0x44>
 8005d70:	2301      	movs	r3, #1
 8005d72:	e000      	b.n	8005d76 <HAL_TIM_PWM_Stop+0x46>
 8005d74:	2300      	movs	r3, #0
 8005d76:	2b00      	cmp	r3, #0
 8005d78:	d013      	beq.n	8005da2 <HAL_TIM_PWM_Stop+0x72>
 8005d7a:	687b      	ldr	r3, [r7, #4]
 8005d7c:	681b      	ldr	r3, [r3, #0]
 8005d7e:	6a1b      	ldr	r3, [r3, #32]
 8005d80:	4a2e      	ldr	r2, [pc, #184]	@ (8005e3c <HAL_TIM_PWM_Stop+0x10c>)
 8005d82:	4013      	ands	r3, r2
 8005d84:	d10d      	bne.n	8005da2 <HAL_TIM_PWM_Stop+0x72>
 8005d86:	687b      	ldr	r3, [r7, #4]
 8005d88:	681b      	ldr	r3, [r3, #0]
 8005d8a:	6a1b      	ldr	r3, [r3, #32]
 8005d8c:	4a2c      	ldr	r2, [pc, #176]	@ (8005e40 <HAL_TIM_PWM_Stop+0x110>)
 8005d8e:	4013      	ands	r3, r2
 8005d90:	d107      	bne.n	8005da2 <HAL_TIM_PWM_Stop+0x72>
 8005d92:	687b      	ldr	r3, [r7, #4]
 8005d94:	681b      	ldr	r3, [r3, #0]
 8005d96:	6c5a      	ldr	r2, [r3, #68]	@ 0x44
 8005d98:	687b      	ldr	r3, [r7, #4]
 8005d9a:	681b      	ldr	r3, [r3, #0]
 8005d9c:	4929      	ldr	r1, [pc, #164]	@ (8005e44 <HAL_TIM_PWM_Stop+0x114>)
 8005d9e:	400a      	ands	r2, r1
 8005da0:	645a      	str	r2, [r3, #68]	@ 0x44
 8005da2:	687b      	ldr	r3, [r7, #4]
 8005da4:	681b      	ldr	r3, [r3, #0]
 8005da6:	6a1b      	ldr	r3, [r3, #32]
 8005da8:	4a24      	ldr	r2, [pc, #144]	@ (8005e3c <HAL_TIM_PWM_Stop+0x10c>)
 8005daa:	4013      	ands	r3, r2
 8005dac:	d10d      	bne.n	8005dca <HAL_TIM_PWM_Stop+0x9a>
 8005dae:	687b      	ldr	r3, [r7, #4]
 8005db0:	681b      	ldr	r3, [r3, #0]
 8005db2:	6a1b      	ldr	r3, [r3, #32]
 8005db4:	4a22      	ldr	r2, [pc, #136]	@ (8005e40 <HAL_TIM_PWM_Stop+0x110>)
 8005db6:	4013      	ands	r3, r2
 8005db8:	d107      	bne.n	8005dca <HAL_TIM_PWM_Stop+0x9a>
 8005dba:	687b      	ldr	r3, [r7, #4]
 8005dbc:	681b      	ldr	r3, [r3, #0]
 8005dbe:	681a      	ldr	r2, [r3, #0]
 8005dc0:	687b      	ldr	r3, [r7, #4]
 8005dc2:	681b      	ldr	r3, [r3, #0]
 8005dc4:	2101      	movs	r1, #1
 8005dc6:	438a      	bics	r2, r1
 8005dc8:	601a      	str	r2, [r3, #0]
 8005dca:	683b      	ldr	r3, [r7, #0]
 8005dcc:	2b00      	cmp	r3, #0
 8005dce:	d104      	bne.n	8005dda <HAL_TIM_PWM_Stop+0xaa>
 8005dd0:	687b      	ldr	r3, [r7, #4]
 8005dd2:	223e      	movs	r2, #62	@ 0x3e
 8005dd4:	2101      	movs	r1, #1
 8005dd6:	5499      	strb	r1, [r3, r2]
 8005dd8:	e023      	b.n	8005e22 <HAL_TIM_PWM_Stop+0xf2>
 8005dda:	683b      	ldr	r3, [r7, #0]
 8005ddc:	2b04      	cmp	r3, #4
 8005dde:	d104      	bne.n	8005dea <HAL_TIM_PWM_Stop+0xba>
 8005de0:	687b      	ldr	r3, [r7, #4]
 8005de2:	223f      	movs	r2, #63	@ 0x3f
 8005de4:	2101      	movs	r1, #1
 8005de6:	5499      	strb	r1, [r3, r2]
 8005de8:	e01b      	b.n	8005e22 <HAL_TIM_PWM_Stop+0xf2>
 8005dea:	683b      	ldr	r3, [r7, #0]
 8005dec:	2b08      	cmp	r3, #8
 8005dee:	d104      	bne.n	8005dfa <HAL_TIM_PWM_Stop+0xca>
 8005df0:	687b      	ldr	r3, [r7, #4]
 8005df2:	2240      	movs	r2, #64	@ 0x40
 8005df4:	2101      	movs	r1, #1
 8005df6:	5499      	strb	r1, [r3, r2]
 8005df8:	e013      	b.n	8005e22 <HAL_TIM_PWM_Stop+0xf2>
 8005dfa:	683b      	ldr	r3, [r7, #0]
 8005dfc:	2b0c      	cmp	r3, #12
 8005dfe:	d104      	bne.n	8005e0a <HAL_TIM_PWM_Stop+0xda>
 8005e00:	687b      	ldr	r3, [r7, #4]
 8005e02:	2241      	movs	r2, #65	@ 0x41
 8005e04:	2101      	movs	r1, #1
 8005e06:	5499      	strb	r1, [r3, r2]
 8005e08:	e00b      	b.n	8005e22 <HAL_TIM_PWM_Stop+0xf2>
 8005e0a:	683b      	ldr	r3, [r7, #0]
 8005e0c:	2b10      	cmp	r3, #16
 8005e0e:	d104      	bne.n	8005e1a <HAL_TIM_PWM_Stop+0xea>
 8005e10:	687b      	ldr	r3, [r7, #4]
 8005e12:	2242      	movs	r2, #66	@ 0x42
 8005e14:	2101      	movs	r1, #1
 8005e16:	5499      	strb	r1, [r3, r2]
 8005e18:	e003      	b.n	8005e22 <HAL_TIM_PWM_Stop+0xf2>
 8005e1a:	687b      	ldr	r3, [r7, #4]
 8005e1c:	2243      	movs	r2, #67	@ 0x43
 8005e1e:	2101      	movs	r1, #1
 8005e20:	5499      	strb	r1, [r3, r2]
 8005e22:	2300      	movs	r3, #0
 8005e24:	0018      	movs	r0, r3
 8005e26:	46bd      	mov	sp, r7
 8005e28:	b002      	add	sp, #8
 8005e2a:	bd80      	pop	{r7, pc}
 8005e2c:	40012c00 	.word	0x40012c00
 8005e30:	40014000 	.word	0x40014000
 8005e34:	40014400 	.word	0x40014400
 8005e38:	40014800 	.word	0x40014800
 8005e3c:	00001111 	.word	0x00001111
 8005e40:	00000444 	.word	0x00000444
 8005e44:	ffff7fff 	.word	0xffff7fff

08005e48 <HAL_TIM_PWM_ConfigChannel>:
 8005e48:	b580      	push	{r7, lr}
 8005e4a:	b086      	sub	sp, #24
 8005e4c:	af00      	add	r7, sp, #0
 8005e4e:	60f8      	str	r0, [r7, #12]
 8005e50:	60b9      	str	r1, [r7, #8]
 8005e52:	607a      	str	r2, [r7, #4]
 8005e54:	2317      	movs	r3, #23
 8005e56:	18fb      	adds	r3, r7, r3
 8005e58:	2200      	movs	r2, #0
 8005e5a:	701a      	strb	r2, [r3, #0]
 8005e5c:	68fb      	ldr	r3, [r7, #12]
 8005e5e:	223c      	movs	r2, #60	@ 0x3c
 8005e60:	5c9b      	ldrb	r3, [r3, r2]
 8005e62:	2b01      	cmp	r3, #1
 8005e64:	d101      	bne.n	8005e6a <HAL_TIM_PWM_ConfigChannel+0x22>
 8005e66:	2302      	movs	r3, #2
 8005e68:	e0e5      	b.n	8006036 <HAL_TIM_PWM_ConfigChannel+0x1ee>
 8005e6a:	68fb      	ldr	r3, [r7, #12]
 8005e6c:	223c      	movs	r2, #60	@ 0x3c
 8005e6e:	2101      	movs	r1, #1
 8005e70:	5499      	strb	r1, [r3, r2]
 8005e72:	687b      	ldr	r3, [r7, #4]
 8005e74:	2b14      	cmp	r3, #20
 8005e76:	d900      	bls.n	8005e7a <HAL_TIM_PWM_ConfigChannel+0x32>
 8005e78:	e0d1      	b.n	800601e <HAL_TIM_PWM_ConfigChannel+0x1d6>
 8005e7a:	687b      	ldr	r3, [r7, #4]
 8005e7c:	009a      	lsls	r2, r3, #2
 8005e7e:	4b70      	ldr	r3, [pc, #448]	@ (8006040 <HAL_TIM_PWM_ConfigChannel+0x1f8>)
 8005e80:	18d3      	adds	r3, r2, r3
 8005e82:	681b      	ldr	r3, [r3, #0]
 8005e84:	469f      	mov	pc, r3
 8005e86:	68fb      	ldr	r3, [r7, #12]
 8005e88:	681b      	ldr	r3, [r3, #0]
 8005e8a:	68ba      	ldr	r2, [r7, #8]
 8005e8c:	0011      	movs	r1, r2
 8005e8e:	0018      	movs	r0, r3
 8005e90:	f000 f972 	bl	8006178 <TIM_OC1_SetConfig>
 8005e94:	68fb      	ldr	r3, [r7, #12]
 8005e96:	681b      	ldr	r3, [r3, #0]
 8005e98:	699a      	ldr	r2, [r3, #24]
 8005e9a:	68fb      	ldr	r3, [r7, #12]
 8005e9c:	681b      	ldr	r3, [r3, #0]
 8005e9e:	2108      	movs	r1, #8
 8005ea0:	430a      	orrs	r2, r1
 8005ea2:	619a      	str	r2, [r3, #24]
 8005ea4:	68fb      	ldr	r3, [r7, #12]
 8005ea6:	681b      	ldr	r3, [r3, #0]
 8005ea8:	699a      	ldr	r2, [r3, #24]
 8005eaa:	68fb      	ldr	r3, [r7, #12]
 8005eac:	681b      	ldr	r3, [r3, #0]
 8005eae:	2104      	movs	r1, #4
 8005eb0:	438a      	bics	r2, r1
 8005eb2:	619a      	str	r2, [r3, #24]
 8005eb4:	68fb      	ldr	r3, [r7, #12]
 8005eb6:	681b      	ldr	r3, [r3, #0]
 8005eb8:	6999      	ldr	r1, [r3, #24]
 8005eba:	68bb      	ldr	r3, [r7, #8]
 8005ebc:	691a      	ldr	r2, [r3, #16]
 8005ebe:	68fb      	ldr	r3, [r7, #12]
 8005ec0:	681b      	ldr	r3, [r3, #0]
 8005ec2:	430a      	orrs	r2, r1
 8005ec4:	619a      	str	r2, [r3, #24]
 8005ec6:	e0af      	b.n	8006028 <HAL_TIM_PWM_ConfigChannel+0x1e0>
 8005ec8:	68fb      	ldr	r3, [r7, #12]
 8005eca:	681b      	ldr	r3, [r3, #0]
 8005ecc:	68ba      	ldr	r2, [r7, #8]
 8005ece:	0011      	movs	r1, r2
 8005ed0:	0018      	movs	r0, r3
 8005ed2:	f000 f9db 	bl	800628c <TIM_OC2_SetConfig>
 8005ed6:	68fb      	ldr	r3, [r7, #12]
 8005ed8:	681b      	ldr	r3, [r3, #0]
 8005eda:	699a      	ldr	r2, [r3, #24]
 8005edc:	68fb      	ldr	r3, [r7, #12]
 8005ede:	681b      	ldr	r3, [r3, #0]
 8005ee0:	2180      	movs	r1, #128	@ 0x80
 8005ee2:	0109      	lsls	r1, r1, #4
 8005ee4:	430a      	orrs	r2, r1
 8005ee6:	619a      	str	r2, [r3, #24]
 8005ee8:	68fb      	ldr	r3, [r7, #12]
 8005eea:	681b      	ldr	r3, [r3, #0]
 8005eec:	699a      	ldr	r2, [r3, #24]
 8005eee:	68fb      	ldr	r3, [r7, #12]
 8005ef0:	681b      	ldr	r3, [r3, #0]
 8005ef2:	4954      	ldr	r1, [pc, #336]	@ (8006044 <HAL_TIM_PWM_ConfigChannel+0x1fc>)
 8005ef4:	400a      	ands	r2, r1
 8005ef6:	619a      	str	r2, [r3, #24]
 8005ef8:	68fb      	ldr	r3, [r7, #12]
 8005efa:	681b      	ldr	r3, [r3, #0]
 8005efc:	6999      	ldr	r1, [r3, #24]
 8005efe:	68bb      	ldr	r3, [r7, #8]
 8005f00:	691b      	ldr	r3, [r3, #16]
 8005f02:	021a      	lsls	r2, r3, #8
 8005f04:	68fb      	ldr	r3, [r7, #12]
 8005f06:	681b      	ldr	r3, [r3, #0]
 8005f08:	430a      	orrs	r2, r1
 8005f0a:	619a      	str	r2, [r3, #24]
 8005f0c:	e08c      	b.n	8006028 <HAL_TIM_PWM_ConfigChannel+0x1e0>
 8005f0e:	68fb      	ldr	r3, [r7, #12]
 8005f10:	681b      	ldr	r3, [r3, #0]
 8005f12:	68ba      	ldr	r2, [r7, #8]
 8005f14:	0011      	movs	r1, r2
 8005f16:	0018      	movs	r0, r3
 8005f18:	f000 fa3c 	bl	8006394 <TIM_OC3_SetConfig>
 8005f1c:	68fb      	ldr	r3, [r7, #12]
 8005f1e:	681b      	ldr	r3, [r3, #0]
 8005f20:	69da      	ldr	r2, [r3, #28]
 8005f22:	68fb      	ldr	r3, [r7, #12]
 8005f24:	681b      	ldr	r3, [r3, #0]
 8005f26:	2108      	movs	r1, #8
 8005f28:	430a      	orrs	r2, r1
 8005f2a:	61da      	str	r2, [r3, #28]
 8005f2c:	68fb      	ldr	r3, [r7, #12]
 8005f2e:	681b      	ldr	r3, [r3, #0]
 8005f30:	69da      	ldr	r2, [r3, #28]
 8005f32:	68fb      	ldr	r3, [r7, #12]
 8005f34:	681b      	ldr	r3, [r3, #0]
 8005f36:	2104      	movs	r1, #4
 8005f38:	438a      	bics	r2, r1
 8005f3a:	61da      	str	r2, [r3, #28]
 8005f3c:	68fb      	ldr	r3, [r7, #12]
 8005f3e:	681b      	ldr	r3, [r3, #0]
 8005f40:	69d9      	ldr	r1, [r3, #28]
 8005f42:	68bb      	ldr	r3, [r7, #8]
 8005f44:	691a      	ldr	r2, [r3, #16]
 8005f46:	68fb      	ldr	r3, [r7, #12]
 8005f48:	681b      	ldr	r3, [r3, #0]
 8005f4a:	430a      	orrs	r2, r1
 8005f4c:	61da      	str	r2, [r3, #28]
 8005f4e:	e06b      	b.n	8006028 <HAL_TIM_PWM_ConfigChannel+0x1e0>
 8005f50:	68fb      	ldr	r3, [r7, #12]
 8005f52:	681b      	ldr	r3, [r3, #0]
 8005f54:	68ba      	ldr	r2, [r7, #8]
 8005f56:	0011      	movs	r1, r2
 8005f58:	0018      	movs	r0, r3
 8005f5a:	f000 faa3 	bl	80064a4 <TIM_OC4_SetConfig>
 8005f5e:	68fb      	ldr	r3, [r7, #12]
 8005f60:	681b      	ldr	r3, [r3, #0]
 8005f62:	69da      	ldr	r2, [r3, #28]
 8005f64:	68fb      	ldr	r3, [r7, #12]
 8005f66:	681b      	ldr	r3, [r3, #0]
 8005f68:	2180      	movs	r1, #128	@ 0x80
 8005f6a:	0109      	lsls	r1, r1, #4
 8005f6c:	430a      	orrs	r2, r1
 8005f6e:	61da      	str	r2, [r3, #28]
 8005f70:	68fb      	ldr	r3, [r7, #12]
 8005f72:	681b      	ldr	r3, [r3, #0]
 8005f74:	69da      	ldr	r2, [r3, #28]
 8005f76:	68fb      	ldr	r3, [r7, #12]
 8005f78:	681b      	ldr	r3, [r3, #0]
 8005f7a:	4932      	ldr	r1, [pc, #200]	@ (8006044 <HAL_TIM_PWM_ConfigChannel+0x1fc>)
 8005f7c:	400a      	ands	r2, r1
 8005f7e:	61da      	str	r2, [r3, #28]
 8005f80:	68fb      	ldr	r3, [r7, #12]
 8005f82:	681b      	ldr	r3, [r3, #0]
 8005f84:	69d9      	ldr	r1, [r3, #28]
 8005f86:	68bb      	ldr	r3, [r7, #8]
 8005f88:	691b      	ldr	r3, [r3, #16]
 8005f8a:	021a      	lsls	r2, r3, #8
 8005f8c:	68fb      	ldr	r3, [r7, #12]
 8005f8e:	681b      	ldr	r3, [r3, #0]
 8005f90:	430a      	orrs	r2, r1
 8005f92:	61da      	str	r2, [r3, #28]
 8005f94:	e048      	b.n	8006028 <HAL_TIM_PWM_ConfigChannel+0x1e0>
 8005f96:	68fb      	ldr	r3, [r7, #12]
 8005f98:	681b      	ldr	r3, [r3, #0]
 8005f9a:	68ba      	ldr	r2, [r7, #8]
 8005f9c:	0011      	movs	r1, r2
 8005f9e:	0018      	movs	r0, r3
 8005fa0:	f000 faea 	bl	8006578 <TIM_OC5_SetConfig>
 8005fa4:	68fb      	ldr	r3, [r7, #12]
 8005fa6:	681b      	ldr	r3, [r3, #0]
 8005fa8:	6d5a      	ldr	r2, [r3, #84]	@ 0x54
 8005faa:	68fb      	ldr	r3, [r7, #12]
 8005fac:	681b      	ldr	r3, [r3, #0]
 8005fae:	2108      	movs	r1, #8
 8005fb0:	430a      	orrs	r2, r1
 8005fb2:	655a      	str	r2, [r3, #84]	@ 0x54
 8005fb4:	68fb      	ldr	r3, [r7, #12]
 8005fb6:	681b      	ldr	r3, [r3, #0]
 8005fb8:	6d5a      	ldr	r2, [r3, #84]	@ 0x54
 8005fba:	68fb      	ldr	r3, [r7, #12]
 8005fbc:	681b      	ldr	r3, [r3, #0]
 8005fbe:	2104      	movs	r1, #4
 8005fc0:	438a      	bics	r2, r1
 8005fc2:	655a      	str	r2, [r3, #84]	@ 0x54
 8005fc4:	68fb      	ldr	r3, [r7, #12]
 8005fc6:	681b      	ldr	r3, [r3, #0]
 8005fc8:	6d59      	ldr	r1, [r3, #84]	@ 0x54
 8005fca:	68bb      	ldr	r3, [r7, #8]
 8005fcc:	691a      	ldr	r2, [r3, #16]
 8005fce:	68fb      	ldr	r3, [r7, #12]
 8005fd0:	681b      	ldr	r3, [r3, #0]
 8005fd2:	430a      	orrs	r2, r1
 8005fd4:	655a      	str	r2, [r3, #84]	@ 0x54
 8005fd6:	e027      	b.n	8006028 <HAL_TIM_PWM_ConfigChannel+0x1e0>
 8005fd8:	68fb      	ldr	r3, [r7, #12]
 8005fda:	681b      	ldr	r3, [r3, #0]
 8005fdc:	68ba      	ldr	r2, [r7, #8]
 8005fde:	0011      	movs	r1, r2
 8005fe0:	0018      	movs	r0, r3
 8005fe2:	f000 fb29 	bl	8006638 <TIM_OC6_SetConfig>
 8005fe6:	68fb      	ldr	r3, [r7, #12]
 8005fe8:	681b      	ldr	r3, [r3, #0]
 8005fea:	6d5a      	ldr	r2, [r3, #84]	@ 0x54
 8005fec:	68fb      	ldr	r3, [r7, #12]
 8005fee:	681b      	ldr	r3, [r3, #0]
 8005ff0:	2180      	movs	r1, #128	@ 0x80
 8005ff2:	0109      	lsls	r1, r1, #4
 8005ff4:	430a      	orrs	r2, r1
 8005ff6:	655a      	str	r2, [r3, #84]	@ 0x54
 8005ff8:	68fb      	ldr	r3, [r7, #12]
 8005ffa:	681b      	ldr	r3, [r3, #0]
 8005ffc:	6d5a      	ldr	r2, [r3, #84]	@ 0x54
 8005ffe:	68fb      	ldr	r3, [r7, #12]
 8006000:	681b      	ldr	r3, [r3, #0]
 8006002:	4910      	ldr	r1, [pc, #64]	@ (8006044 <HAL_TIM_PWM_ConfigChannel+0x1fc>)
 8006004:	400a      	ands	r2, r1
 8006006:	655a      	str	r2, [r3, #84]	@ 0x54
 8006008:	68fb      	ldr	r3, [r7, #12]
 800600a:	681b      	ldr	r3, [r3, #0]
 800600c:	6d59      	ldr	r1, [r3, #84]	@ 0x54
 800600e:	68bb      	ldr	r3, [r7, #8]
 8006010:	691b      	ldr	r3, [r3, #16]
 8006012:	021a      	lsls	r2, r3, #8
 8006014:	68fb      	ldr	r3, [r7, #12]
 8006016:	681b      	ldr	r3, [r3, #0]
 8006018:	430a      	orrs	r2, r1
 800601a:	655a      	str	r2, [r3, #84]	@ 0x54
 800601c:	e004      	b.n	8006028 <HAL_TIM_PWM_ConfigChannel+0x1e0>
 800601e:	2317      	movs	r3, #23
 8006020:	18fb      	adds	r3, r7, r3
 8006022:	2201      	movs	r2, #1
 8006024:	701a      	strb	r2, [r3, #0]
 8006026:	46c0      	nop			@ (mov r8, r8)
 8006028:	68fb      	ldr	r3, [r7, #12]
 800602a:	223c      	movs	r2, #60	@ 0x3c
 800602c:	2100      	movs	r1, #0
 800602e:	5499      	strb	r1, [r3, r2]
 8006030:	2317      	movs	r3, #23
 8006032:	18fb      	adds	r3, r7, r3
 8006034:	781b      	ldrb	r3, [r3, #0]
 8006036:	0018      	movs	r0, r3
 8006038:	46bd      	mov	sp, r7
 800603a:	b006      	add	sp, #24
 800603c:	bd80      	pop	{r7, pc}
 800603e:	46c0      	nop			@ (mov r8, r8)
 8006040:	08008764 	.word	0x08008764
 8006044:	fffffbff 	.word	0xfffffbff

08006048 <TIM_Base_SetConfig>:
 8006048:	b580      	push	{r7, lr}
 800604a:	b084      	sub	sp, #16
 800604c:	af00      	add	r7, sp, #0
 800604e:	6078      	str	r0, [r7, #4]
 8006050:	6039      	str	r1, [r7, #0]
 8006052:	687b      	ldr	r3, [r7, #4]
 8006054:	681b      	ldr	r3, [r3, #0]
 8006056:	60fb      	str	r3, [r7, #12]
 8006058:	687b      	ldr	r3, [r7, #4]
 800605a:	4a3f      	ldr	r2, [pc, #252]	@ (8006158 <TIM_Base_SetConfig+0x110>)
 800605c:	4293      	cmp	r3, r2
 800605e:	d00c      	beq.n	800607a <TIM_Base_SetConfig+0x32>
 8006060:	687a      	ldr	r2, [r7, #4]
 8006062:	2380      	movs	r3, #128	@ 0x80
 8006064:	05db      	lsls	r3, r3, #23
 8006066:	429a      	cmp	r2, r3
 8006068:	d007      	beq.n	800607a <TIM_Base_SetConfig+0x32>
 800606a:	687b      	ldr	r3, [r7, #4]
 800606c:	4a3b      	ldr	r2, [pc, #236]	@ (800615c <TIM_Base_SetConfig+0x114>)
 800606e:	4293      	cmp	r3, r2
 8006070:	d003      	beq.n	800607a <TIM_Base_SetConfig+0x32>
 8006072:	687b      	ldr	r3, [r7, #4]
 8006074:	4a3a      	ldr	r2, [pc, #232]	@ (8006160 <TIM_Base_SetConfig+0x118>)
 8006076:	4293      	cmp	r3, r2
 8006078:	d108      	bne.n	800608c <TIM_Base_SetConfig+0x44>
 800607a:	68fb      	ldr	r3, [r7, #12]
 800607c:	2270      	movs	r2, #112	@ 0x70
 800607e:	4393      	bics	r3, r2
 8006080:	60fb      	str	r3, [r7, #12]
 8006082:	683b      	ldr	r3, [r7, #0]
 8006084:	685b      	ldr	r3, [r3, #4]
 8006086:	68fa      	ldr	r2, [r7, #12]
 8006088:	4313      	orrs	r3, r2
 800608a:	60fb      	str	r3, [r7, #12]
 800608c:	687b      	ldr	r3, [r7, #4]
 800608e:	4a32      	ldr	r2, [pc, #200]	@ (8006158 <TIM_Base_SetConfig+0x110>)
 8006090:	4293      	cmp	r3, r2
 8006092:	d01c      	beq.n	80060ce <TIM_Base_SetConfig+0x86>
 8006094:	687a      	ldr	r2, [r7, #4]
 8006096:	2380      	movs	r3, #128	@ 0x80
 8006098:	05db      	lsls	r3, r3, #23
 800609a:	429a      	cmp	r2, r3
 800609c:	d017      	beq.n	80060ce <TIM_Base_SetConfig+0x86>
 800609e:	687b      	ldr	r3, [r7, #4]
 80060a0:	4a2e      	ldr	r2, [pc, #184]	@ (800615c <TIM_Base_SetConfig+0x114>)
 80060a2:	4293      	cmp	r3, r2
 80060a4:	d013      	beq.n	80060ce <TIM_Base_SetConfig+0x86>
 80060a6:	687b      	ldr	r3, [r7, #4]
 80060a8:	4a2d      	ldr	r2, [pc, #180]	@ (8006160 <TIM_Base_SetConfig+0x118>)
 80060aa:	4293      	cmp	r3, r2
 80060ac:	d00f      	beq.n	80060ce <TIM_Base_SetConfig+0x86>
 80060ae:	687b      	ldr	r3, [r7, #4]
 80060b0:	4a2c      	ldr	r2, [pc, #176]	@ (8006164 <TIM_Base_SetConfig+0x11c>)
 80060b2:	4293      	cmp	r3, r2
 80060b4:	d00b      	beq.n	80060ce <TIM_Base_SetConfig+0x86>
 80060b6:	687b      	ldr	r3, [r7, #4]
 80060b8:	4a2b      	ldr	r2, [pc, #172]	@ (8006168 <TIM_Base_SetConfig+0x120>)
 80060ba:	4293      	cmp	r3, r2
 80060bc:	d007      	beq.n	80060ce <TIM_Base_SetConfig+0x86>
 80060be:	687b      	ldr	r3, [r7, #4]
 80060c0:	4a2a      	ldr	r2, [pc, #168]	@ (800616c <TIM_Base_SetConfig+0x124>)
 80060c2:	4293      	cmp	r3, r2
 80060c4:	d003      	beq.n	80060ce <TIM_Base_SetConfig+0x86>
 80060c6:	687b      	ldr	r3, [r7, #4]
 80060c8:	4a29      	ldr	r2, [pc, #164]	@ (8006170 <TIM_Base_SetConfig+0x128>)
 80060ca:	4293      	cmp	r3, r2
 80060cc:	d108      	bne.n	80060e0 <TIM_Base_SetConfig+0x98>
 80060ce:	68fb      	ldr	r3, [r7, #12]
 80060d0:	4a28      	ldr	r2, [pc, #160]	@ (8006174 <TIM_Base_SetConfig+0x12c>)
 80060d2:	4013      	ands	r3, r2
 80060d4:	60fb      	str	r3, [r7, #12]
 80060d6:	683b      	ldr	r3, [r7, #0]
 80060d8:	68db      	ldr	r3, [r3, #12]
 80060da:	68fa      	ldr	r2, [r7, #12]
 80060dc:	4313      	orrs	r3, r2
 80060de:	60fb      	str	r3, [r7, #12]
 80060e0:	68fb      	ldr	r3, [r7, #12]
 80060e2:	2280      	movs	r2, #128	@ 0x80
 80060e4:	4393      	bics	r3, r2
 80060e6:	001a      	movs	r2, r3
 80060e8:	683b      	ldr	r3, [r7, #0]
 80060ea:	695b      	ldr	r3, [r3, #20]
 80060ec:	4313      	orrs	r3, r2
 80060ee:	60fb      	str	r3, [r7, #12]
 80060f0:	687b      	ldr	r3, [r7, #4]
 80060f2:	68fa      	ldr	r2, [r7, #12]
 80060f4:	601a      	str	r2, [r3, #0]
 80060f6:	683b      	ldr	r3, [r7, #0]
 80060f8:	689a      	ldr	r2, [r3, #8]
 80060fa:	687b      	ldr	r3, [r7, #4]
 80060fc:	62da      	str	r2, [r3, #44]	@ 0x2c
 80060fe:	683b      	ldr	r3, [r7, #0]
 8006100:	681a      	ldr	r2, [r3, #0]
 8006102:	687b      	ldr	r3, [r7, #4]
 8006104:	629a      	str	r2, [r3, #40]	@ 0x28
 8006106:	687b      	ldr	r3, [r7, #4]
 8006108:	4a13      	ldr	r2, [pc, #76]	@ (8006158 <TIM_Base_SetConfig+0x110>)
 800610a:	4293      	cmp	r3, r2
 800610c:	d00b      	beq.n	8006126 <TIM_Base_SetConfig+0xde>
 800610e:	687b      	ldr	r3, [r7, #4]
 8006110:	4a15      	ldr	r2, [pc, #84]	@ (8006168 <TIM_Base_SetConfig+0x120>)
 8006112:	4293      	cmp	r3, r2
 8006114:	d007      	beq.n	8006126 <TIM_Base_SetConfig+0xde>
 8006116:	687b      	ldr	r3, [r7, #4]
 8006118:	4a14      	ldr	r2, [pc, #80]	@ (800616c <TIM_Base_SetConfig+0x124>)
 800611a:	4293      	cmp	r3, r2
 800611c:	d003      	beq.n	8006126 <TIM_Base_SetConfig+0xde>
 800611e:	687b      	ldr	r3, [r7, #4]
 8006120:	4a13      	ldr	r2, [pc, #76]	@ (8006170 <TIM_Base_SetConfig+0x128>)
 8006122:	4293      	cmp	r3, r2
 8006124:	d103      	bne.n	800612e <TIM_Base_SetConfig+0xe6>
 8006126:	683b      	ldr	r3, [r7, #0]
 8006128:	691a      	ldr	r2, [r3, #16]
 800612a:	687b      	ldr	r3, [r7, #4]
 800612c:	631a      	str	r2, [r3, #48]	@ 0x30
 800612e:	687b      	ldr	r3, [r7, #4]
 8006130:	2201      	movs	r2, #1
 8006132:	615a      	str	r2, [r3, #20]
 8006134:	687b      	ldr	r3, [r7, #4]
 8006136:	691b      	ldr	r3, [r3, #16]
 8006138:	2201      	movs	r2, #1
 800613a:	4013      	ands	r3, r2
 800613c:	2b01      	cmp	r3, #1
 800613e:	d106      	bne.n	800614e <TIM_Base_SetConfig+0x106>
 8006140:	687b      	ldr	r3, [r7, #4]
 8006142:	691b      	ldr	r3, [r3, #16]
 8006144:	2201      	movs	r2, #1
 8006146:	4393      	bics	r3, r2
 8006148:	001a      	movs	r2, r3
 800614a:	687b      	ldr	r3, [r7, #4]
 800614c:	611a      	str	r2, [r3, #16]
 800614e:	46c0      	nop			@ (mov r8, r8)
 8006150:	46bd      	mov	sp, r7
 8006152:	b004      	add	sp, #16
 8006154:	bd80      	pop	{r7, pc}
 8006156:	46c0      	nop			@ (mov r8, r8)
 8006158:	40012c00 	.word	0x40012c00
 800615c:	40000400 	.word	0x40000400
 8006160:	40000800 	.word	0x40000800
 8006164:	40002000 	.word	0x40002000
 8006168:	40014000 	.word	0x40014000
 800616c:	40014400 	.word	0x40014400
 8006170:	40014800 	.word	0x40014800
 8006174:	fffffcff 	.word	0xfffffcff

08006178 <TIM_OC1_SetConfig>:
 8006178:	b580      	push	{r7, lr}
 800617a:	b086      	sub	sp, #24
 800617c:	af00      	add	r7, sp, #0
 800617e:	6078      	str	r0, [r7, #4]
 8006180:	6039      	str	r1, [r7, #0]
 8006182:	687b      	ldr	r3, [r7, #4]
 8006184:	6a1b      	ldr	r3, [r3, #32]
 8006186:	617b      	str	r3, [r7, #20]
 8006188:	687b      	ldr	r3, [r7, #4]
 800618a:	6a1b      	ldr	r3, [r3, #32]
 800618c:	2201      	movs	r2, #1
 800618e:	4393      	bics	r3, r2
 8006190:	001a      	movs	r2, r3
 8006192:	687b      	ldr	r3, [r7, #4]
 8006194:	621a      	str	r2, [r3, #32]
 8006196:	687b      	ldr	r3, [r7, #4]
 8006198:	685b      	ldr	r3, [r3, #4]
 800619a:	613b      	str	r3, [r7, #16]
 800619c:	687b      	ldr	r3, [r7, #4]
 800619e:	699b      	ldr	r3, [r3, #24]
 80061a0:	60fb      	str	r3, [r7, #12]
 80061a2:	68fb      	ldr	r3, [r7, #12]
 80061a4:	4a32      	ldr	r2, [pc, #200]	@ (8006270 <TIM_OC1_SetConfig+0xf8>)
 80061a6:	4013      	ands	r3, r2
 80061a8:	60fb      	str	r3, [r7, #12]
 80061aa:	68fb      	ldr	r3, [r7, #12]
 80061ac:	2203      	movs	r2, #3
 80061ae:	4393      	bics	r3, r2
 80061b0:	60fb      	str	r3, [r7, #12]
 80061b2:	683b      	ldr	r3, [r7, #0]
 80061b4:	681b      	ldr	r3, [r3, #0]
 80061b6:	68fa      	ldr	r2, [r7, #12]
 80061b8:	4313      	orrs	r3, r2
 80061ba:	60fb      	str	r3, [r7, #12]
 80061bc:	697b      	ldr	r3, [r7, #20]
 80061be:	2202      	movs	r2, #2
 80061c0:	4393      	bics	r3, r2
 80061c2:	617b      	str	r3, [r7, #20]
 80061c4:	683b      	ldr	r3, [r7, #0]
 80061c6:	689b      	ldr	r3, [r3, #8]
 80061c8:	697a      	ldr	r2, [r7, #20]
 80061ca:	4313      	orrs	r3, r2
 80061cc:	617b      	str	r3, [r7, #20]
 80061ce:	687b      	ldr	r3, [r7, #4]
 80061d0:	4a28      	ldr	r2, [pc, #160]	@ (8006274 <TIM_OC1_SetConfig+0xfc>)
 80061d2:	4293      	cmp	r3, r2
 80061d4:	d00b      	beq.n	80061ee <TIM_OC1_SetConfig+0x76>
 80061d6:	687b      	ldr	r3, [r7, #4]
 80061d8:	4a27      	ldr	r2, [pc, #156]	@ (8006278 <TIM_OC1_SetConfig+0x100>)
 80061da:	4293      	cmp	r3, r2
 80061dc:	d007      	beq.n	80061ee <TIM_OC1_SetConfig+0x76>
 80061de:	687b      	ldr	r3, [r7, #4]
 80061e0:	4a26      	ldr	r2, [pc, #152]	@ (800627c <TIM_OC1_SetConfig+0x104>)
 80061e2:	4293      	cmp	r3, r2
 80061e4:	d003      	beq.n	80061ee <TIM_OC1_SetConfig+0x76>
 80061e6:	687b      	ldr	r3, [r7, #4]
 80061e8:	4a25      	ldr	r2, [pc, #148]	@ (8006280 <TIM_OC1_SetConfig+0x108>)
 80061ea:	4293      	cmp	r3, r2
 80061ec:	d10c      	bne.n	8006208 <TIM_OC1_SetConfig+0x90>
 80061ee:	697b      	ldr	r3, [r7, #20]
 80061f0:	2208      	movs	r2, #8
 80061f2:	4393      	bics	r3, r2
 80061f4:	617b      	str	r3, [r7, #20]
 80061f6:	683b      	ldr	r3, [r7, #0]
 80061f8:	68db      	ldr	r3, [r3, #12]
 80061fa:	697a      	ldr	r2, [r7, #20]
 80061fc:	4313      	orrs	r3, r2
 80061fe:	617b      	str	r3, [r7, #20]
 8006200:	697b      	ldr	r3, [r7, #20]
 8006202:	2204      	movs	r2, #4
 8006204:	4393      	bics	r3, r2
 8006206:	617b      	str	r3, [r7, #20]
 8006208:	687b      	ldr	r3, [r7, #4]
 800620a:	4a1a      	ldr	r2, [pc, #104]	@ (8006274 <TIM_OC1_SetConfig+0xfc>)
 800620c:	4293      	cmp	r3, r2
 800620e:	d00b      	beq.n	8006228 <TIM_OC1_SetConfig+0xb0>
 8006210:	687b      	ldr	r3, [r7, #4]
 8006212:	4a19      	ldr	r2, [pc, #100]	@ (8006278 <TIM_OC1_SetConfig+0x100>)
 8006214:	4293      	cmp	r3, r2
 8006216:	d007      	beq.n	8006228 <TIM_OC1_SetConfig+0xb0>
 8006218:	687b      	ldr	r3, [r7, #4]
 800621a:	4a18      	ldr	r2, [pc, #96]	@ (800627c <TIM_OC1_SetConfig+0x104>)
 800621c:	4293      	cmp	r3, r2
 800621e:	d003      	beq.n	8006228 <TIM_OC1_SetConfig+0xb0>
 8006220:	687b      	ldr	r3, [r7, #4]
 8006222:	4a17      	ldr	r2, [pc, #92]	@ (8006280 <TIM_OC1_SetConfig+0x108>)
 8006224:	4293      	cmp	r3, r2
 8006226:	d111      	bne.n	800624c <TIM_OC1_SetConfig+0xd4>
 8006228:	693b      	ldr	r3, [r7, #16]
 800622a:	4a16      	ldr	r2, [pc, #88]	@ (8006284 <TIM_OC1_SetConfig+0x10c>)
 800622c:	4013      	ands	r3, r2
 800622e:	613b      	str	r3, [r7, #16]
 8006230:	693b      	ldr	r3, [r7, #16]
 8006232:	4a15      	ldr	r2, [pc, #84]	@ (8006288 <TIM_OC1_SetConfig+0x110>)
 8006234:	4013      	ands	r3, r2
 8006236:	613b      	str	r3, [r7, #16]
 8006238:	683b      	ldr	r3, [r7, #0]
 800623a:	695b      	ldr	r3, [r3, #20]
 800623c:	693a      	ldr	r2, [r7, #16]
 800623e:	4313      	orrs	r3, r2
 8006240:	613b      	str	r3, [r7, #16]
 8006242:	683b      	ldr	r3, [r7, #0]
 8006244:	699b      	ldr	r3, [r3, #24]
 8006246:	693a      	ldr	r2, [r7, #16]
 8006248:	4313      	orrs	r3, r2
 800624a:	613b      	str	r3, [r7, #16]
 800624c:	687b      	ldr	r3, [r7, #4]
 800624e:	693a      	ldr	r2, [r7, #16]
 8006250:	605a      	str	r2, [r3, #4]
 8006252:	687b      	ldr	r3, [r7, #4]
 8006254:	68fa      	ldr	r2, [r7, #12]
 8006256:	619a      	str	r2, [r3, #24]
 8006258:	683b      	ldr	r3, [r7, #0]
 800625a:	685a      	ldr	r2, [r3, #4]
 800625c:	687b      	ldr	r3, [r7, #4]
 800625e:	635a      	str	r2, [r3, #52]	@ 0x34
 8006260:	687b      	ldr	r3, [r7, #4]
 8006262:	697a      	ldr	r2, [r7, #20]
 8006264:	621a      	str	r2, [r3, #32]
 8006266:	46c0      	nop			@ (mov r8, r8)
 8006268:	46bd      	mov	sp, r7
 800626a:	b006      	add	sp, #24
 800626c:	bd80      	pop	{r7, pc}
 800626e:	46c0      	nop			@ (mov r8, r8)
 8006270:	fffeff8f 	.word	0xfffeff8f
 8006274:	40012c00 	.word	0x40012c00
 8006278:	40014000 	.word	0x40014000
 800627c:	40014400 	.word	0x40014400
 8006280:	40014800 	.word	0x40014800
 8006284:	fffffeff 	.word	0xfffffeff
 8006288:	fffffdff 	.word	0xfffffdff

0800628c <TIM_OC2_SetConfig>:
 800628c:	b580      	push	{r7, lr}
 800628e:	b086      	sub	sp, #24
 8006290:	af00      	add	r7, sp, #0
 8006292:	6078      	str	r0, [r7, #4]
 8006294:	6039      	str	r1, [r7, #0]
 8006296:	687b      	ldr	r3, [r7, #4]
 8006298:	6a1b      	ldr	r3, [r3, #32]
 800629a:	617b      	str	r3, [r7, #20]
 800629c:	687b      	ldr	r3, [r7, #4]
 800629e:	6a1b      	ldr	r3, [r3, #32]
 80062a0:	2210      	movs	r2, #16
 80062a2:	4393      	bics	r3, r2
 80062a4:	001a      	movs	r2, r3
 80062a6:	687b      	ldr	r3, [r7, #4]
 80062a8:	621a      	str	r2, [r3, #32]
 80062aa:	687b      	ldr	r3, [r7, #4]
 80062ac:	685b      	ldr	r3, [r3, #4]
 80062ae:	613b      	str	r3, [r7, #16]
 80062b0:	687b      	ldr	r3, [r7, #4]
 80062b2:	699b      	ldr	r3, [r3, #24]
 80062b4:	60fb      	str	r3, [r7, #12]
 80062b6:	68fb      	ldr	r3, [r7, #12]
 80062b8:	4a2e      	ldr	r2, [pc, #184]	@ (8006374 <TIM_OC2_SetConfig+0xe8>)
 80062ba:	4013      	ands	r3, r2
 80062bc:	60fb      	str	r3, [r7, #12]
 80062be:	68fb      	ldr	r3, [r7, #12]
 80062c0:	4a2d      	ldr	r2, [pc, #180]	@ (8006378 <TIM_OC2_SetConfig+0xec>)
 80062c2:	4013      	ands	r3, r2
 80062c4:	60fb      	str	r3, [r7, #12]
 80062c6:	683b      	ldr	r3, [r7, #0]
 80062c8:	681b      	ldr	r3, [r3, #0]
 80062ca:	021b      	lsls	r3, r3, #8
 80062cc:	68fa      	ldr	r2, [r7, #12]
 80062ce:	4313      	orrs	r3, r2
 80062d0:	60fb      	str	r3, [r7, #12]
 80062d2:	697b      	ldr	r3, [r7, #20]
 80062d4:	2220      	movs	r2, #32
 80062d6:	4393      	bics	r3, r2
 80062d8:	617b      	str	r3, [r7, #20]
 80062da:	683b      	ldr	r3, [r7, #0]
 80062dc:	689b      	ldr	r3, [r3, #8]
 80062de:	011b      	lsls	r3, r3, #4
 80062e0:	697a      	ldr	r2, [r7, #20]
 80062e2:	4313      	orrs	r3, r2
 80062e4:	617b      	str	r3, [r7, #20]
 80062e6:	687b      	ldr	r3, [r7, #4]
 80062e8:	4a24      	ldr	r2, [pc, #144]	@ (800637c <TIM_OC2_SetConfig+0xf0>)
 80062ea:	4293      	cmp	r3, r2
 80062ec:	d10d      	bne.n	800630a <TIM_OC2_SetConfig+0x7e>
 80062ee:	697b      	ldr	r3, [r7, #20]
 80062f0:	2280      	movs	r2, #128	@ 0x80
 80062f2:	4393      	bics	r3, r2
 80062f4:	617b      	str	r3, [r7, #20]
 80062f6:	683b      	ldr	r3, [r7, #0]
 80062f8:	68db      	ldr	r3, [r3, #12]
 80062fa:	011b      	lsls	r3, r3, #4
 80062fc:	697a      	ldr	r2, [r7, #20]
 80062fe:	4313      	orrs	r3, r2
 8006300:	617b      	str	r3, [r7, #20]
 8006302:	697b      	ldr	r3, [r7, #20]
 8006304:	2240      	movs	r2, #64	@ 0x40
 8006306:	4393      	bics	r3, r2
 8006308:	617b      	str	r3, [r7, #20]
 800630a:	687b      	ldr	r3, [r7, #4]
 800630c:	4a1b      	ldr	r2, [pc, #108]	@ (800637c <TIM_OC2_SetConfig+0xf0>)
 800630e:	4293      	cmp	r3, r2
 8006310:	d00b      	beq.n	800632a <TIM_OC2_SetConfig+0x9e>
 8006312:	687b      	ldr	r3, [r7, #4]
 8006314:	4a1a      	ldr	r2, [pc, #104]	@ (8006380 <TIM_OC2_SetConfig+0xf4>)
 8006316:	4293      	cmp	r3, r2
 8006318:	d007      	beq.n	800632a <TIM_OC2_SetConfig+0x9e>
 800631a:	687b      	ldr	r3, [r7, #4]
 800631c:	4a19      	ldr	r2, [pc, #100]	@ (8006384 <TIM_OC2_SetConfig+0xf8>)
 800631e:	4293      	cmp	r3, r2
 8006320:	d003      	beq.n	800632a <TIM_OC2_SetConfig+0x9e>
 8006322:	687b      	ldr	r3, [r7, #4]
 8006324:	4a18      	ldr	r2, [pc, #96]	@ (8006388 <TIM_OC2_SetConfig+0xfc>)
 8006326:	4293      	cmp	r3, r2
 8006328:	d113      	bne.n	8006352 <TIM_OC2_SetConfig+0xc6>
 800632a:	693b      	ldr	r3, [r7, #16]
 800632c:	4a17      	ldr	r2, [pc, #92]	@ (800638c <TIM_OC2_SetConfig+0x100>)
 800632e:	4013      	ands	r3, r2
 8006330:	613b      	str	r3, [r7, #16]
 8006332:	693b      	ldr	r3, [r7, #16]
 8006334:	4a16      	ldr	r2, [pc, #88]	@ (8006390 <TIM_OC2_SetConfig+0x104>)
 8006336:	4013      	ands	r3, r2
 8006338:	613b      	str	r3, [r7, #16]
 800633a:	683b      	ldr	r3, [r7, #0]
 800633c:	695b      	ldr	r3, [r3, #20]
 800633e:	009b      	lsls	r3, r3, #2
 8006340:	693a      	ldr	r2, [r7, #16]
 8006342:	4313      	orrs	r3, r2
 8006344:	613b      	str	r3, [r7, #16]
 8006346:	683b      	ldr	r3, [r7, #0]
 8006348:	699b      	ldr	r3, [r3, #24]
 800634a:	009b      	lsls	r3, r3, #2
 800634c:	693a      	ldr	r2, [r7, #16]
 800634e:	4313      	orrs	r3, r2
 8006350:	613b      	str	r3, [r7, #16]
 8006352:	687b      	ldr	r3, [r7, #4]
 8006354:	693a      	ldr	r2, [r7, #16]
 8006356:	605a      	str	r2, [r3, #4]
 8006358:	687b      	ldr	r3, [r7, #4]
 800635a:	68fa      	ldr	r2, [r7, #12]
 800635c:	619a      	str	r2, [r3, #24]
 800635e:	683b      	ldr	r3, [r7, #0]
 8006360:	685a      	ldr	r2, [r3, #4]
 8006362:	687b      	ldr	r3, [r7, #4]
 8006364:	639a      	str	r2, [r3, #56]	@ 0x38
 8006366:	687b      	ldr	r3, [r7, #4]
 8006368:	697a      	ldr	r2, [r7, #20]
 800636a:	621a      	str	r2, [r3, #32]
 800636c:	46c0      	nop			@ (mov r8, r8)
 800636e:	46bd      	mov	sp, r7
 8006370:	b006      	add	sp, #24
 8006372:	bd80      	pop	{r7, pc}
 8006374:	feff8fff 	.word	0xfeff8fff
 8006378:	fffffcff 	.word	0xfffffcff
 800637c:	40012c00 	.word	0x40012c00
 8006380:	40014000 	.word	0x40014000
 8006384:	40014400 	.word	0x40014400
 8006388:	40014800 	.word	0x40014800
 800638c:	fffffbff 	.word	0xfffffbff
 8006390:	fffff7ff 	.word	0xfffff7ff

08006394 <TIM_OC3_SetConfig>:
 8006394:	b580      	push	{r7, lr}
 8006396:	b086      	sub	sp, #24
 8006398:	af00      	add	r7, sp, #0
 800639a:	6078      	str	r0, [r7, #4]
 800639c:	6039      	str	r1, [r7, #0]
 800639e:	687b      	ldr	r3, [r7, #4]
 80063a0:	6a1b      	ldr	r3, [r3, #32]
 80063a2:	617b      	str	r3, [r7, #20]
 80063a4:	687b      	ldr	r3, [r7, #4]
 80063a6:	6a1b      	ldr	r3, [r3, #32]
 80063a8:	4a33      	ldr	r2, [pc, #204]	@ (8006478 <TIM_OC3_SetConfig+0xe4>)
 80063aa:	401a      	ands	r2, r3
 80063ac:	687b      	ldr	r3, [r7, #4]
 80063ae:	621a      	str	r2, [r3, #32]
 80063b0:	687b      	ldr	r3, [r7, #4]
 80063b2:	685b      	ldr	r3, [r3, #4]
 80063b4:	613b      	str	r3, [r7, #16]
 80063b6:	687b      	ldr	r3, [r7, #4]
 80063b8:	69db      	ldr	r3, [r3, #28]
 80063ba:	60fb      	str	r3, [r7, #12]
 80063bc:	68fb      	ldr	r3, [r7, #12]
 80063be:	4a2f      	ldr	r2, [pc, #188]	@ (800647c <TIM_OC3_SetConfig+0xe8>)
 80063c0:	4013      	ands	r3, r2
 80063c2:	60fb      	str	r3, [r7, #12]
 80063c4:	68fb      	ldr	r3, [r7, #12]
 80063c6:	2203      	movs	r2, #3
 80063c8:	4393      	bics	r3, r2
 80063ca:	60fb      	str	r3, [r7, #12]
 80063cc:	683b      	ldr	r3, [r7, #0]
 80063ce:	681b      	ldr	r3, [r3, #0]
 80063d0:	68fa      	ldr	r2, [r7, #12]
 80063d2:	4313      	orrs	r3, r2
 80063d4:	60fb      	str	r3, [r7, #12]
 80063d6:	697b      	ldr	r3, [r7, #20]
 80063d8:	4a29      	ldr	r2, [pc, #164]	@ (8006480 <TIM_OC3_SetConfig+0xec>)
 80063da:	4013      	ands	r3, r2
 80063dc:	617b      	str	r3, [r7, #20]
 80063de:	683b      	ldr	r3, [r7, #0]
 80063e0:	689b      	ldr	r3, [r3, #8]
 80063e2:	021b      	lsls	r3, r3, #8
 80063e4:	697a      	ldr	r2, [r7, #20]
 80063e6:	4313      	orrs	r3, r2
 80063e8:	617b      	str	r3, [r7, #20]
 80063ea:	687b      	ldr	r3, [r7, #4]
 80063ec:	4a25      	ldr	r2, [pc, #148]	@ (8006484 <TIM_OC3_SetConfig+0xf0>)
 80063ee:	4293      	cmp	r3, r2
 80063f0:	d10d      	bne.n	800640e <TIM_OC3_SetConfig+0x7a>
 80063f2:	697b      	ldr	r3, [r7, #20]
 80063f4:	4a24      	ldr	r2, [pc, #144]	@ (8006488 <TIM_OC3_SetConfig+0xf4>)
 80063f6:	4013      	ands	r3, r2
 80063f8:	617b      	str	r3, [r7, #20]
 80063fa:	683b      	ldr	r3, [r7, #0]
 80063fc:	68db      	ldr	r3, [r3, #12]
 80063fe:	021b      	lsls	r3, r3, #8
 8006400:	697a      	ldr	r2, [r7, #20]
 8006402:	4313      	orrs	r3, r2
 8006404:	617b      	str	r3, [r7, #20]
 8006406:	697b      	ldr	r3, [r7, #20]
 8006408:	4a20      	ldr	r2, [pc, #128]	@ (800648c <TIM_OC3_SetConfig+0xf8>)
 800640a:	4013      	ands	r3, r2
 800640c:	617b      	str	r3, [r7, #20]
 800640e:	687b      	ldr	r3, [r7, #4]
 8006410:	4a1c      	ldr	r2, [pc, #112]	@ (8006484 <TIM_OC3_SetConfig+0xf0>)
 8006412:	4293      	cmp	r3, r2
 8006414:	d00b      	beq.n	800642e <TIM_OC3_SetConfig+0x9a>
 8006416:	687b      	ldr	r3, [r7, #4]
 8006418:	4a1d      	ldr	r2, [pc, #116]	@ (8006490 <TIM_OC3_SetConfig+0xfc>)
 800641a:	4293      	cmp	r3, r2
 800641c:	d007      	beq.n	800642e <TIM_OC3_SetConfig+0x9a>
 800641e:	687b      	ldr	r3, [r7, #4]
 8006420:	4a1c      	ldr	r2, [pc, #112]	@ (8006494 <TIM_OC3_SetConfig+0x100>)
 8006422:	4293      	cmp	r3, r2
 8006424:	d003      	beq.n	800642e <TIM_OC3_SetConfig+0x9a>
 8006426:	687b      	ldr	r3, [r7, #4]
 8006428:	4a1b      	ldr	r2, [pc, #108]	@ (8006498 <TIM_OC3_SetConfig+0x104>)
 800642a:	4293      	cmp	r3, r2
 800642c:	d113      	bne.n	8006456 <TIM_OC3_SetConfig+0xc2>
 800642e:	693b      	ldr	r3, [r7, #16]
 8006430:	4a1a      	ldr	r2, [pc, #104]	@ (800649c <TIM_OC3_SetConfig+0x108>)
 8006432:	4013      	ands	r3, r2
 8006434:	613b      	str	r3, [r7, #16]
 8006436:	693b      	ldr	r3, [r7, #16]
 8006438:	4a19      	ldr	r2, [pc, #100]	@ (80064a0 <TIM_OC3_SetConfig+0x10c>)
 800643a:	4013      	ands	r3, r2
 800643c:	613b      	str	r3, [r7, #16]
 800643e:	683b      	ldr	r3, [r7, #0]
 8006440:	695b      	ldr	r3, [r3, #20]
 8006442:	011b      	lsls	r3, r3, #4
 8006444:	693a      	ldr	r2, [r7, #16]
 8006446:	4313      	orrs	r3, r2
 8006448:	613b      	str	r3, [r7, #16]
 800644a:	683b      	ldr	r3, [r7, #0]
 800644c:	699b      	ldr	r3, [r3, #24]
 800644e:	011b      	lsls	r3, r3, #4
 8006450:	693a      	ldr	r2, [r7, #16]
 8006452:	4313      	orrs	r3, r2
 8006454:	613b      	str	r3, [r7, #16]
 8006456:	687b      	ldr	r3, [r7, #4]
 8006458:	693a      	ldr	r2, [r7, #16]
 800645a:	605a      	str	r2, [r3, #4]
 800645c:	687b      	ldr	r3, [r7, #4]
 800645e:	68fa      	ldr	r2, [r7, #12]
 8006460:	61da      	str	r2, [r3, #28]
 8006462:	683b      	ldr	r3, [r7, #0]
 8006464:	685a      	ldr	r2, [r3, #4]
 8006466:	687b      	ldr	r3, [r7, #4]
 8006468:	63da      	str	r2, [r3, #60]	@ 0x3c
 800646a:	687b      	ldr	r3, [r7, #4]
 800646c:	697a      	ldr	r2, [r7, #20]
 800646e:	621a      	str	r2, [r3, #32]
 8006470:	46c0      	nop			@ (mov r8, r8)
 8006472:	46bd      	mov	sp, r7
 8006474:	b006      	add	sp, #24
 8006476:	bd80      	pop	{r7, pc}
 8006478:	fffffeff 	.word	0xfffffeff
 800647c:	fffeff8f 	.word	0xfffeff8f
 8006480:	fffffdff 	.word	0xfffffdff
 8006484:	40012c00 	.word	0x40012c00
 8006488:	fffff7ff 	.word	0xfffff7ff
 800648c:	fffffbff 	.word	0xfffffbff
 8006490:	40014000 	.word	0x40014000
 8006494:	40014400 	.word	0x40014400
 8006498:	40014800 	.word	0x40014800
 800649c:	ffffefff 	.word	0xffffefff
 80064a0:	ffffdfff 	.word	0xffffdfff

080064a4 <TIM_OC4_SetConfig>:
 80064a4:	b580      	push	{r7, lr}
 80064a6:	b086      	sub	sp, #24
 80064a8:	af00      	add	r7, sp, #0
 80064aa:	6078      	str	r0, [r7, #4]
 80064ac:	6039      	str	r1, [r7, #0]
 80064ae:	687b      	ldr	r3, [r7, #4]
 80064b0:	6a1b      	ldr	r3, [r3, #32]
 80064b2:	613b      	str	r3, [r7, #16]
 80064b4:	687b      	ldr	r3, [r7, #4]
 80064b6:	6a1b      	ldr	r3, [r3, #32]
 80064b8:	4a26      	ldr	r2, [pc, #152]	@ (8006554 <TIM_OC4_SetConfig+0xb0>)
 80064ba:	401a      	ands	r2, r3
 80064bc:	687b      	ldr	r3, [r7, #4]
 80064be:	621a      	str	r2, [r3, #32]
 80064c0:	687b      	ldr	r3, [r7, #4]
 80064c2:	685b      	ldr	r3, [r3, #4]
 80064c4:	617b      	str	r3, [r7, #20]
 80064c6:	687b      	ldr	r3, [r7, #4]
 80064c8:	69db      	ldr	r3, [r3, #28]
 80064ca:	60fb      	str	r3, [r7, #12]
 80064cc:	68fb      	ldr	r3, [r7, #12]
 80064ce:	4a22      	ldr	r2, [pc, #136]	@ (8006558 <TIM_OC4_SetConfig+0xb4>)
 80064d0:	4013      	ands	r3, r2
 80064d2:	60fb      	str	r3, [r7, #12]
 80064d4:	68fb      	ldr	r3, [r7, #12]
 80064d6:	4a21      	ldr	r2, [pc, #132]	@ (800655c <TIM_OC4_SetConfig+0xb8>)
 80064d8:	4013      	ands	r3, r2
 80064da:	60fb      	str	r3, [r7, #12]
 80064dc:	683b      	ldr	r3, [r7, #0]
 80064de:	681b      	ldr	r3, [r3, #0]
 80064e0:	021b      	lsls	r3, r3, #8
 80064e2:	68fa      	ldr	r2, [r7, #12]
 80064e4:	4313      	orrs	r3, r2
 80064e6:	60fb      	str	r3, [r7, #12]
 80064e8:	693b      	ldr	r3, [r7, #16]
 80064ea:	4a1d      	ldr	r2, [pc, #116]	@ (8006560 <TIM_OC4_SetConfig+0xbc>)
 80064ec:	4013      	ands	r3, r2
 80064ee:	613b      	str	r3, [r7, #16]
 80064f0:	683b      	ldr	r3, [r7, #0]
 80064f2:	689b      	ldr	r3, [r3, #8]
 80064f4:	031b      	lsls	r3, r3, #12
 80064f6:	693a      	ldr	r2, [r7, #16]
 80064f8:	4313      	orrs	r3, r2
 80064fa:	613b      	str	r3, [r7, #16]
 80064fc:	687b      	ldr	r3, [r7, #4]
 80064fe:	4a19      	ldr	r2, [pc, #100]	@ (8006564 <TIM_OC4_SetConfig+0xc0>)
 8006500:	4293      	cmp	r3, r2
 8006502:	d00b      	beq.n	800651c <TIM_OC4_SetConfig+0x78>
 8006504:	687b      	ldr	r3, [r7, #4]
 8006506:	4a18      	ldr	r2, [pc, #96]	@ (8006568 <TIM_OC4_SetConfig+0xc4>)
 8006508:	4293      	cmp	r3, r2
 800650a:	d007      	beq.n	800651c <TIM_OC4_SetConfig+0x78>
 800650c:	687b      	ldr	r3, [r7, #4]
 800650e:	4a17      	ldr	r2, [pc, #92]	@ (800656c <TIM_OC4_SetConfig+0xc8>)
 8006510:	4293      	cmp	r3, r2
 8006512:	d003      	beq.n	800651c <TIM_OC4_SetConfig+0x78>
 8006514:	687b      	ldr	r3, [r7, #4]
 8006516:	4a16      	ldr	r2, [pc, #88]	@ (8006570 <TIM_OC4_SetConfig+0xcc>)
 8006518:	4293      	cmp	r3, r2
 800651a:	d109      	bne.n	8006530 <TIM_OC4_SetConfig+0x8c>
 800651c:	697b      	ldr	r3, [r7, #20]
 800651e:	4a15      	ldr	r2, [pc, #84]	@ (8006574 <TIM_OC4_SetConfig+0xd0>)
 8006520:	4013      	ands	r3, r2
 8006522:	617b      	str	r3, [r7, #20]
 8006524:	683b      	ldr	r3, [r7, #0]
 8006526:	695b      	ldr	r3, [r3, #20]
 8006528:	019b      	lsls	r3, r3, #6
 800652a:	697a      	ldr	r2, [r7, #20]
 800652c:	4313      	orrs	r3, r2
 800652e:	617b      	str	r3, [r7, #20]
 8006530:	687b      	ldr	r3, [r7, #4]
 8006532:	697a      	ldr	r2, [r7, #20]
 8006534:	605a      	str	r2, [r3, #4]
 8006536:	687b      	ldr	r3, [r7, #4]
 8006538:	68fa      	ldr	r2, [r7, #12]
 800653a:	61da      	str	r2, [r3, #28]
 800653c:	683b      	ldr	r3, [r7, #0]
 800653e:	685a      	ldr	r2, [r3, #4]
 8006540:	687b      	ldr	r3, [r7, #4]
 8006542:	641a      	str	r2, [r3, #64]	@ 0x40
 8006544:	687b      	ldr	r3, [r7, #4]
 8006546:	693a      	ldr	r2, [r7, #16]
 8006548:	621a      	str	r2, [r3, #32]
 800654a:	46c0      	nop			@ (mov r8, r8)
 800654c:	46bd      	mov	sp, r7
 800654e:	b006      	add	sp, #24
 8006550:	bd80      	pop	{r7, pc}
 8006552:	46c0      	nop			@ (mov r8, r8)
 8006554:	ffffefff 	.word	0xffffefff
 8006558:	feff8fff 	.word	0xfeff8fff
 800655c:	fffffcff 	.word	0xfffffcff
 8006560:	ffffdfff 	.word	0xffffdfff
 8006564:	40012c00 	.word	0x40012c00
 8006568:	40014000 	.word	0x40014000
 800656c:	40014400 	.word	0x40014400
 8006570:	40014800 	.word	0x40014800
 8006574:	ffffbfff 	.word	0xffffbfff

08006578 <TIM_OC5_SetConfig>:
 8006578:	b580      	push	{r7, lr}
 800657a:	b086      	sub	sp, #24
 800657c:	af00      	add	r7, sp, #0
 800657e:	6078      	str	r0, [r7, #4]
 8006580:	6039      	str	r1, [r7, #0]
 8006582:	687b      	ldr	r3, [r7, #4]
 8006584:	6a1b      	ldr	r3, [r3, #32]
 8006586:	613b      	str	r3, [r7, #16]
 8006588:	687b      	ldr	r3, [r7, #4]
 800658a:	6a1b      	ldr	r3, [r3, #32]
 800658c:	4a23      	ldr	r2, [pc, #140]	@ (800661c <TIM_OC5_SetConfig+0xa4>)
 800658e:	401a      	ands	r2, r3
 8006590:	687b      	ldr	r3, [r7, #4]
 8006592:	621a      	str	r2, [r3, #32]
 8006594:	687b      	ldr	r3, [r7, #4]
 8006596:	685b      	ldr	r3, [r3, #4]
 8006598:	617b      	str	r3, [r7, #20]
 800659a:	687b      	ldr	r3, [r7, #4]
 800659c:	6d5b      	ldr	r3, [r3, #84]	@ 0x54
 800659e:	60fb      	str	r3, [r7, #12]
 80065a0:	68fb      	ldr	r3, [r7, #12]
 80065a2:	4a1f      	ldr	r2, [pc, #124]	@ (8006620 <TIM_OC5_SetConfig+0xa8>)
 80065a4:	4013      	ands	r3, r2
 80065a6:	60fb      	str	r3, [r7, #12]
 80065a8:	683b      	ldr	r3, [r7, #0]
 80065aa:	681b      	ldr	r3, [r3, #0]
 80065ac:	68fa      	ldr	r2, [r7, #12]
 80065ae:	4313      	orrs	r3, r2
 80065b0:	60fb      	str	r3, [r7, #12]
 80065b2:	693b      	ldr	r3, [r7, #16]
 80065b4:	4a1b      	ldr	r2, [pc, #108]	@ (8006624 <TIM_OC5_SetConfig+0xac>)
 80065b6:	4013      	ands	r3, r2
 80065b8:	613b      	str	r3, [r7, #16]
 80065ba:	683b      	ldr	r3, [r7, #0]
 80065bc:	689b      	ldr	r3, [r3, #8]
 80065be:	041b      	lsls	r3, r3, #16
 80065c0:	693a      	ldr	r2, [r7, #16]
 80065c2:	4313      	orrs	r3, r2
 80065c4:	613b      	str	r3, [r7, #16]
 80065c6:	687b      	ldr	r3, [r7, #4]
 80065c8:	4a17      	ldr	r2, [pc, #92]	@ (8006628 <TIM_OC5_SetConfig+0xb0>)
 80065ca:	4293      	cmp	r3, r2
 80065cc:	d00b      	beq.n	80065e6 <TIM_OC5_SetConfig+0x6e>
 80065ce:	687b      	ldr	r3, [r7, #4]
 80065d0:	4a16      	ldr	r2, [pc, #88]	@ (800662c <TIM_OC5_SetConfig+0xb4>)
 80065d2:	4293      	cmp	r3, r2
 80065d4:	d007      	beq.n	80065e6 <TIM_OC5_SetConfig+0x6e>
 80065d6:	687b      	ldr	r3, [r7, #4]
 80065d8:	4a15      	ldr	r2, [pc, #84]	@ (8006630 <TIM_OC5_SetConfig+0xb8>)
 80065da:	4293      	cmp	r3, r2
 80065dc:	d003      	beq.n	80065e6 <TIM_OC5_SetConfig+0x6e>
 80065de:	687b      	ldr	r3, [r7, #4]
 80065e0:	4a14      	ldr	r2, [pc, #80]	@ (8006634 <TIM_OC5_SetConfig+0xbc>)
 80065e2:	4293      	cmp	r3, r2
 80065e4:	d109      	bne.n	80065fa <TIM_OC5_SetConfig+0x82>
 80065e6:	697b      	ldr	r3, [r7, #20]
 80065e8:	4a0c      	ldr	r2, [pc, #48]	@ (800661c <TIM_OC5_SetConfig+0xa4>)
 80065ea:	4013      	ands	r3, r2
 80065ec:	617b      	str	r3, [r7, #20]
 80065ee:	683b      	ldr	r3, [r7, #0]
 80065f0:	695b      	ldr	r3, [r3, #20]
 80065f2:	021b      	lsls	r3, r3, #8
 80065f4:	697a      	ldr	r2, [r7, #20]
 80065f6:	4313      	orrs	r3, r2
 80065f8:	617b      	str	r3, [r7, #20]
 80065fa:	687b      	ldr	r3, [r7, #4]
 80065fc:	697a      	ldr	r2, [r7, #20]
 80065fe:	605a      	str	r2, [r3, #4]
 8006600:	687b      	ldr	r3, [r7, #4]
 8006602:	68fa      	ldr	r2, [r7, #12]
 8006604:	655a      	str	r2, [r3, #84]	@ 0x54
 8006606:	683b      	ldr	r3, [r7, #0]
 8006608:	685a      	ldr	r2, [r3, #4]
 800660a:	687b      	ldr	r3, [r7, #4]
 800660c:	659a      	str	r2, [r3, #88]	@ 0x58
 800660e:	687b      	ldr	r3, [r7, #4]
 8006610:	693a      	ldr	r2, [r7, #16]
 8006612:	621a      	str	r2, [r3, #32]
 8006614:	46c0      	nop			@ (mov r8, r8)
 8006616:	46bd      	mov	sp, r7
 8006618:	b006      	add	sp, #24
 800661a:	bd80      	pop	{r7, pc}
 800661c:	fffeffff 	.word	0xfffeffff
 8006620:	fffeff8f 	.word	0xfffeff8f
 8006624:	fffdffff 	.word	0xfffdffff
 8006628:	40012c00 	.word	0x40012c00
 800662c:	40014000 	.word	0x40014000
 8006630:	40014400 	.word	0x40014400
 8006634:	40014800 	.word	0x40014800

08006638 <TIM_OC6_SetConfig>:
 8006638:	b580      	push	{r7, lr}
 800663a:	b086      	sub	sp, #24
 800663c:	af00      	add	r7, sp, #0
 800663e:	6078      	str	r0, [r7, #4]
 8006640:	6039      	str	r1, [r7, #0]
 8006642:	687b      	ldr	r3, [r7, #4]
 8006644:	6a1b      	ldr	r3, [r3, #32]
 8006646:	613b      	str	r3, [r7, #16]
 8006648:	687b      	ldr	r3, [r7, #4]
 800664a:	6a1b      	ldr	r3, [r3, #32]
 800664c:	4a24      	ldr	r2, [pc, #144]	@ (80066e0 <TIM_OC6_SetConfig+0xa8>)
 800664e:	401a      	ands	r2, r3
 8006650:	687b      	ldr	r3, [r7, #4]
 8006652:	621a      	str	r2, [r3, #32]
 8006654:	687b      	ldr	r3, [r7, #4]
 8006656:	685b      	ldr	r3, [r3, #4]
 8006658:	617b      	str	r3, [r7, #20]
 800665a:	687b      	ldr	r3, [r7, #4]
 800665c:	6d5b      	ldr	r3, [r3, #84]	@ 0x54
 800665e:	60fb      	str	r3, [r7, #12]
 8006660:	68fb      	ldr	r3, [r7, #12]
 8006662:	4a20      	ldr	r2, [pc, #128]	@ (80066e4 <TIM_OC6_SetConfig+0xac>)
 8006664:	4013      	ands	r3, r2
 8006666:	60fb      	str	r3, [r7, #12]
 8006668:	683b      	ldr	r3, [r7, #0]
 800666a:	681b      	ldr	r3, [r3, #0]
 800666c:	021b      	lsls	r3, r3, #8
 800666e:	68fa      	ldr	r2, [r7, #12]
 8006670:	4313      	orrs	r3, r2
 8006672:	60fb      	str	r3, [r7, #12]
 8006674:	693b      	ldr	r3, [r7, #16]
 8006676:	4a1c      	ldr	r2, [pc, #112]	@ (80066e8 <TIM_OC6_SetConfig+0xb0>)
 8006678:	4013      	ands	r3, r2
 800667a:	613b      	str	r3, [r7, #16]
 800667c:	683b      	ldr	r3, [r7, #0]
 800667e:	689b      	ldr	r3, [r3, #8]
 8006680:	051b      	lsls	r3, r3, #20
 8006682:	693a      	ldr	r2, [r7, #16]
 8006684:	4313      	orrs	r3, r2
 8006686:	613b      	str	r3, [r7, #16]
 8006688:	687b      	ldr	r3, [r7, #4]
 800668a:	4a18      	ldr	r2, [pc, #96]	@ (80066ec <TIM_OC6_SetConfig+0xb4>)
 800668c:	4293      	cmp	r3, r2
 800668e:	d00b      	beq.n	80066a8 <TIM_OC6_SetConfig+0x70>
 8006690:	687b      	ldr	r3, [r7, #4]
 8006692:	4a17      	ldr	r2, [pc, #92]	@ (80066f0 <TIM_OC6_SetConfig+0xb8>)
 8006694:	4293      	cmp	r3, r2
 8006696:	d007      	beq.n	80066a8 <TIM_OC6_SetConfig+0x70>
 8006698:	687b      	ldr	r3, [r7, #4]
 800669a:	4a16      	ldr	r2, [pc, #88]	@ (80066f4 <TIM_OC6_SetConfig+0xbc>)
 800669c:	4293      	cmp	r3, r2
 800669e:	d003      	beq.n	80066a8 <TIM_OC6_SetConfig+0x70>
 80066a0:	687b      	ldr	r3, [r7, #4]
 80066a2:	4a15      	ldr	r2, [pc, #84]	@ (80066f8 <TIM_OC6_SetConfig+0xc0>)
 80066a4:	4293      	cmp	r3, r2
 80066a6:	d109      	bne.n	80066bc <TIM_OC6_SetConfig+0x84>
 80066a8:	697b      	ldr	r3, [r7, #20]
 80066aa:	4a14      	ldr	r2, [pc, #80]	@ (80066fc <TIM_OC6_SetConfig+0xc4>)
 80066ac:	4013      	ands	r3, r2
 80066ae:	617b      	str	r3, [r7, #20]
 80066b0:	683b      	ldr	r3, [r7, #0]
 80066b2:	695b      	ldr	r3, [r3, #20]
 80066b4:	029b      	lsls	r3, r3, #10
 80066b6:	697a      	ldr	r2, [r7, #20]
 80066b8:	4313      	orrs	r3, r2
 80066ba:	617b      	str	r3, [r7, #20]
 80066bc:	687b      	ldr	r3, [r7, #4]
 80066be:	697a      	ldr	r2, [r7, #20]
 80066c0:	605a      	str	r2, [r3, #4]
 80066c2:	687b      	ldr	r3, [r7, #4]
 80066c4:	68fa      	ldr	r2, [r7, #12]
 80066c6:	655a      	str	r2, [r3, #84]	@ 0x54
 80066c8:	683b      	ldr	r3, [r7, #0]
 80066ca:	685a      	ldr	r2, [r3, #4]
 80066cc:	687b      	ldr	r3, [r7, #4]
 80066ce:	65da      	str	r2, [r3, #92]	@ 0x5c
 80066d0:	687b      	ldr	r3, [r7, #4]
 80066d2:	693a      	ldr	r2, [r7, #16]
 80066d4:	621a      	str	r2, [r3, #32]
 80066d6:	46c0      	nop			@ (mov r8, r8)
 80066d8:	46bd      	mov	sp, r7
 80066da:	b006      	add	sp, #24
 80066dc:	bd80      	pop	{r7, pc}
 80066de:	46c0      	nop			@ (mov r8, r8)
 80066e0:	ffefffff 	.word	0xffefffff
 80066e4:	feff8fff 	.word	0xfeff8fff
 80066e8:	ffdfffff 	.word	0xffdfffff
 80066ec:	40012c00 	.word	0x40012c00
 80066f0:	40014000 	.word	0x40014000
 80066f4:	40014400 	.word	0x40014400
 80066f8:	40014800 	.word	0x40014800
 80066fc:	fffbffff 	.word	0xfffbffff

08006700 <TIM_CCxChannelCmd>:
 8006700:	b580      	push	{r7, lr}
 8006702:	b086      	sub	sp, #24
 8006704:	af00      	add	r7, sp, #0
 8006706:	60f8      	str	r0, [r7, #12]
 8006708:	60b9      	str	r1, [r7, #8]
 800670a:	607a      	str	r2, [r7, #4]
 800670c:	68bb      	ldr	r3, [r7, #8]
 800670e:	221f      	movs	r2, #31
 8006710:	4013      	ands	r3, r2
 8006712:	2201      	movs	r2, #1
 8006714:	409a      	lsls	r2, r3
 8006716:	0013      	movs	r3, r2
 8006718:	617b      	str	r3, [r7, #20]
 800671a:	68fb      	ldr	r3, [r7, #12]
 800671c:	6a1b      	ldr	r3, [r3, #32]
 800671e:	697a      	ldr	r2, [r7, #20]
 8006720:	43d2      	mvns	r2, r2
 8006722:	401a      	ands	r2, r3
 8006724:	68fb      	ldr	r3, [r7, #12]
 8006726:	621a      	str	r2, [r3, #32]
 8006728:	68fb      	ldr	r3, [r7, #12]
 800672a:	6a1a      	ldr	r2, [r3, #32]
 800672c:	68bb      	ldr	r3, [r7, #8]
 800672e:	211f      	movs	r1, #31
 8006730:	400b      	ands	r3, r1
 8006732:	6879      	ldr	r1, [r7, #4]
 8006734:	4099      	lsls	r1, r3
 8006736:	000b      	movs	r3, r1
 8006738:	431a      	orrs	r2, r3
 800673a:	68fb      	ldr	r3, [r7, #12]
 800673c:	621a      	str	r2, [r3, #32]
 800673e:	46c0      	nop			@ (mov r8, r8)
 8006740:	46bd      	mov	sp, r7
 8006742:	b006      	add	sp, #24
 8006744:	bd80      	pop	{r7, pc}
	...

08006748 <HAL_TIMEx_ConfigBreakDeadTime>:
 8006748:	b580      	push	{r7, lr}
 800674a:	b084      	sub	sp, #16
 800674c:	af00      	add	r7, sp, #0
 800674e:	6078      	str	r0, [r7, #4]
 8006750:	6039      	str	r1, [r7, #0]
 8006752:	2300      	movs	r3, #0
 8006754:	60fb      	str	r3, [r7, #12]
 8006756:	687b      	ldr	r3, [r7, #4]
 8006758:	223c      	movs	r2, #60	@ 0x3c
 800675a:	5c9b      	ldrb	r3, [r3, r2]
 800675c:	2b01      	cmp	r3, #1
 800675e:	d101      	bne.n	8006764 <HAL_TIMEx_ConfigBreakDeadTime+0x1c>
 8006760:	2302      	movs	r3, #2
 8006762:	e06f      	b.n	8006844 <HAL_TIMEx_ConfigBreakDeadTime+0xfc>
 8006764:	687b      	ldr	r3, [r7, #4]
 8006766:	223c      	movs	r2, #60	@ 0x3c
 8006768:	2101      	movs	r1, #1
 800676a:	5499      	strb	r1, [r3, r2]
 800676c:	68fb      	ldr	r3, [r7, #12]
 800676e:	22ff      	movs	r2, #255	@ 0xff
 8006770:	4393      	bics	r3, r2
 8006772:	001a      	movs	r2, r3
 8006774:	683b      	ldr	r3, [r7, #0]
 8006776:	68db      	ldr	r3, [r3, #12]
 8006778:	4313      	orrs	r3, r2
 800677a:	60fb      	str	r3, [r7, #12]
 800677c:	68fb      	ldr	r3, [r7, #12]
 800677e:	4a33      	ldr	r2, [pc, #204]	@ (800684c <HAL_TIMEx_ConfigBreakDeadTime+0x104>)
 8006780:	401a      	ands	r2, r3
 8006782:	683b      	ldr	r3, [r7, #0]
 8006784:	689b      	ldr	r3, [r3, #8]
 8006786:	4313      	orrs	r3, r2
 8006788:	60fb      	str	r3, [r7, #12]
 800678a:	68fb      	ldr	r3, [r7, #12]
 800678c:	4a30      	ldr	r2, [pc, #192]	@ (8006850 <HAL_TIMEx_ConfigBreakDeadTime+0x108>)
 800678e:	401a      	ands	r2, r3
 8006790:	683b      	ldr	r3, [r7, #0]
 8006792:	685b      	ldr	r3, [r3, #4]
 8006794:	4313      	orrs	r3, r2
 8006796:	60fb      	str	r3, [r7, #12]
 8006798:	68fb      	ldr	r3, [r7, #12]
 800679a:	4a2e      	ldr	r2, [pc, #184]	@ (8006854 <HAL_TIMEx_ConfigBreakDeadTime+0x10c>)
 800679c:	401a      	ands	r2, r3
 800679e:	683b      	ldr	r3, [r7, #0]
 80067a0:	681b      	ldr	r3, [r3, #0]
 80067a2:	4313      	orrs	r3, r2
 80067a4:	60fb      	str	r3, [r7, #12]
 80067a6:	68fb      	ldr	r3, [r7, #12]
 80067a8:	4a2b      	ldr	r2, [pc, #172]	@ (8006858 <HAL_TIMEx_ConfigBreakDeadTime+0x110>)
 80067aa:	401a      	ands	r2, r3
 80067ac:	683b      	ldr	r3, [r7, #0]
 80067ae:	691b      	ldr	r3, [r3, #16]
 80067b0:	4313      	orrs	r3, r2
 80067b2:	60fb      	str	r3, [r7, #12]
 80067b4:	68fb      	ldr	r3, [r7, #12]
 80067b6:	4a29      	ldr	r2, [pc, #164]	@ (800685c <HAL_TIMEx_ConfigBreakDeadTime+0x114>)
 80067b8:	401a      	ands	r2, r3
 80067ba:	683b      	ldr	r3, [r7, #0]
 80067bc:	695b      	ldr	r3, [r3, #20]
 80067be:	4313      	orrs	r3, r2
 80067c0:	60fb      	str	r3, [r7, #12]
 80067c2:	68fb      	ldr	r3, [r7, #12]
 80067c4:	4a26      	ldr	r2, [pc, #152]	@ (8006860 <HAL_TIMEx_ConfigBreakDeadTime+0x118>)
 80067c6:	401a      	ands	r2, r3
 80067c8:	683b      	ldr	r3, [r7, #0]
 80067ca:	6b1b      	ldr	r3, [r3, #48]	@ 0x30
 80067cc:	4313      	orrs	r3, r2
 80067ce:	60fb      	str	r3, [r7, #12]
 80067d0:	68fb      	ldr	r3, [r7, #12]
 80067d2:	4a24      	ldr	r2, [pc, #144]	@ (8006864 <HAL_TIMEx_ConfigBreakDeadTime+0x11c>)
 80067d4:	401a      	ands	r2, r3
 80067d6:	683b      	ldr	r3, [r7, #0]
 80067d8:	699b      	ldr	r3, [r3, #24]
 80067da:	041b      	lsls	r3, r3, #16
 80067dc:	4313      	orrs	r3, r2
 80067de:	60fb      	str	r3, [r7, #12]
 80067e0:	68fb      	ldr	r3, [r7, #12]
 80067e2:	4a21      	ldr	r2, [pc, #132]	@ (8006868 <HAL_TIMEx_ConfigBreakDeadTime+0x120>)
 80067e4:	401a      	ands	r2, r3
 80067e6:	683b      	ldr	r3, [r7, #0]
 80067e8:	69db      	ldr	r3, [r3, #28]
 80067ea:	4313      	orrs	r3, r2
 80067ec:	60fb      	str	r3, [r7, #12]
 80067ee:	687b      	ldr	r3, [r7, #4]
 80067f0:	681b      	ldr	r3, [r3, #0]
 80067f2:	4a1e      	ldr	r2, [pc, #120]	@ (800686c <HAL_TIMEx_ConfigBreakDeadTime+0x124>)
 80067f4:	4293      	cmp	r3, r2
 80067f6:	d11c      	bne.n	8006832 <HAL_TIMEx_ConfigBreakDeadTime+0xea>
 80067f8:	68fb      	ldr	r3, [r7, #12]
 80067fa:	4a1d      	ldr	r2, [pc, #116]	@ (8006870 <HAL_TIMEx_ConfigBreakDeadTime+0x128>)
 80067fc:	401a      	ands	r2, r3
 80067fe:	683b      	ldr	r3, [r7, #0]
 8006800:	6a9b      	ldr	r3, [r3, #40]	@ 0x28
 8006802:	051b      	lsls	r3, r3, #20
 8006804:	4313      	orrs	r3, r2
 8006806:	60fb      	str	r3, [r7, #12]
 8006808:	68fb      	ldr	r3, [r7, #12]
 800680a:	4a1a      	ldr	r2, [pc, #104]	@ (8006874 <HAL_TIMEx_ConfigBreakDeadTime+0x12c>)
 800680c:	401a      	ands	r2, r3
 800680e:	683b      	ldr	r3, [r7, #0]
 8006810:	6a1b      	ldr	r3, [r3, #32]
 8006812:	4313      	orrs	r3, r2
 8006814:	60fb      	str	r3, [r7, #12]
 8006816:	68fb      	ldr	r3, [r7, #12]
 8006818:	4a17      	ldr	r2, [pc, #92]	@ (8006878 <HAL_TIMEx_ConfigBreakDeadTime+0x130>)
 800681a:	401a      	ands	r2, r3
 800681c:	683b      	ldr	r3, [r7, #0]
 800681e:	6a5b      	ldr	r3, [r3, #36]	@ 0x24
 8006820:	4313      	orrs	r3, r2
 8006822:	60fb      	str	r3, [r7, #12]
 8006824:	68fb      	ldr	r3, [r7, #12]
 8006826:	4a15      	ldr	r2, [pc, #84]	@ (800687c <HAL_TIMEx_ConfigBreakDeadTime+0x134>)
 8006828:	401a      	ands	r2, r3
 800682a:	683b      	ldr	r3, [r7, #0]
 800682c:	6adb      	ldr	r3, [r3, #44]	@ 0x2c
 800682e:	4313      	orrs	r3, r2
 8006830:	60fb      	str	r3, [r7, #12]
 8006832:	687b      	ldr	r3, [r7, #4]
 8006834:	681b      	ldr	r3, [r3, #0]
 8006836:	68fa      	ldr	r2, [r7, #12]
 8006838:	645a      	str	r2, [r3, #68]	@ 0x44
 800683a:	687b      	ldr	r3, [r7, #4]
 800683c:	223c      	movs	r2, #60	@ 0x3c
 800683e:	2100      	movs	r1, #0
 8006840:	5499      	strb	r1, [r3, r2]
 8006842:	2300      	movs	r3, #0
 8006844:	0018      	movs	r0, r3
 8006846:	46bd      	mov	sp, r7
 8006848:	b004      	add	sp, #16
 800684a:	bd80      	pop	{r7, pc}
 800684c:	fffffcff 	.word	0xfffffcff
 8006850:	fffffbff 	.word	0xfffffbff
 8006854:	fffff7ff 	.word	0xfffff7ff
 8006858:	ffffefff 	.word	0xffffefff
 800685c:	ffffdfff 	.word	0xffffdfff
 8006860:	ffffbfff 	.word	0xffffbfff
 8006864:	fff0ffff 	.word	0xfff0ffff
 8006868:	efffffff 	.word	0xefffffff
 800686c:	40012c00 	.word	0x40012c00
 8006870:	ff0fffff 	.word	0xff0fffff
 8006874:	feffffff 	.word	0xfeffffff
 8006878:	fdffffff 	.word	0xfdffffff
 800687c:	dfffffff 	.word	0xdfffffff

08006880 <HAL_UART_Init>:
 8006880:	b580      	push	{r7, lr}
 8006882:	b082      	sub	sp, #8
 8006884:	af00      	add	r7, sp, #0
 8006886:	6078      	str	r0, [r7, #4]
 8006888:	687b      	ldr	r3, [r7, #4]
 800688a:	2b00      	cmp	r3, #0
 800688c:	d101      	bne.n	8006892 <HAL_UART_Init+0x12>
 800688e:	2301      	movs	r3, #1
 8006890:	e046      	b.n	8006920 <HAL_UART_Init+0xa0>
 8006892:	687b      	ldr	r3, [r7, #4]
 8006894:	2288      	movs	r2, #136	@ 0x88
 8006896:	589b      	ldr	r3, [r3, r2]
 8006898:	2b00      	cmp	r3, #0
 800689a:	d107      	bne.n	80068ac <HAL_UART_Init+0x2c>
 800689c:	687b      	ldr	r3, [r7, #4]
 800689e:	2284      	movs	r2, #132	@ 0x84
 80068a0:	2100      	movs	r1, #0
 80068a2:	5499      	strb	r1, [r3, r2]
 80068a4:	687b      	ldr	r3, [r7, #4]
 80068a6:	0018      	movs	r0, r3
 80068a8:	f7fc f82a 	bl	8002900 <HAL_UART_MspInit>
 80068ac:	687b      	ldr	r3, [r7, #4]
 80068ae:	2288      	movs	r2, #136	@ 0x88
 80068b0:	2124      	movs	r1, #36	@ 0x24
 80068b2:	5099      	str	r1, [r3, r2]
 80068b4:	687b      	ldr	r3, [r7, #4]
 80068b6:	681b      	ldr	r3, [r3, #0]
 80068b8:	681a      	ldr	r2, [r3, #0]
 80068ba:	687b      	ldr	r3, [r7, #4]
 80068bc:	681b      	ldr	r3, [r3, #0]
 80068be:	2101      	movs	r1, #1
 80068c0:	438a      	bics	r2, r1
 80068c2:	601a      	str	r2, [r3, #0]
 80068c4:	687b      	ldr	r3, [r7, #4]
 80068c6:	6a9b      	ldr	r3, [r3, #40]	@ 0x28
 80068c8:	2b00      	cmp	r3, #0
 80068ca:	d003      	beq.n	80068d4 <HAL_UART_Init+0x54>
 80068cc:	687b      	ldr	r3, [r7, #4]
 80068ce:	0018      	movs	r0, r3
 80068d0:	f000 fb82 	bl	8006fd8 <UART_AdvFeatureConfig>
 80068d4:	687b      	ldr	r3, [r7, #4]
 80068d6:	0018      	movs	r0, r3
 80068d8:	f000 f828 	bl	800692c <UART_SetConfig>
 80068dc:	0003      	movs	r3, r0
 80068de:	2b01      	cmp	r3, #1
 80068e0:	d101      	bne.n	80068e6 <HAL_UART_Init+0x66>
 80068e2:	2301      	movs	r3, #1
 80068e4:	e01c      	b.n	8006920 <HAL_UART_Init+0xa0>
 80068e6:	687b      	ldr	r3, [r7, #4]
 80068e8:	681b      	ldr	r3, [r3, #0]
 80068ea:	685a      	ldr	r2, [r3, #4]
 80068ec:	687b      	ldr	r3, [r7, #4]
 80068ee:	681b      	ldr	r3, [r3, #0]
 80068f0:	490d      	ldr	r1, [pc, #52]	@ (8006928 <HAL_UART_Init+0xa8>)
 80068f2:	400a      	ands	r2, r1
 80068f4:	605a      	str	r2, [r3, #4]
 80068f6:	687b      	ldr	r3, [r7, #4]
 80068f8:	681b      	ldr	r3, [r3, #0]
 80068fa:	689a      	ldr	r2, [r3, #8]
 80068fc:	687b      	ldr	r3, [r7, #4]
 80068fe:	681b      	ldr	r3, [r3, #0]
 8006900:	212a      	movs	r1, #42	@ 0x2a
 8006902:	438a      	bics	r2, r1
 8006904:	609a      	str	r2, [r3, #8]
 8006906:	687b      	ldr	r3, [r7, #4]
 8006908:	681b      	ldr	r3, [r3, #0]
 800690a:	681a      	ldr	r2, [r3, #0]
 800690c:	687b      	ldr	r3, [r7, #4]
 800690e:	681b      	ldr	r3, [r3, #0]
 8006910:	2101      	movs	r1, #1
 8006912:	430a      	orrs	r2, r1
 8006914:	601a      	str	r2, [r3, #0]
 8006916:	687b      	ldr	r3, [r7, #4]
 8006918:	0018      	movs	r0, r3
 800691a:	f000 fc11 	bl	8007140 <UART_CheckIdleState>
 800691e:	0003      	movs	r3, r0
 8006920:	0018      	movs	r0, r3
 8006922:	46bd      	mov	sp, r7
 8006924:	b002      	add	sp, #8
 8006926:	bd80      	pop	{r7, pc}
 8006928:	ffffb7ff 	.word	0xffffb7ff

0800692c <UART_SetConfig>:
 800692c:	b5b0      	push	{r4, r5, r7, lr}
 800692e:	b090      	sub	sp, #64	@ 0x40
 8006930:	af00      	add	r7, sp, #0
 8006932:	6278      	str	r0, [r7, #36]	@ 0x24
 8006934:	231a      	movs	r3, #26
 8006936:	2220      	movs	r2, #32
 8006938:	189b      	adds	r3, r3, r2
 800693a:	19db      	adds	r3, r3, r7
 800693c:	2200      	movs	r2, #0
 800693e:	701a      	strb	r2, [r3, #0]
 8006940:	6a7b      	ldr	r3, [r7, #36]	@ 0x24
 8006942:	689a      	ldr	r2, [r3, #8]
 8006944:	6a7b      	ldr	r3, [r7, #36]	@ 0x24
 8006946:	691b      	ldr	r3, [r3, #16]
 8006948:	431a      	orrs	r2, r3
 800694a:	6a7b      	ldr	r3, [r7, #36]	@ 0x24
 800694c:	695b      	ldr	r3, [r3, #20]
 800694e:	431a      	orrs	r2, r3
 8006950:	6a7b      	ldr	r3, [r7, #36]	@ 0x24
 8006952:	69db      	ldr	r3, [r3, #28]
 8006954:	4313      	orrs	r3, r2
 8006956:	63fb      	str	r3, [r7, #60]	@ 0x3c
 8006958:	6a7b      	ldr	r3, [r7, #36]	@ 0x24
 800695a:	681b      	ldr	r3, [r3, #0]
 800695c:	681b      	ldr	r3, [r3, #0]
 800695e:	4ac1      	ldr	r2, [pc, #772]	@ (8006c64 <UART_SetConfig+0x338>)
 8006960:	4013      	ands	r3, r2
 8006962:	0019      	movs	r1, r3
 8006964:	6a7b      	ldr	r3, [r7, #36]	@ 0x24
 8006966:	681a      	ldr	r2, [r3, #0]
 8006968:	6bfb      	ldr	r3, [r7, #60]	@ 0x3c
 800696a:	430b      	orrs	r3, r1
 800696c:	6013      	str	r3, [r2, #0]
 800696e:	6a7b      	ldr	r3, [r7, #36]	@ 0x24
 8006970:	681b      	ldr	r3, [r3, #0]
 8006972:	685b      	ldr	r3, [r3, #4]
 8006974:	4abc      	ldr	r2, [pc, #752]	@ (8006c68 <UART_SetConfig+0x33c>)
 8006976:	4013      	ands	r3, r2
 8006978:	0018      	movs	r0, r3
 800697a:	6a7b      	ldr	r3, [r7, #36]	@ 0x24
 800697c:	68d9      	ldr	r1, [r3, #12]
 800697e:	6a7b      	ldr	r3, [r7, #36]	@ 0x24
 8006980:	681a      	ldr	r2, [r3, #0]
 8006982:	0003      	movs	r3, r0
 8006984:	430b      	orrs	r3, r1
 8006986:	6053      	str	r3, [r2, #4]
 8006988:	6a7b      	ldr	r3, [r7, #36]	@ 0x24
 800698a:	699b      	ldr	r3, [r3, #24]
 800698c:	63fb      	str	r3, [r7, #60]	@ 0x3c
 800698e:	6a7b      	ldr	r3, [r7, #36]	@ 0x24
 8006990:	681b      	ldr	r3, [r3, #0]
 8006992:	4ab6      	ldr	r2, [pc, #728]	@ (8006c6c <UART_SetConfig+0x340>)
 8006994:	4293      	cmp	r3, r2
 8006996:	d009      	beq.n	80069ac <UART_SetConfig+0x80>
 8006998:	6a7b      	ldr	r3, [r7, #36]	@ 0x24
 800699a:	681b      	ldr	r3, [r3, #0]
 800699c:	4ab4      	ldr	r2, [pc, #720]	@ (8006c70 <UART_SetConfig+0x344>)
 800699e:	4293      	cmp	r3, r2
 80069a0:	d004      	beq.n	80069ac <UART_SetConfig+0x80>
 80069a2:	6a7b      	ldr	r3, [r7, #36]	@ 0x24
 80069a4:	6a1b      	ldr	r3, [r3, #32]
 80069a6:	6bfa      	ldr	r2, [r7, #60]	@ 0x3c
 80069a8:	4313      	orrs	r3, r2
 80069aa:	63fb      	str	r3, [r7, #60]	@ 0x3c
 80069ac:	6a7b      	ldr	r3, [r7, #36]	@ 0x24
 80069ae:	681b      	ldr	r3, [r3, #0]
 80069b0:	689b      	ldr	r3, [r3, #8]
 80069b2:	4ab0      	ldr	r2, [pc, #704]	@ (8006c74 <UART_SetConfig+0x348>)
 80069b4:	4013      	ands	r3, r2
 80069b6:	0019      	movs	r1, r3
 80069b8:	6a7b      	ldr	r3, [r7, #36]	@ 0x24
 80069ba:	681a      	ldr	r2, [r3, #0]
 80069bc:	6bfb      	ldr	r3, [r7, #60]	@ 0x3c
 80069be:	430b      	orrs	r3, r1
 80069c0:	6093      	str	r3, [r2, #8]
 80069c2:	6a7b      	ldr	r3, [r7, #36]	@ 0x24
 80069c4:	681b      	ldr	r3, [r3, #0]
 80069c6:	6adb      	ldr	r3, [r3, #44]	@ 0x2c
 80069c8:	220f      	movs	r2, #15
 80069ca:	4393      	bics	r3, r2
 80069cc:	0018      	movs	r0, r3
 80069ce:	6a7b      	ldr	r3, [r7, #36]	@ 0x24
 80069d0:	6a59      	ldr	r1, [r3, #36]	@ 0x24
 80069d2:	6a7b      	ldr	r3, [r7, #36]	@ 0x24
 80069d4:	681a      	ldr	r2, [r3, #0]
 80069d6:	0003      	movs	r3, r0
 80069d8:	430b      	orrs	r3, r1
 80069da:	62d3      	str	r3, [r2, #44]	@ 0x2c
 80069dc:	6a7b      	ldr	r3, [r7, #36]	@ 0x24
 80069de:	681b      	ldr	r3, [r3, #0]
 80069e0:	4aa5      	ldr	r2, [pc, #660]	@ (8006c78 <UART_SetConfig+0x34c>)
 80069e2:	4293      	cmp	r3, r2
 80069e4:	d131      	bne.n	8006a4a <UART_SetConfig+0x11e>
 80069e6:	4ba5      	ldr	r3, [pc, #660]	@ (8006c7c <UART_SetConfig+0x350>)
 80069e8:	6d5b      	ldr	r3, [r3, #84]	@ 0x54
 80069ea:	2203      	movs	r2, #3
 80069ec:	4013      	ands	r3, r2
 80069ee:	2b03      	cmp	r3, #3
 80069f0:	d01d      	beq.n	8006a2e <UART_SetConfig+0x102>
 80069f2:	d823      	bhi.n	8006a3c <UART_SetConfig+0x110>
 80069f4:	2b02      	cmp	r3, #2
 80069f6:	d00c      	beq.n	8006a12 <UART_SetConfig+0xe6>
 80069f8:	d820      	bhi.n	8006a3c <UART_SetConfig+0x110>
 80069fa:	2b00      	cmp	r3, #0
 80069fc:	d002      	beq.n	8006a04 <UART_SetConfig+0xd8>
 80069fe:	2b01      	cmp	r3, #1
 8006a00:	d00e      	beq.n	8006a20 <UART_SetConfig+0xf4>
 8006a02:	e01b      	b.n	8006a3c <UART_SetConfig+0x110>
 8006a04:	231b      	movs	r3, #27
 8006a06:	2220      	movs	r2, #32
 8006a08:	189b      	adds	r3, r3, r2
 8006a0a:	19db      	adds	r3, r3, r7
 8006a0c:	2200      	movs	r2, #0
 8006a0e:	701a      	strb	r2, [r3, #0]
 8006a10:	e154      	b.n	8006cbc <UART_SetConfig+0x390>
 8006a12:	231b      	movs	r3, #27
 8006a14:	2220      	movs	r2, #32
 8006a16:	189b      	adds	r3, r3, r2
 8006a18:	19db      	adds	r3, r3, r7
 8006a1a:	2202      	movs	r2, #2
 8006a1c:	701a      	strb	r2, [r3, #0]
 8006a1e:	e14d      	b.n	8006cbc <UART_SetConfig+0x390>
 8006a20:	231b      	movs	r3, #27
 8006a22:	2220      	movs	r2, #32
 8006a24:	189b      	adds	r3, r3, r2
 8006a26:	19db      	adds	r3, r3, r7
 8006a28:	2204      	movs	r2, #4
 8006a2a:	701a      	strb	r2, [r3, #0]
 8006a2c:	e146      	b.n	8006cbc <UART_SetConfig+0x390>
 8006a2e:	231b      	movs	r3, #27
 8006a30:	2220      	movs	r2, #32
 8006a32:	189b      	adds	r3, r3, r2
 8006a34:	19db      	adds	r3, r3, r7
 8006a36:	2208      	movs	r2, #8
 8006a38:	701a      	strb	r2, [r3, #0]
 8006a3a:	e13f      	b.n	8006cbc <UART_SetConfig+0x390>
 8006a3c:	231b      	movs	r3, #27
 8006a3e:	2220      	movs	r2, #32
 8006a40:	189b      	adds	r3, r3, r2
 8006a42:	19db      	adds	r3, r3, r7
 8006a44:	2210      	movs	r2, #16
 8006a46:	701a      	strb	r2, [r3, #0]
 8006a48:	e138      	b.n	8006cbc <UART_SetConfig+0x390>
 8006a4a:	6a7b      	ldr	r3, [r7, #36]	@ 0x24
 8006a4c:	681b      	ldr	r3, [r3, #0]
 8006a4e:	4a8c      	ldr	r2, [pc, #560]	@ (8006c80 <UART_SetConfig+0x354>)
 8006a50:	4293      	cmp	r3, r2
 8006a52:	d131      	bne.n	8006ab8 <UART_SetConfig+0x18c>
 8006a54:	4b89      	ldr	r3, [pc, #548]	@ (8006c7c <UART_SetConfig+0x350>)
 8006a56:	6d5b      	ldr	r3, [r3, #84]	@ 0x54
 8006a58:	220c      	movs	r2, #12
 8006a5a:	4013      	ands	r3, r2
 8006a5c:	2b0c      	cmp	r3, #12
 8006a5e:	d01d      	beq.n	8006a9c <UART_SetConfig+0x170>
 8006a60:	d823      	bhi.n	8006aaa <UART_SetConfig+0x17e>
 8006a62:	2b08      	cmp	r3, #8
 8006a64:	d00c      	beq.n	8006a80 <UART_SetConfig+0x154>
 8006a66:	d820      	bhi.n	8006aaa <UART_SetConfig+0x17e>
 8006a68:	2b00      	cmp	r3, #0
 8006a6a:	d002      	beq.n	8006a72 <UART_SetConfig+0x146>
 8006a6c:	2b04      	cmp	r3, #4
 8006a6e:	d00e      	beq.n	8006a8e <UART_SetConfig+0x162>
 8006a70:	e01b      	b.n	8006aaa <UART_SetConfig+0x17e>
 8006a72:	231b      	movs	r3, #27
 8006a74:	2220      	movs	r2, #32
 8006a76:	189b      	adds	r3, r3, r2
 8006a78:	19db      	adds	r3, r3, r7
 8006a7a:	2200      	movs	r2, #0
 8006a7c:	701a      	strb	r2, [r3, #0]
 8006a7e:	e11d      	b.n	8006cbc <UART_SetConfig+0x390>
 8006a80:	231b      	movs	r3, #27
 8006a82:	2220      	movs	r2, #32
 8006a84:	189b      	adds	r3, r3, r2
 8006a86:	19db      	adds	r3, r3, r7
 8006a88:	2202      	movs	r2, #2
 8006a8a:	701a      	strb	r2, [r3, #0]
 8006a8c:	e116      	b.n	8006cbc <UART_SetConfig+0x390>
 8006a8e:	231b      	movs	r3, #27
 8006a90:	2220      	movs	r2, #32
 8006a92:	189b      	adds	r3, r3, r2
 8006a94:	19db      	adds	r3, r3, r7
 8006a96:	2204      	movs	r2, #4
 8006a98:	701a      	strb	r2, [r3, #0]
 8006a9a:	e10f      	b.n	8006cbc <UART_SetConfig+0x390>
 8006a9c:	231b      	movs	r3, #27
 8006a9e:	2220      	movs	r2, #32
 8006aa0:	189b      	adds	r3, r3, r2
 8006aa2:	19db      	adds	r3, r3, r7
 8006aa4:	2208      	movs	r2, #8
 8006aa6:	701a      	strb	r2, [r3, #0]
 8006aa8:	e108      	b.n	8006cbc <UART_SetConfig+0x390>
 8006aaa:	231b      	movs	r3, #27
 8006aac:	2220      	movs	r2, #32
 8006aae:	189b      	adds	r3, r3, r2
 8006ab0:	19db      	adds	r3, r3, r7
 8006ab2:	2210      	movs	r2, #16
 8006ab4:	701a      	strb	r2, [r3, #0]
 8006ab6:	e101      	b.n	8006cbc <UART_SetConfig+0x390>
 8006ab8:	6a7b      	ldr	r3, [r7, #36]	@ 0x24
 8006aba:	681b      	ldr	r3, [r3, #0]
 8006abc:	4a71      	ldr	r2, [pc, #452]	@ (8006c84 <UART_SetConfig+0x358>)
 8006abe:	4293      	cmp	r3, r2
 8006ac0:	d131      	bne.n	8006b26 <UART_SetConfig+0x1fa>
 8006ac2:	4b6e      	ldr	r3, [pc, #440]	@ (8006c7c <UART_SetConfig+0x350>)
 8006ac4:	6d5b      	ldr	r3, [r3, #84]	@ 0x54
 8006ac6:	2230      	movs	r2, #48	@ 0x30
 8006ac8:	4013      	ands	r3, r2
 8006aca:	2b30      	cmp	r3, #48	@ 0x30
 8006acc:	d01d      	beq.n	8006b0a <UART_SetConfig+0x1de>
 8006ace:	d823      	bhi.n	8006b18 <UART_SetConfig+0x1ec>
 8006ad0:	2b20      	cmp	r3, #32
 8006ad2:	d00c      	beq.n	8006aee <UART_SetConfig+0x1c2>
 8006ad4:	d820      	bhi.n	8006b18 <UART_SetConfig+0x1ec>
 8006ad6:	2b00      	cmp	r3, #0
 8006ad8:	d002      	beq.n	8006ae0 <UART_SetConfig+0x1b4>
 8006ada:	2b10      	cmp	r3, #16
 8006adc:	d00e      	beq.n	8006afc <UART_SetConfig+0x1d0>
 8006ade:	e01b      	b.n	8006b18 <UART_SetConfig+0x1ec>
 8006ae0:	231b      	movs	r3, #27
 8006ae2:	2220      	movs	r2, #32
 8006ae4:	189b      	adds	r3, r3, r2
 8006ae6:	19db      	adds	r3, r3, r7
 8006ae8:	2200      	movs	r2, #0
 8006aea:	701a      	strb	r2, [r3, #0]
 8006aec:	e0e6      	b.n	8006cbc <UART_SetConfig+0x390>
 8006aee:	231b      	movs	r3, #27
 8006af0:	2220      	movs	r2, #32
 8006af2:	189b      	adds	r3, r3, r2
 8006af4:	19db      	adds	r3, r3, r7
 8006af6:	2202      	movs	r2, #2
 8006af8:	701a      	strb	r2, [r3, #0]
 8006afa:	e0df      	b.n	8006cbc <UART_SetConfig+0x390>
 8006afc:	231b      	movs	r3, #27
 8006afe:	2220      	movs	r2, #32
 8006b00:	189b      	adds	r3, r3, r2
 8006b02:	19db      	adds	r3, r3, r7
 8006b04:	2204      	movs	r2, #4
 8006b06:	701a      	strb	r2, [r3, #0]
 8006b08:	e0d8      	b.n	8006cbc <UART_SetConfig+0x390>
 8006b0a:	231b      	movs	r3, #27
 8006b0c:	2220      	movs	r2, #32
 8006b0e:	189b      	adds	r3, r3, r2
 8006b10:	19db      	adds	r3, r3, r7
 8006b12:	2208      	movs	r2, #8
 8006b14:	701a      	strb	r2, [r3, #0]
 8006b16:	e0d1      	b.n	8006cbc <UART_SetConfig+0x390>
 8006b18:	231b      	movs	r3, #27
 8006b1a:	2220      	movs	r2, #32
 8006b1c:	189b      	adds	r3, r3, r2
 8006b1e:	19db      	adds	r3, r3, r7
 8006b20:	2210      	movs	r2, #16
 8006b22:	701a      	strb	r2, [r3, #0]
 8006b24:	e0ca      	b.n	8006cbc <UART_SetConfig+0x390>
 8006b26:	6a7b      	ldr	r3, [r7, #36]	@ 0x24
 8006b28:	681b      	ldr	r3, [r3, #0]
 8006b2a:	4a57      	ldr	r2, [pc, #348]	@ (8006c88 <UART_SetConfig+0x35c>)
 8006b2c:	4293      	cmp	r3, r2
 8006b2e:	d106      	bne.n	8006b3e <UART_SetConfig+0x212>
 8006b30:	231b      	movs	r3, #27
 8006b32:	2220      	movs	r2, #32
 8006b34:	189b      	adds	r3, r3, r2
 8006b36:	19db      	adds	r3, r3, r7
 8006b38:	2200      	movs	r2, #0
 8006b3a:	701a      	strb	r2, [r3, #0]
 8006b3c:	e0be      	b.n	8006cbc <UART_SetConfig+0x390>
 8006b3e:	6a7b      	ldr	r3, [r7, #36]	@ 0x24
 8006b40:	681b      	ldr	r3, [r3, #0]
 8006b42:	4a52      	ldr	r2, [pc, #328]	@ (8006c8c <UART_SetConfig+0x360>)
 8006b44:	4293      	cmp	r3, r2
 8006b46:	d106      	bne.n	8006b56 <UART_SetConfig+0x22a>
 8006b48:	231b      	movs	r3, #27
 8006b4a:	2220      	movs	r2, #32
 8006b4c:	189b      	adds	r3, r3, r2
 8006b4e:	19db      	adds	r3, r3, r7
 8006b50:	2200      	movs	r2, #0
 8006b52:	701a      	strb	r2, [r3, #0]
 8006b54:	e0b2      	b.n	8006cbc <UART_SetConfig+0x390>
 8006b56:	6a7b      	ldr	r3, [r7, #36]	@ 0x24
 8006b58:	681b      	ldr	r3, [r3, #0]
 8006b5a:	4a4d      	ldr	r2, [pc, #308]	@ (8006c90 <UART_SetConfig+0x364>)
 8006b5c:	4293      	cmp	r3, r2
 8006b5e:	d106      	bne.n	8006b6e <UART_SetConfig+0x242>
 8006b60:	231b      	movs	r3, #27
 8006b62:	2220      	movs	r2, #32
 8006b64:	189b      	adds	r3, r3, r2
 8006b66:	19db      	adds	r3, r3, r7
 8006b68:	2200      	movs	r2, #0
 8006b6a:	701a      	strb	r2, [r3, #0]
 8006b6c:	e0a6      	b.n	8006cbc <UART_SetConfig+0x390>
 8006b6e:	6a7b      	ldr	r3, [r7, #36]	@ 0x24
 8006b70:	681b      	ldr	r3, [r3, #0]
 8006b72:	4a3e      	ldr	r2, [pc, #248]	@ (8006c6c <UART_SetConfig+0x340>)
 8006b74:	4293      	cmp	r3, r2
 8006b76:	d13e      	bne.n	8006bf6 <UART_SetConfig+0x2ca>
 8006b78:	4b40      	ldr	r3, [pc, #256]	@ (8006c7c <UART_SetConfig+0x350>)
 8006b7a:	6d5a      	ldr	r2, [r3, #84]	@ 0x54
 8006b7c:	23c0      	movs	r3, #192	@ 0xc0
 8006b7e:	011b      	lsls	r3, r3, #4
 8006b80:	4013      	ands	r3, r2
 8006b82:	22c0      	movs	r2, #192	@ 0xc0
 8006b84:	0112      	lsls	r2, r2, #4
 8006b86:	4293      	cmp	r3, r2
 8006b88:	d027      	beq.n	8006bda <UART_SetConfig+0x2ae>
 8006b8a:	22c0      	movs	r2, #192	@ 0xc0
 8006b8c:	0112      	lsls	r2, r2, #4
 8006b8e:	4293      	cmp	r3, r2
 8006b90:	d82a      	bhi.n	8006be8 <UART_SetConfig+0x2bc>
 8006b92:	2280      	movs	r2, #128	@ 0x80
 8006b94:	0112      	lsls	r2, r2, #4
 8006b96:	4293      	cmp	r3, r2
 8006b98:	d011      	beq.n	8006bbe <UART_SetConfig+0x292>
 8006b9a:	2280      	movs	r2, #128	@ 0x80
 8006b9c:	0112      	lsls	r2, r2, #4
 8006b9e:	4293      	cmp	r3, r2
 8006ba0:	d822      	bhi.n	8006be8 <UART_SetConfig+0x2bc>
 8006ba2:	2b00      	cmp	r3, #0
 8006ba4:	d004      	beq.n	8006bb0 <UART_SetConfig+0x284>
 8006ba6:	2280      	movs	r2, #128	@ 0x80
 8006ba8:	00d2      	lsls	r2, r2, #3
 8006baa:	4293      	cmp	r3, r2
 8006bac:	d00e      	beq.n	8006bcc <UART_SetConfig+0x2a0>
 8006bae:	e01b      	b.n	8006be8 <UART_SetConfig+0x2bc>
 8006bb0:	231b      	movs	r3, #27
 8006bb2:	2220      	movs	r2, #32
 8006bb4:	189b      	adds	r3, r3, r2
 8006bb6:	19db      	adds	r3, r3, r7
 8006bb8:	2200      	movs	r2, #0
 8006bba:	701a      	strb	r2, [r3, #0]
 8006bbc:	e07e      	b.n	8006cbc <UART_SetConfig+0x390>
 8006bbe:	231b      	movs	r3, #27
 8006bc0:	2220      	movs	r2, #32
 8006bc2:	189b      	adds	r3, r3, r2
 8006bc4:	19db      	adds	r3, r3, r7
 8006bc6:	2202      	movs	r2, #2
 8006bc8:	701a      	strb	r2, [r3, #0]
 8006bca:	e077      	b.n	8006cbc <UART_SetConfig+0x390>
 8006bcc:	231b      	movs	r3, #27
 8006bce:	2220      	movs	r2, #32
 8006bd0:	189b      	adds	r3, r3, r2
 8006bd2:	19db      	adds	r3, r3, r7
 8006bd4:	2204      	movs	r2, #4
 8006bd6:	701a      	strb	r2, [r3, #0]
 8006bd8:	e070      	b.n	8006cbc <UART_SetConfig+0x390>
 8006bda:	231b      	movs	r3, #27
 8006bdc:	2220      	movs	r2, #32
 8006bde:	189b      	adds	r3, r3, r2
 8006be0:	19db      	adds	r3, r3, r7
 8006be2:	2208      	movs	r2, #8
 8006be4:	701a      	strb	r2, [r3, #0]
 8006be6:	e069      	b.n	8006cbc <UART_SetConfig+0x390>
 8006be8:	231b      	movs	r3, #27
 8006bea:	2220      	movs	r2, #32
 8006bec:	189b      	adds	r3, r3, r2
 8006bee:	19db      	adds	r3, r3, r7
 8006bf0:	2210      	movs	r2, #16
 8006bf2:	701a      	strb	r2, [r3, #0]
 8006bf4:	e062      	b.n	8006cbc <UART_SetConfig+0x390>
 8006bf6:	6a7b      	ldr	r3, [r7, #36]	@ 0x24
 8006bf8:	681b      	ldr	r3, [r3, #0]
 8006bfa:	4a1d      	ldr	r2, [pc, #116]	@ (8006c70 <UART_SetConfig+0x344>)
 8006bfc:	4293      	cmp	r3, r2
 8006bfe:	d157      	bne.n	8006cb0 <UART_SetConfig+0x384>
 8006c00:	4b1e      	ldr	r3, [pc, #120]	@ (8006c7c <UART_SetConfig+0x350>)
 8006c02:	6d5a      	ldr	r2, [r3, #84]	@ 0x54
 8006c04:	23c0      	movs	r3, #192	@ 0xc0
 8006c06:	009b      	lsls	r3, r3, #2
 8006c08:	4013      	ands	r3, r2
 8006c0a:	22c0      	movs	r2, #192	@ 0xc0
 8006c0c:	0092      	lsls	r2, r2, #2
 8006c0e:	4293      	cmp	r3, r2
 8006c10:	d040      	beq.n	8006c94 <UART_SetConfig+0x368>
 8006c12:	22c0      	movs	r2, #192	@ 0xc0
 8006c14:	0092      	lsls	r2, r2, #2
 8006c16:	4293      	cmp	r3, r2
 8006c18:	d843      	bhi.n	8006ca2 <UART_SetConfig+0x376>
 8006c1a:	2280      	movs	r2, #128	@ 0x80
 8006c1c:	0092      	lsls	r2, r2, #2
 8006c1e:	4293      	cmp	r3, r2
 8006c20:	d011      	beq.n	8006c46 <UART_SetConfig+0x31a>
 8006c22:	2280      	movs	r2, #128	@ 0x80
 8006c24:	0092      	lsls	r2, r2, #2
 8006c26:	4293      	cmp	r3, r2
 8006c28:	d83b      	bhi.n	8006ca2 <UART_SetConfig+0x376>
 8006c2a:	2b00      	cmp	r3, #0
 8006c2c:	d004      	beq.n	8006c38 <UART_SetConfig+0x30c>
 8006c2e:	2280      	movs	r2, #128	@ 0x80
 8006c30:	0052      	lsls	r2, r2, #1
 8006c32:	4293      	cmp	r3, r2
 8006c34:	d00e      	beq.n	8006c54 <UART_SetConfig+0x328>
 8006c36:	e034      	b.n	8006ca2 <UART_SetConfig+0x376>
 8006c38:	231b      	movs	r3, #27
 8006c3a:	2220      	movs	r2, #32
 8006c3c:	189b      	adds	r3, r3, r2
 8006c3e:	19db      	adds	r3, r3, r7
 8006c40:	2200      	movs	r2, #0
 8006c42:	701a      	strb	r2, [r3, #0]
 8006c44:	e03a      	b.n	8006cbc <UART_SetConfig+0x390>
 8006c46:	231b      	movs	r3, #27
 8006c48:	2220      	movs	r2, #32
 8006c4a:	189b      	adds	r3, r3, r2
 8006c4c:	19db      	adds	r3, r3, r7
 8006c4e:	2202      	movs	r2, #2
 8006c50:	701a      	strb	r2, [r3, #0]
 8006c52:	e033      	b.n	8006cbc <UART_SetConfig+0x390>
 8006c54:	231b      	movs	r3, #27
 8006c56:	2220      	movs	r2, #32
 8006c58:	189b      	adds	r3, r3, r2
 8006c5a:	19db      	adds	r3, r3, r7
 8006c5c:	2204      	movs	r2, #4
 8006c5e:	701a      	strb	r2, [r3, #0]
 8006c60:	e02c      	b.n	8006cbc <UART_SetConfig+0x390>
 8006c62:	46c0      	nop			@ (mov r8, r8)
 8006c64:	cfff69f3 	.word	0xcfff69f3
 8006c68:	ffffcfff 	.word	0xffffcfff
 8006c6c:	40008000 	.word	0x40008000
 8006c70:	40008400 	.word	0x40008400
 8006c74:	11fff4ff 	.word	0x11fff4ff
 8006c78:	40013800 	.word	0x40013800
 8006c7c:	40021000 	.word	0x40021000
 8006c80:	40004400 	.word	0x40004400
 8006c84:	40004800 	.word	0x40004800
 8006c88:	40004c00 	.word	0x40004c00
 8006c8c:	40005000 	.word	0x40005000
 8006c90:	40013c00 	.word	0x40013c00
 8006c94:	231b      	movs	r3, #27
 8006c96:	2220      	movs	r2, #32
 8006c98:	189b      	adds	r3, r3, r2
 8006c9a:	19db      	adds	r3, r3, r7
 8006c9c:	2208      	movs	r2, #8
 8006c9e:	701a      	strb	r2, [r3, #0]
 8006ca0:	e00c      	b.n	8006cbc <UART_SetConfig+0x390>
 8006ca2:	231b      	movs	r3, #27
 8006ca4:	2220      	movs	r2, #32
 8006ca6:	189b      	adds	r3, r3, r2
 8006ca8:	19db      	adds	r3, r3, r7
 8006caa:	2210      	movs	r2, #16
 8006cac:	701a      	strb	r2, [r3, #0]
 8006cae:	e005      	b.n	8006cbc <UART_SetConfig+0x390>
 8006cb0:	231b      	movs	r3, #27
 8006cb2:	2220      	movs	r2, #32
 8006cb4:	189b      	adds	r3, r3, r2
 8006cb6:	19db      	adds	r3, r3, r7
 8006cb8:	2210      	movs	r2, #16
 8006cba:	701a      	strb	r2, [r3, #0]
 8006cbc:	6a7b      	ldr	r3, [r7, #36]	@ 0x24
 8006cbe:	681b      	ldr	r3, [r3, #0]
 8006cc0:	4ac1      	ldr	r2, [pc, #772]	@ (8006fc8 <UART_SetConfig+0x69c>)
 8006cc2:	4293      	cmp	r3, r2
 8006cc4:	d005      	beq.n	8006cd2 <UART_SetConfig+0x3a6>
 8006cc6:	6a7b      	ldr	r3, [r7, #36]	@ 0x24
 8006cc8:	681b      	ldr	r3, [r3, #0]
 8006cca:	4ac0      	ldr	r2, [pc, #768]	@ (8006fcc <UART_SetConfig+0x6a0>)
 8006ccc:	4293      	cmp	r3, r2
 8006cce:	d000      	beq.n	8006cd2 <UART_SetConfig+0x3a6>
 8006cd0:	e093      	b.n	8006dfa <UART_SetConfig+0x4ce>
 8006cd2:	231b      	movs	r3, #27
 8006cd4:	2220      	movs	r2, #32
 8006cd6:	189b      	adds	r3, r3, r2
 8006cd8:	19db      	adds	r3, r3, r7
 8006cda:	781b      	ldrb	r3, [r3, #0]
 8006cdc:	2b08      	cmp	r3, #8
 8006cde:	d015      	beq.n	8006d0c <UART_SetConfig+0x3e0>
 8006ce0:	dc18      	bgt.n	8006d14 <UART_SetConfig+0x3e8>
 8006ce2:	2b04      	cmp	r3, #4
 8006ce4:	d00d      	beq.n	8006d02 <UART_SetConfig+0x3d6>
 8006ce6:	dc15      	bgt.n	8006d14 <UART_SetConfig+0x3e8>
 8006ce8:	2b00      	cmp	r3, #0
 8006cea:	d002      	beq.n	8006cf2 <UART_SetConfig+0x3c6>
 8006cec:	2b02      	cmp	r3, #2
 8006cee:	d005      	beq.n	8006cfc <UART_SetConfig+0x3d0>
 8006cf0:	e010      	b.n	8006d14 <UART_SetConfig+0x3e8>
 8006cf2:	f7fd fddd 	bl	80048b0 <HAL_RCC_GetPCLK1Freq>
 8006cf6:	0003      	movs	r3, r0
 8006cf8:	637b      	str	r3, [r7, #52]	@ 0x34
 8006cfa:	e014      	b.n	8006d26 <UART_SetConfig+0x3fa>
 8006cfc:	4bb4      	ldr	r3, [pc, #720]	@ (8006fd0 <UART_SetConfig+0x6a4>)
 8006cfe:	637b      	str	r3, [r7, #52]	@ 0x34
 8006d00:	e011      	b.n	8006d26 <UART_SetConfig+0x3fa>
 8006d02:	f7fd fd49 	bl	8004798 <HAL_RCC_GetSysClockFreq>
 8006d06:	0003      	movs	r3, r0
 8006d08:	637b      	str	r3, [r7, #52]	@ 0x34
 8006d0a:	e00c      	b.n	8006d26 <UART_SetConfig+0x3fa>
 8006d0c:	2380      	movs	r3, #128	@ 0x80
 8006d0e:	021b      	lsls	r3, r3, #8
 8006d10:	637b      	str	r3, [r7, #52]	@ 0x34
 8006d12:	e008      	b.n	8006d26 <UART_SetConfig+0x3fa>
 8006d14:	2300      	movs	r3, #0
 8006d16:	637b      	str	r3, [r7, #52]	@ 0x34
 8006d18:	231a      	movs	r3, #26
 8006d1a:	2220      	movs	r2, #32
 8006d1c:	189b      	adds	r3, r3, r2
 8006d1e:	19db      	adds	r3, r3, r7
 8006d20:	2201      	movs	r2, #1
 8006d22:	701a      	strb	r2, [r3, #0]
 8006d24:	46c0      	nop			@ (mov r8, r8)
 8006d26:	6b7b      	ldr	r3, [r7, #52]	@ 0x34
 8006d28:	2b00      	cmp	r3, #0
 8006d2a:	d100      	bne.n	8006d2e <UART_SetConfig+0x402>
 8006d2c:	e135      	b.n	8006f9a <UART_SetConfig+0x66e>
 8006d2e:	6a7b      	ldr	r3, [r7, #36]	@ 0x24
 8006d30:	6a5a      	ldr	r2, [r3, #36]	@ 0x24
 8006d32:	4ba8      	ldr	r3, [pc, #672]	@ (8006fd4 <UART_SetConfig+0x6a8>)
 8006d34:	0052      	lsls	r2, r2, #1
 8006d36:	5ad3      	ldrh	r3, [r2, r3]
 8006d38:	0019      	movs	r1, r3
 8006d3a:	6b78      	ldr	r0, [r7, #52]	@ 0x34
 8006d3c:	f7f9 f9ec 	bl	8000118 <__udivsi3>
 8006d40:	0003      	movs	r3, r0
 8006d42:	62bb      	str	r3, [r7, #40]	@ 0x28
 8006d44:	6a7b      	ldr	r3, [r7, #36]	@ 0x24
 8006d46:	685a      	ldr	r2, [r3, #4]
 8006d48:	0013      	movs	r3, r2
 8006d4a:	005b      	lsls	r3, r3, #1
 8006d4c:	189b      	adds	r3, r3, r2
 8006d4e:	6aba      	ldr	r2, [r7, #40]	@ 0x28
 8006d50:	429a      	cmp	r2, r3
 8006d52:	d305      	bcc.n	8006d60 <UART_SetConfig+0x434>
 8006d54:	6a7b      	ldr	r3, [r7, #36]	@ 0x24
 8006d56:	685b      	ldr	r3, [r3, #4]
 8006d58:	031b      	lsls	r3, r3, #12
 8006d5a:	6aba      	ldr	r2, [r7, #40]	@ 0x28
 8006d5c:	429a      	cmp	r2, r3
 8006d5e:	d906      	bls.n	8006d6e <UART_SetConfig+0x442>
 8006d60:	231a      	movs	r3, #26
 8006d62:	2220      	movs	r2, #32
 8006d64:	189b      	adds	r3, r3, r2
 8006d66:	19db      	adds	r3, r3, r7
 8006d68:	2201      	movs	r2, #1
 8006d6a:	701a      	strb	r2, [r3, #0]
 8006d6c:	e044      	b.n	8006df8 <UART_SetConfig+0x4cc>
 8006d6e:	6b7b      	ldr	r3, [r7, #52]	@ 0x34
 8006d70:	61bb      	str	r3, [r7, #24]
 8006d72:	2300      	movs	r3, #0
 8006d74:	61fb      	str	r3, [r7, #28]
 8006d76:	6a7b      	ldr	r3, [r7, #36]	@ 0x24
 8006d78:	6a5a      	ldr	r2, [r3, #36]	@ 0x24
 8006d7a:	4b96      	ldr	r3, [pc, #600]	@ (8006fd4 <UART_SetConfig+0x6a8>)
 8006d7c:	0052      	lsls	r2, r2, #1
 8006d7e:	5ad3      	ldrh	r3, [r2, r3]
 8006d80:	613b      	str	r3, [r7, #16]
 8006d82:	2300      	movs	r3, #0
 8006d84:	617b      	str	r3, [r7, #20]
 8006d86:	693a      	ldr	r2, [r7, #16]
 8006d88:	697b      	ldr	r3, [r7, #20]
 8006d8a:	69b8      	ldr	r0, [r7, #24]
 8006d8c:	69f9      	ldr	r1, [r7, #28]
 8006d8e:	f7f9 fb73 	bl	8000478 <__aeabi_uldivmod>
 8006d92:	0002      	movs	r2, r0
 8006d94:	000b      	movs	r3, r1
 8006d96:	0e11      	lsrs	r1, r2, #24
 8006d98:	021d      	lsls	r5, r3, #8
 8006d9a:	430d      	orrs	r5, r1
 8006d9c:	0214      	lsls	r4, r2, #8
 8006d9e:	6a7b      	ldr	r3, [r7, #36]	@ 0x24
 8006da0:	685b      	ldr	r3, [r3, #4]
 8006da2:	085b      	lsrs	r3, r3, #1
 8006da4:	60bb      	str	r3, [r7, #8]
 8006da6:	2300      	movs	r3, #0
 8006da8:	60fb      	str	r3, [r7, #12]
 8006daa:	68b8      	ldr	r0, [r7, #8]
 8006dac:	68f9      	ldr	r1, [r7, #12]
 8006dae:	1900      	adds	r0, r0, r4
 8006db0:	4169      	adcs	r1, r5
 8006db2:	6a7b      	ldr	r3, [r7, #36]	@ 0x24
 8006db4:	685b      	ldr	r3, [r3, #4]
 8006db6:	603b      	str	r3, [r7, #0]
 8006db8:	2300      	movs	r3, #0
 8006dba:	607b      	str	r3, [r7, #4]
 8006dbc:	683a      	ldr	r2, [r7, #0]
 8006dbe:	687b      	ldr	r3, [r7, #4]
 8006dc0:	f7f9 fb5a 	bl	8000478 <__aeabi_uldivmod>
 8006dc4:	0002      	movs	r2, r0
 8006dc6:	000b      	movs	r3, r1
 8006dc8:	0013      	movs	r3, r2
 8006dca:	633b      	str	r3, [r7, #48]	@ 0x30
 8006dcc:	6b3a      	ldr	r2, [r7, #48]	@ 0x30
 8006dce:	23c0      	movs	r3, #192	@ 0xc0
 8006dd0:	009b      	lsls	r3, r3, #2
 8006dd2:	429a      	cmp	r2, r3
 8006dd4:	d309      	bcc.n	8006dea <UART_SetConfig+0x4be>
 8006dd6:	6b3a      	ldr	r2, [r7, #48]	@ 0x30
 8006dd8:	2380      	movs	r3, #128	@ 0x80
 8006dda:	035b      	lsls	r3, r3, #13
 8006ddc:	429a      	cmp	r2, r3
 8006dde:	d204      	bcs.n	8006dea <UART_SetConfig+0x4be>
 8006de0:	6a7b      	ldr	r3, [r7, #36]	@ 0x24
 8006de2:	681b      	ldr	r3, [r3, #0]
 8006de4:	6b3a      	ldr	r2, [r7, #48]	@ 0x30
 8006de6:	60da      	str	r2, [r3, #12]
 8006de8:	e006      	b.n	8006df8 <UART_SetConfig+0x4cc>
 8006dea:	231a      	movs	r3, #26
 8006dec:	2220      	movs	r2, #32
 8006dee:	189b      	adds	r3, r3, r2
 8006df0:	19db      	adds	r3, r3, r7
 8006df2:	2201      	movs	r2, #1
 8006df4:	701a      	strb	r2, [r3, #0]
 8006df6:	e0d0      	b.n	8006f9a <UART_SetConfig+0x66e>
 8006df8:	e0cf      	b.n	8006f9a <UART_SetConfig+0x66e>
 8006dfa:	6a7b      	ldr	r3, [r7, #36]	@ 0x24
 8006dfc:	69da      	ldr	r2, [r3, #28]
 8006dfe:	2380      	movs	r3, #128	@ 0x80
 8006e00:	021b      	lsls	r3, r3, #8
 8006e02:	429a      	cmp	r2, r3
 8006e04:	d000      	beq.n	8006e08 <UART_SetConfig+0x4dc>
 8006e06:	e070      	b.n	8006eea <UART_SetConfig+0x5be>
 8006e08:	231b      	movs	r3, #27
 8006e0a:	2220      	movs	r2, #32
 8006e0c:	189b      	adds	r3, r3, r2
 8006e0e:	19db      	adds	r3, r3, r7
 8006e10:	781b      	ldrb	r3, [r3, #0]
 8006e12:	2b08      	cmp	r3, #8
 8006e14:	d015      	beq.n	8006e42 <UART_SetConfig+0x516>
 8006e16:	dc18      	bgt.n	8006e4a <UART_SetConfig+0x51e>
 8006e18:	2b04      	cmp	r3, #4
 8006e1a:	d00d      	beq.n	8006e38 <UART_SetConfig+0x50c>
 8006e1c:	dc15      	bgt.n	8006e4a <UART_SetConfig+0x51e>
 8006e1e:	2b00      	cmp	r3, #0
 8006e20:	d002      	beq.n	8006e28 <UART_SetConfig+0x4fc>
 8006e22:	2b02      	cmp	r3, #2
 8006e24:	d005      	beq.n	8006e32 <UART_SetConfig+0x506>
 8006e26:	e010      	b.n	8006e4a <UART_SetConfig+0x51e>
 8006e28:	f7fd fd42 	bl	80048b0 <HAL_RCC_GetPCLK1Freq>
 8006e2c:	0003      	movs	r3, r0
 8006e2e:	637b      	str	r3, [r7, #52]	@ 0x34
 8006e30:	e014      	b.n	8006e5c <UART_SetConfig+0x530>
 8006e32:	4b67      	ldr	r3, [pc, #412]	@ (8006fd0 <UART_SetConfig+0x6a4>)
 8006e34:	637b      	str	r3, [r7, #52]	@ 0x34
 8006e36:	e011      	b.n	8006e5c <UART_SetConfig+0x530>
 8006e38:	f7fd fcae 	bl	8004798 <HAL_RCC_GetSysClockFreq>
 8006e3c:	0003      	movs	r3, r0
 8006e3e:	637b      	str	r3, [r7, #52]	@ 0x34
 8006e40:	e00c      	b.n	8006e5c <UART_SetConfig+0x530>
 8006e42:	2380      	movs	r3, #128	@ 0x80
 8006e44:	021b      	lsls	r3, r3, #8
 8006e46:	637b      	str	r3, [r7, #52]	@ 0x34
 8006e48:	e008      	b.n	8006e5c <UART_SetConfig+0x530>
 8006e4a:	2300      	movs	r3, #0
 8006e4c:	637b      	str	r3, [r7, #52]	@ 0x34
 8006e4e:	231a      	movs	r3, #26
 8006e50:	2220      	movs	r2, #32
 8006e52:	189b      	adds	r3, r3, r2
 8006e54:	19db      	adds	r3, r3, r7
 8006e56:	2201      	movs	r2, #1
 8006e58:	701a      	strb	r2, [r3, #0]
 8006e5a:	46c0      	nop			@ (mov r8, r8)
 8006e5c:	6b7b      	ldr	r3, [r7, #52]	@ 0x34
 8006e5e:	2b00      	cmp	r3, #0
 8006e60:	d100      	bne.n	8006e64 <UART_SetConfig+0x538>
 8006e62:	e09a      	b.n	8006f9a <UART_SetConfig+0x66e>
 8006e64:	6a7b      	ldr	r3, [r7, #36]	@ 0x24
 8006e66:	6a5a      	ldr	r2, [r3, #36]	@ 0x24
 8006e68:	4b5a      	ldr	r3, [pc, #360]	@ (8006fd4 <UART_SetConfig+0x6a8>)
 8006e6a:	0052      	lsls	r2, r2, #1
 8006e6c:	5ad3      	ldrh	r3, [r2, r3]
 8006e6e:	0019      	movs	r1, r3
 8006e70:	6b78      	ldr	r0, [r7, #52]	@ 0x34
 8006e72:	f7f9 f951 	bl	8000118 <__udivsi3>
 8006e76:	0003      	movs	r3, r0
 8006e78:	005a      	lsls	r2, r3, #1
 8006e7a:	6a7b      	ldr	r3, [r7, #36]	@ 0x24
 8006e7c:	685b      	ldr	r3, [r3, #4]
 8006e7e:	085b      	lsrs	r3, r3, #1
 8006e80:	18d2      	adds	r2, r2, r3
 8006e82:	6a7b      	ldr	r3, [r7, #36]	@ 0x24
 8006e84:	685b      	ldr	r3, [r3, #4]
 8006e86:	0019      	movs	r1, r3
 8006e88:	0010      	movs	r0, r2
 8006e8a:	f7f9 f945 	bl	8000118 <__udivsi3>
 8006e8e:	0003      	movs	r3, r0
 8006e90:	633b      	str	r3, [r7, #48]	@ 0x30
 8006e92:	6b3b      	ldr	r3, [r7, #48]	@ 0x30
 8006e94:	2b0f      	cmp	r3, #15
 8006e96:	d921      	bls.n	8006edc <UART_SetConfig+0x5b0>
 8006e98:	6b3a      	ldr	r2, [r7, #48]	@ 0x30
 8006e9a:	2380      	movs	r3, #128	@ 0x80
 8006e9c:	025b      	lsls	r3, r3, #9
 8006e9e:	429a      	cmp	r2, r3
 8006ea0:	d21c      	bcs.n	8006edc <UART_SetConfig+0x5b0>
 8006ea2:	6b3b      	ldr	r3, [r7, #48]	@ 0x30
 8006ea4:	b29a      	uxth	r2, r3
 8006ea6:	200e      	movs	r0, #14
 8006ea8:	2420      	movs	r4, #32
 8006eaa:	1903      	adds	r3, r0, r4
 8006eac:	19db      	adds	r3, r3, r7
 8006eae:	210f      	movs	r1, #15
 8006eb0:	438a      	bics	r2, r1
 8006eb2:	801a      	strh	r2, [r3, #0]
 8006eb4:	6b3b      	ldr	r3, [r7, #48]	@ 0x30
 8006eb6:	085b      	lsrs	r3, r3, #1
 8006eb8:	b29b      	uxth	r3, r3
 8006eba:	2207      	movs	r2, #7
 8006ebc:	4013      	ands	r3, r2
 8006ebe:	b299      	uxth	r1, r3
 8006ec0:	1903      	adds	r3, r0, r4
 8006ec2:	19db      	adds	r3, r3, r7
 8006ec4:	1902      	adds	r2, r0, r4
 8006ec6:	19d2      	adds	r2, r2, r7
 8006ec8:	8812      	ldrh	r2, [r2, #0]
 8006eca:	430a      	orrs	r2, r1
 8006ecc:	801a      	strh	r2, [r3, #0]
 8006ece:	6a7b      	ldr	r3, [r7, #36]	@ 0x24
 8006ed0:	681b      	ldr	r3, [r3, #0]
 8006ed2:	1902      	adds	r2, r0, r4
 8006ed4:	19d2      	adds	r2, r2, r7
 8006ed6:	8812      	ldrh	r2, [r2, #0]
 8006ed8:	60da      	str	r2, [r3, #12]
 8006eda:	e05e      	b.n	8006f9a <UART_SetConfig+0x66e>
 8006edc:	231a      	movs	r3, #26
 8006ede:	2220      	movs	r2, #32
 8006ee0:	189b      	adds	r3, r3, r2
 8006ee2:	19db      	adds	r3, r3, r7
 8006ee4:	2201      	movs	r2, #1
 8006ee6:	701a      	strb	r2, [r3, #0]
 8006ee8:	e057      	b.n	8006f9a <UART_SetConfig+0x66e>
 8006eea:	231b      	movs	r3, #27
 8006eec:	2220      	movs	r2, #32
 8006eee:	189b      	adds	r3, r3, r2
 8006ef0:	19db      	adds	r3, r3, r7
 8006ef2:	781b      	ldrb	r3, [r3, #0]
 8006ef4:	2b08      	cmp	r3, #8
 8006ef6:	d015      	beq.n	8006f24 <UART_SetConfig+0x5f8>
 8006ef8:	dc18      	bgt.n	8006f2c <UART_SetConfig+0x600>
 8006efa:	2b04      	cmp	r3, #4
 8006efc:	d00d      	beq.n	8006f1a <UART_SetConfig+0x5ee>
 8006efe:	dc15      	bgt.n	8006f2c <UART_SetConfig+0x600>
 8006f00:	2b00      	cmp	r3, #0
 8006f02:	d002      	beq.n	8006f0a <UART_SetConfig+0x5de>
 8006f04:	2b02      	cmp	r3, #2
 8006f06:	d005      	beq.n	8006f14 <UART_SetConfig+0x5e8>
 8006f08:	e010      	b.n	8006f2c <UART_SetConfig+0x600>
 8006f0a:	f7fd fcd1 	bl	80048b0 <HAL_RCC_GetPCLK1Freq>
 8006f0e:	0003      	movs	r3, r0
 8006f10:	637b      	str	r3, [r7, #52]	@ 0x34
 8006f12:	e014      	b.n	8006f3e <UART_SetConfig+0x612>
 8006f14:	4b2e      	ldr	r3, [pc, #184]	@ (8006fd0 <UART_SetConfig+0x6a4>)
 8006f16:	637b      	str	r3, [r7, #52]	@ 0x34
 8006f18:	e011      	b.n	8006f3e <UART_SetConfig+0x612>
 8006f1a:	f7fd fc3d 	bl	8004798 <HAL_RCC_GetSysClockFreq>
 8006f1e:	0003      	movs	r3, r0
 8006f20:	637b      	str	r3, [r7, #52]	@ 0x34
 8006f22:	e00c      	b.n	8006f3e <UART_SetConfig+0x612>
 8006f24:	2380      	movs	r3, #128	@ 0x80
 8006f26:	021b      	lsls	r3, r3, #8
 8006f28:	637b      	str	r3, [r7, #52]	@ 0x34
 8006f2a:	e008      	b.n	8006f3e <UART_SetConfig+0x612>
 8006f2c:	2300      	movs	r3, #0
 8006f2e:	637b      	str	r3, [r7, #52]	@ 0x34
 8006f30:	231a      	movs	r3, #26
 8006f32:	2220      	movs	r2, #32
 8006f34:	189b      	adds	r3, r3, r2
 8006f36:	19db      	adds	r3, r3, r7
 8006f38:	2201      	movs	r2, #1
 8006f3a:	701a      	strb	r2, [r3, #0]
 8006f3c:	46c0      	nop			@ (mov r8, r8)
 8006f3e:	6b7b      	ldr	r3, [r7, #52]	@ 0x34
 8006f40:	2b00      	cmp	r3, #0
 8006f42:	d02a      	beq.n	8006f9a <UART_SetConfig+0x66e>
 8006f44:	6a7b      	ldr	r3, [r7, #36]	@ 0x24
 8006f46:	6a5a      	ldr	r2, [r3, #36]	@ 0x24
 8006f48:	4b22      	ldr	r3, [pc, #136]	@ (8006fd4 <UART_SetConfig+0x6a8>)
 8006f4a:	0052      	lsls	r2, r2, #1
 8006f4c:	5ad3      	ldrh	r3, [r2, r3]
 8006f4e:	0019      	movs	r1, r3
 8006f50:	6b78      	ldr	r0, [r7, #52]	@ 0x34
 8006f52:	f7f9 f8e1 	bl	8000118 <__udivsi3>
 8006f56:	0003      	movs	r3, r0
 8006f58:	001a      	movs	r2, r3
 8006f5a:	6a7b      	ldr	r3, [r7, #36]	@ 0x24
 8006f5c:	685b      	ldr	r3, [r3, #4]
 8006f5e:	085b      	lsrs	r3, r3, #1
 8006f60:	18d2      	adds	r2, r2, r3
 8006f62:	6a7b      	ldr	r3, [r7, #36]	@ 0x24
 8006f64:	685b      	ldr	r3, [r3, #4]
 8006f66:	0019      	movs	r1, r3
 8006f68:	0010      	movs	r0, r2
 8006f6a:	f7f9 f8d5 	bl	8000118 <__udivsi3>
 8006f6e:	0003      	movs	r3, r0
 8006f70:	633b      	str	r3, [r7, #48]	@ 0x30
 8006f72:	6b3b      	ldr	r3, [r7, #48]	@ 0x30
 8006f74:	2b0f      	cmp	r3, #15
 8006f76:	d90a      	bls.n	8006f8e <UART_SetConfig+0x662>
 8006f78:	6b3a      	ldr	r2, [r7, #48]	@ 0x30
 8006f7a:	2380      	movs	r3, #128	@ 0x80
 8006f7c:	025b      	lsls	r3, r3, #9
 8006f7e:	429a      	cmp	r2, r3
 8006f80:	d205      	bcs.n	8006f8e <UART_SetConfig+0x662>
 8006f82:	6b3b      	ldr	r3, [r7, #48]	@ 0x30
 8006f84:	b29a      	uxth	r2, r3
 8006f86:	6a7b      	ldr	r3, [r7, #36]	@ 0x24
 8006f88:	681b      	ldr	r3, [r3, #0]
 8006f8a:	60da      	str	r2, [r3, #12]
 8006f8c:	e005      	b.n	8006f9a <UART_SetConfig+0x66e>
 8006f8e:	231a      	movs	r3, #26
 8006f90:	2220      	movs	r2, #32
 8006f92:	189b      	adds	r3, r3, r2
 8006f94:	19db      	adds	r3, r3, r7
 8006f96:	2201      	movs	r2, #1
 8006f98:	701a      	strb	r2, [r3, #0]
 8006f9a:	6a7b      	ldr	r3, [r7, #36]	@ 0x24
 8006f9c:	226a      	movs	r2, #106	@ 0x6a
 8006f9e:	2101      	movs	r1, #1
 8006fa0:	5299      	strh	r1, [r3, r2]
 8006fa2:	6a7b      	ldr	r3, [r7, #36]	@ 0x24
 8006fa4:	2268      	movs	r2, #104	@ 0x68
 8006fa6:	2101      	movs	r1, #1
 8006fa8:	5299      	strh	r1, [r3, r2]
 8006faa:	6a7b      	ldr	r3, [r7, #36]	@ 0x24
 8006fac:	2200      	movs	r2, #0
 8006fae:	675a      	str	r2, [r3, #116]	@ 0x74
 8006fb0:	6a7b      	ldr	r3, [r7, #36]	@ 0x24
 8006fb2:	2200      	movs	r2, #0
 8006fb4:	679a      	str	r2, [r3, #120]	@ 0x78
 8006fb6:	231a      	movs	r3, #26
 8006fb8:	2220      	movs	r2, #32
 8006fba:	189b      	adds	r3, r3, r2
 8006fbc:	19db      	adds	r3, r3, r7
 8006fbe:	781b      	ldrb	r3, [r3, #0]
 8006fc0:	0018      	movs	r0, r3
 8006fc2:	46bd      	mov	sp, r7
 8006fc4:	b010      	add	sp, #64	@ 0x40
 8006fc6:	bdb0      	pop	{r4, r5, r7, pc}
 8006fc8:	40008000 	.word	0x40008000
 8006fcc:	40008400 	.word	0x40008400
 8006fd0:	00f42400 	.word	0x00f42400
 8006fd4:	080087b8 	.word	0x080087b8

08006fd8 <UART_AdvFeatureConfig>:
 8006fd8:	b580      	push	{r7, lr}
 8006fda:	b082      	sub	sp, #8
 8006fdc:	af00      	add	r7, sp, #0
 8006fde:	6078      	str	r0, [r7, #4]
 8006fe0:	687b      	ldr	r3, [r7, #4]
 8006fe2:	6a9b      	ldr	r3, [r3, #40]	@ 0x28
 8006fe4:	2208      	movs	r2, #8
 8006fe6:	4013      	ands	r3, r2
 8006fe8:	d00b      	beq.n	8007002 <UART_AdvFeatureConfig+0x2a>
 8006fea:	687b      	ldr	r3, [r7, #4]
 8006fec:	681b      	ldr	r3, [r3, #0]
 8006fee:	685b      	ldr	r3, [r3, #4]
 8006ff0:	4a4a      	ldr	r2, [pc, #296]	@ (800711c <UART_AdvFeatureConfig+0x144>)
 8006ff2:	4013      	ands	r3, r2
 8006ff4:	0019      	movs	r1, r3
 8006ff6:	687b      	ldr	r3, [r7, #4]
 8006ff8:	6b9a      	ldr	r2, [r3, #56]	@ 0x38
 8006ffa:	687b      	ldr	r3, [r7, #4]
 8006ffc:	681b      	ldr	r3, [r3, #0]
 8006ffe:	430a      	orrs	r2, r1
 8007000:	605a      	str	r2, [r3, #4]
 8007002:	687b      	ldr	r3, [r7, #4]
 8007004:	6a9b      	ldr	r3, [r3, #40]	@ 0x28
 8007006:	2201      	movs	r2, #1
 8007008:	4013      	ands	r3, r2
 800700a:	d00b      	beq.n	8007024 <UART_AdvFeatureConfig+0x4c>
 800700c:	687b      	ldr	r3, [r7, #4]
 800700e:	681b      	ldr	r3, [r3, #0]
 8007010:	685b      	ldr	r3, [r3, #4]
 8007012:	4a43      	ldr	r2, [pc, #268]	@ (8007120 <UART_AdvFeatureConfig+0x148>)
 8007014:	4013      	ands	r3, r2
 8007016:	0019      	movs	r1, r3
 8007018:	687b      	ldr	r3, [r7, #4]
 800701a:	6ada      	ldr	r2, [r3, #44]	@ 0x2c
 800701c:	687b      	ldr	r3, [r7, #4]
 800701e:	681b      	ldr	r3, [r3, #0]
 8007020:	430a      	orrs	r2, r1
 8007022:	605a      	str	r2, [r3, #4]
 8007024:	687b      	ldr	r3, [r7, #4]
 8007026:	6a9b      	ldr	r3, [r3, #40]	@ 0x28
 8007028:	2202      	movs	r2, #2
 800702a:	4013      	ands	r3, r2
 800702c:	d00b      	beq.n	8007046 <UART_AdvFeatureConfig+0x6e>
 800702e:	687b      	ldr	r3, [r7, #4]
 8007030:	681b      	ldr	r3, [r3, #0]
 8007032:	685b      	ldr	r3, [r3, #4]
 8007034:	4a3b      	ldr	r2, [pc, #236]	@ (8007124 <UART_AdvFeatureConfig+0x14c>)
 8007036:	4013      	ands	r3, r2
 8007038:	0019      	movs	r1, r3
 800703a:	687b      	ldr	r3, [r7, #4]
 800703c:	6b1a      	ldr	r2, [r3, #48]	@ 0x30
 800703e:	687b      	ldr	r3, [r7, #4]
 8007040:	681b      	ldr	r3, [r3, #0]
 8007042:	430a      	orrs	r2, r1
 8007044:	605a      	str	r2, [r3, #4]
 8007046:	687b      	ldr	r3, [r7, #4]
 8007048:	6a9b      	ldr	r3, [r3, #40]	@ 0x28
 800704a:	2204      	movs	r2, #4
 800704c:	4013      	ands	r3, r2
 800704e:	d00b      	beq.n	8007068 <UART_AdvFeatureConfig+0x90>
 8007050:	687b      	ldr	r3, [r7, #4]
 8007052:	681b      	ldr	r3, [r3, #0]
 8007054:	685b      	ldr	r3, [r3, #4]
 8007056:	4a34      	ldr	r2, [pc, #208]	@ (8007128 <UART_AdvFeatureConfig+0x150>)
 8007058:	4013      	ands	r3, r2
 800705a:	0019      	movs	r1, r3
 800705c:	687b      	ldr	r3, [r7, #4]
 800705e:	6b5a      	ldr	r2, [r3, #52]	@ 0x34
 8007060:	687b      	ldr	r3, [r7, #4]
 8007062:	681b      	ldr	r3, [r3, #0]
 8007064:	430a      	orrs	r2, r1
 8007066:	605a      	str	r2, [r3, #4]
 8007068:	687b      	ldr	r3, [r7, #4]
 800706a:	6a9b      	ldr	r3, [r3, #40]	@ 0x28
 800706c:	2210      	movs	r2, #16
 800706e:	4013      	ands	r3, r2
 8007070:	d00b      	beq.n	800708a <UART_AdvFeatureConfig+0xb2>
 8007072:	687b      	ldr	r3, [r7, #4]
 8007074:	681b      	ldr	r3, [r3, #0]
 8007076:	689b      	ldr	r3, [r3, #8]
 8007078:	4a2c      	ldr	r2, [pc, #176]	@ (800712c <UART_AdvFeatureConfig+0x154>)
 800707a:	4013      	ands	r3, r2
 800707c:	0019      	movs	r1, r3
 800707e:	687b      	ldr	r3, [r7, #4]
 8007080:	6bda      	ldr	r2, [r3, #60]	@ 0x3c
 8007082:	687b      	ldr	r3, [r7, #4]
 8007084:	681b      	ldr	r3, [r3, #0]
 8007086:	430a      	orrs	r2, r1
 8007088:	609a      	str	r2, [r3, #8]
 800708a:	687b      	ldr	r3, [r7, #4]
 800708c:	6a9b      	ldr	r3, [r3, #40]	@ 0x28
 800708e:	2220      	movs	r2, #32
 8007090:	4013      	ands	r3, r2
 8007092:	d00b      	beq.n	80070ac <UART_AdvFeatureConfig+0xd4>
 8007094:	687b      	ldr	r3, [r7, #4]
 8007096:	681b      	ldr	r3, [r3, #0]
 8007098:	689b      	ldr	r3, [r3, #8]
 800709a:	4a25      	ldr	r2, [pc, #148]	@ (8007130 <UART_AdvFeatureConfig+0x158>)
 800709c:	4013      	ands	r3, r2
 800709e:	0019      	movs	r1, r3
 80070a0:	687b      	ldr	r3, [r7, #4]
 80070a2:	6c1a      	ldr	r2, [r3, #64]	@ 0x40
 80070a4:	687b      	ldr	r3, [r7, #4]
 80070a6:	681b      	ldr	r3, [r3, #0]
 80070a8:	430a      	orrs	r2, r1
 80070aa:	609a      	str	r2, [r3, #8]
 80070ac:	687b      	ldr	r3, [r7, #4]
 80070ae:	6a9b      	ldr	r3, [r3, #40]	@ 0x28
 80070b0:	2240      	movs	r2, #64	@ 0x40
 80070b2:	4013      	ands	r3, r2
 80070b4:	d01d      	beq.n	80070f2 <UART_AdvFeatureConfig+0x11a>
 80070b6:	687b      	ldr	r3, [r7, #4]
 80070b8:	681b      	ldr	r3, [r3, #0]
 80070ba:	685b      	ldr	r3, [r3, #4]
 80070bc:	4a1d      	ldr	r2, [pc, #116]	@ (8007134 <UART_AdvFeatureConfig+0x15c>)
 80070be:	4013      	ands	r3, r2
 80070c0:	0019      	movs	r1, r3
 80070c2:	687b      	ldr	r3, [r7, #4]
 80070c4:	6c5a      	ldr	r2, [r3, #68]	@ 0x44
 80070c6:	687b      	ldr	r3, [r7, #4]
 80070c8:	681b      	ldr	r3, [r3, #0]
 80070ca:	430a      	orrs	r2, r1
 80070cc:	605a      	str	r2, [r3, #4]
 80070ce:	687b      	ldr	r3, [r7, #4]
 80070d0:	6c5a      	ldr	r2, [r3, #68]	@ 0x44
 80070d2:	2380      	movs	r3, #128	@ 0x80
 80070d4:	035b      	lsls	r3, r3, #13
 80070d6:	429a      	cmp	r2, r3
 80070d8:	d10b      	bne.n	80070f2 <UART_AdvFeatureConfig+0x11a>
 80070da:	687b      	ldr	r3, [r7, #4]
 80070dc:	681b      	ldr	r3, [r3, #0]
 80070de:	685b      	ldr	r3, [r3, #4]
 80070e0:	4a15      	ldr	r2, [pc, #84]	@ (8007138 <UART_AdvFeatureConfig+0x160>)
 80070e2:	4013      	ands	r3, r2
 80070e4:	0019      	movs	r1, r3
 80070e6:	687b      	ldr	r3, [r7, #4]
 80070e8:	6c9a      	ldr	r2, [r3, #72]	@ 0x48
 80070ea:	687b      	ldr	r3, [r7, #4]
 80070ec:	681b      	ldr	r3, [r3, #0]
 80070ee:	430a      	orrs	r2, r1
 80070f0:	605a      	str	r2, [r3, #4]
 80070f2:	687b      	ldr	r3, [r7, #4]
 80070f4:	6a9b      	ldr	r3, [r3, #40]	@ 0x28
 80070f6:	2280      	movs	r2, #128	@ 0x80
 80070f8:	4013      	ands	r3, r2
 80070fa:	d00b      	beq.n	8007114 <UART_AdvFeatureConfig+0x13c>
 80070fc:	687b      	ldr	r3, [r7, #4]
 80070fe:	681b      	ldr	r3, [r3, #0]
 8007100:	685b      	ldr	r3, [r3, #4]
 8007102:	4a0e      	ldr	r2, [pc, #56]	@ (800713c <UART_AdvFeatureConfig+0x164>)
 8007104:	4013      	ands	r3, r2
 8007106:	0019      	movs	r1, r3
 8007108:	687b      	ldr	r3, [r7, #4]
 800710a:	6cda      	ldr	r2, [r3, #76]	@ 0x4c
 800710c:	687b      	ldr	r3, [r7, #4]
 800710e:	681b      	ldr	r3, [r3, #0]
 8007110:	430a      	orrs	r2, r1
 8007112:	605a      	str	r2, [r3, #4]
 8007114:	46c0      	nop			@ (mov r8, r8)
 8007116:	46bd      	mov	sp, r7
 8007118:	b002      	add	sp, #8
 800711a:	bd80      	pop	{r7, pc}
 800711c:	ffff7fff 	.word	0xffff7fff
 8007120:	fffdffff 	.word	0xfffdffff
 8007124:	fffeffff 	.word	0xfffeffff
 8007128:	fffbffff 	.word	0xfffbffff
 800712c:	ffffefff 	.word	0xffffefff
 8007130:	ffffdfff 	.word	0xffffdfff
 8007134:	ffefffff 	.word	0xffefffff
 8007138:	ff9fffff 	.word	0xff9fffff
 800713c:	fff7ffff 	.word	0xfff7ffff

08007140 <UART_CheckIdleState>:
 8007140:	b580      	push	{r7, lr}
 8007142:	b092      	sub	sp, #72	@ 0x48
 8007144:	af02      	add	r7, sp, #8
 8007146:	6078      	str	r0, [r7, #4]
 8007148:	687b      	ldr	r3, [r7, #4]
 800714a:	2290      	movs	r2, #144	@ 0x90
 800714c:	2100      	movs	r1, #0
 800714e:	5099      	str	r1, [r3, r2]
 8007150:	f7fb fd8c 	bl	8002c6c <HAL_GetTick>
 8007154:	0003      	movs	r3, r0
 8007156:	63fb      	str	r3, [r7, #60]	@ 0x3c
 8007158:	687b      	ldr	r3, [r7, #4]
 800715a:	681b      	ldr	r3, [r3, #0]
 800715c:	681b      	ldr	r3, [r3, #0]
 800715e:	2208      	movs	r2, #8
 8007160:	4013      	ands	r3, r2
 8007162:	2b08      	cmp	r3, #8
 8007164:	d12d      	bne.n	80071c2 <UART_CheckIdleState+0x82>
 8007166:	6bfb      	ldr	r3, [r7, #60]	@ 0x3c
 8007168:	2280      	movs	r2, #128	@ 0x80
 800716a:	0391      	lsls	r1, r2, #14
 800716c:	6878      	ldr	r0, [r7, #4]
 800716e:	4a47      	ldr	r2, [pc, #284]	@ (800728c <UART_CheckIdleState+0x14c>)
 8007170:	9200      	str	r2, [sp, #0]
 8007172:	2200      	movs	r2, #0
 8007174:	f000 f88e 	bl	8007294 <UART_WaitOnFlagUntilTimeout>
 8007178:	1e03      	subs	r3, r0, #0
 800717a:	d022      	beq.n	80071c2 <UART_CheckIdleState+0x82>
 800717c:	f3ef 8310 	mrs	r3, PRIMASK
 8007180:	627b      	str	r3, [r7, #36]	@ 0x24
 8007182:	6a7b      	ldr	r3, [r7, #36]	@ 0x24
 8007184:	63bb      	str	r3, [r7, #56]	@ 0x38
 8007186:	2301      	movs	r3, #1
 8007188:	62bb      	str	r3, [r7, #40]	@ 0x28
 800718a:	6abb      	ldr	r3, [r7, #40]	@ 0x28
 800718c:	f383 8810 	msr	PRIMASK, r3
 8007190:	46c0      	nop			@ (mov r8, r8)
 8007192:	687b      	ldr	r3, [r7, #4]
 8007194:	681b      	ldr	r3, [r3, #0]
 8007196:	681a      	ldr	r2, [r3, #0]
 8007198:	687b      	ldr	r3, [r7, #4]
 800719a:	681b      	ldr	r3, [r3, #0]
 800719c:	2180      	movs	r1, #128	@ 0x80
 800719e:	438a      	bics	r2, r1
 80071a0:	601a      	str	r2, [r3, #0]
 80071a2:	6bbb      	ldr	r3, [r7, #56]	@ 0x38
 80071a4:	62fb      	str	r3, [r7, #44]	@ 0x2c
 80071a6:	6afb      	ldr	r3, [r7, #44]	@ 0x2c
 80071a8:	f383 8810 	msr	PRIMASK, r3
 80071ac:	46c0      	nop			@ (mov r8, r8)
 80071ae:	687b      	ldr	r3, [r7, #4]
 80071b0:	2288      	movs	r2, #136	@ 0x88
 80071b2:	2120      	movs	r1, #32
 80071b4:	5099      	str	r1, [r3, r2]
 80071b6:	687b      	ldr	r3, [r7, #4]
 80071b8:	2284      	movs	r2, #132	@ 0x84
 80071ba:	2100      	movs	r1, #0
 80071bc:	5499      	strb	r1, [r3, r2]
 80071be:	2303      	movs	r3, #3
 80071c0:	e060      	b.n	8007284 <UART_CheckIdleState+0x144>
 80071c2:	687b      	ldr	r3, [r7, #4]
 80071c4:	681b      	ldr	r3, [r3, #0]
 80071c6:	681b      	ldr	r3, [r3, #0]
 80071c8:	2204      	movs	r2, #4
 80071ca:	4013      	ands	r3, r2
 80071cc:	2b04      	cmp	r3, #4
 80071ce:	d146      	bne.n	800725e <UART_CheckIdleState+0x11e>
 80071d0:	6bfb      	ldr	r3, [r7, #60]	@ 0x3c
 80071d2:	2280      	movs	r2, #128	@ 0x80
 80071d4:	03d1      	lsls	r1, r2, #15
 80071d6:	6878      	ldr	r0, [r7, #4]
 80071d8:	4a2c      	ldr	r2, [pc, #176]	@ (800728c <UART_CheckIdleState+0x14c>)
 80071da:	9200      	str	r2, [sp, #0]
 80071dc:	2200      	movs	r2, #0
 80071de:	f000 f859 	bl	8007294 <UART_WaitOnFlagUntilTimeout>
 80071e2:	1e03      	subs	r3, r0, #0
 80071e4:	d03b      	beq.n	800725e <UART_CheckIdleState+0x11e>
 80071e6:	f3ef 8310 	mrs	r3, PRIMASK
 80071ea:	60fb      	str	r3, [r7, #12]
 80071ec:	68fb      	ldr	r3, [r7, #12]
 80071ee:	637b      	str	r3, [r7, #52]	@ 0x34
 80071f0:	2301      	movs	r3, #1
 80071f2:	613b      	str	r3, [r7, #16]
 80071f4:	693b      	ldr	r3, [r7, #16]
 80071f6:	f383 8810 	msr	PRIMASK, r3
 80071fa:	46c0      	nop			@ (mov r8, r8)
 80071fc:	687b      	ldr	r3, [r7, #4]
 80071fe:	681b      	ldr	r3, [r3, #0]
 8007200:	681a      	ldr	r2, [r3, #0]
 8007202:	687b      	ldr	r3, [r7, #4]
 8007204:	681b      	ldr	r3, [r3, #0]
 8007206:	4922      	ldr	r1, [pc, #136]	@ (8007290 <UART_CheckIdleState+0x150>)
 8007208:	400a      	ands	r2, r1
 800720a:	601a      	str	r2, [r3, #0]
 800720c:	6b7b      	ldr	r3, [r7, #52]	@ 0x34
 800720e:	617b      	str	r3, [r7, #20]
 8007210:	697b      	ldr	r3, [r7, #20]
 8007212:	f383 8810 	msr	PRIMASK, r3
 8007216:	46c0      	nop			@ (mov r8, r8)
 8007218:	f3ef 8310 	mrs	r3, PRIMASK
 800721c:	61bb      	str	r3, [r7, #24]
 800721e:	69bb      	ldr	r3, [r7, #24]
 8007220:	633b      	str	r3, [r7, #48]	@ 0x30
 8007222:	2301      	movs	r3, #1
 8007224:	61fb      	str	r3, [r7, #28]
 8007226:	69fb      	ldr	r3, [r7, #28]
 8007228:	f383 8810 	msr	PRIMASK, r3
 800722c:	46c0      	nop			@ (mov r8, r8)
 800722e:	687b      	ldr	r3, [r7, #4]
 8007230:	681b      	ldr	r3, [r3, #0]
 8007232:	689a      	ldr	r2, [r3, #8]
 8007234:	687b      	ldr	r3, [r7, #4]
 8007236:	681b      	ldr	r3, [r3, #0]
 8007238:	2101      	movs	r1, #1
 800723a:	438a      	bics	r2, r1
 800723c:	609a      	str	r2, [r3, #8]
 800723e:	6b3b      	ldr	r3, [r7, #48]	@ 0x30
 8007240:	623b      	str	r3, [r7, #32]
 8007242:	6a3b      	ldr	r3, [r7, #32]
 8007244:	f383 8810 	msr	PRIMASK, r3
 8007248:	46c0      	nop			@ (mov r8, r8)
 800724a:	687b      	ldr	r3, [r7, #4]
 800724c:	228c      	movs	r2, #140	@ 0x8c
 800724e:	2120      	movs	r1, #32
 8007250:	5099      	str	r1, [r3, r2]
 8007252:	687b      	ldr	r3, [r7, #4]
 8007254:	2284      	movs	r2, #132	@ 0x84
 8007256:	2100      	movs	r1, #0
 8007258:	5499      	strb	r1, [r3, r2]
 800725a:	2303      	movs	r3, #3
 800725c:	e012      	b.n	8007284 <UART_CheckIdleState+0x144>
 800725e:	687b      	ldr	r3, [r7, #4]
 8007260:	2288      	movs	r2, #136	@ 0x88
 8007262:	2120      	movs	r1, #32
 8007264:	5099      	str	r1, [r3, r2]
 8007266:	687b      	ldr	r3, [r7, #4]
 8007268:	228c      	movs	r2, #140	@ 0x8c
 800726a:	2120      	movs	r1, #32
 800726c:	5099      	str	r1, [r3, r2]
 800726e:	687b      	ldr	r3, [r7, #4]
 8007270:	2200      	movs	r2, #0
 8007272:	66da      	str	r2, [r3, #108]	@ 0x6c
 8007274:	687b      	ldr	r3, [r7, #4]
 8007276:	2200      	movs	r2, #0
 8007278:	671a      	str	r2, [r3, #112]	@ 0x70
 800727a:	687b      	ldr	r3, [r7, #4]
 800727c:	2284      	movs	r2, #132	@ 0x84
 800727e:	2100      	movs	r1, #0
 8007280:	5499      	strb	r1, [r3, r2]
 8007282:	2300      	movs	r3, #0
 8007284:	0018      	movs	r0, r3
 8007286:	46bd      	mov	sp, r7
 8007288:	b010      	add	sp, #64	@ 0x40
 800728a:	bd80      	pop	{r7, pc}
 800728c:	01ffffff 	.word	0x01ffffff
 8007290:	fffffedf 	.word	0xfffffedf

08007294 <UART_WaitOnFlagUntilTimeout>:
 8007294:	b580      	push	{r7, lr}
 8007296:	b084      	sub	sp, #16
 8007298:	af00      	add	r7, sp, #0
 800729a:	60f8      	str	r0, [r7, #12]
 800729c:	60b9      	str	r1, [r7, #8]
 800729e:	603b      	str	r3, [r7, #0]
 80072a0:	1dfb      	adds	r3, r7, #7
 80072a2:	701a      	strb	r2, [r3, #0]
 80072a4:	e051      	b.n	800734a <UART_WaitOnFlagUntilTimeout+0xb6>
 80072a6:	69bb      	ldr	r3, [r7, #24]
 80072a8:	3301      	adds	r3, #1
 80072aa:	d04e      	beq.n	800734a <UART_WaitOnFlagUntilTimeout+0xb6>
 80072ac:	f7fb fcde 	bl	8002c6c <HAL_GetTick>
 80072b0:	0002      	movs	r2, r0
 80072b2:	683b      	ldr	r3, [r7, #0]
 80072b4:	1ad3      	subs	r3, r2, r3
 80072b6:	69ba      	ldr	r2, [r7, #24]
 80072b8:	429a      	cmp	r2, r3
 80072ba:	d302      	bcc.n	80072c2 <UART_WaitOnFlagUntilTimeout+0x2e>
 80072bc:	69bb      	ldr	r3, [r7, #24]
 80072be:	2b00      	cmp	r3, #0
 80072c0:	d101      	bne.n	80072c6 <UART_WaitOnFlagUntilTimeout+0x32>
 80072c2:	2303      	movs	r3, #3
 80072c4:	e051      	b.n	800736a <UART_WaitOnFlagUntilTimeout+0xd6>
 80072c6:	68fb      	ldr	r3, [r7, #12]
 80072c8:	681b      	ldr	r3, [r3, #0]
 80072ca:	681b      	ldr	r3, [r3, #0]
 80072cc:	2204      	movs	r2, #4
 80072ce:	4013      	ands	r3, r2
 80072d0:	d03b      	beq.n	800734a <UART_WaitOnFlagUntilTimeout+0xb6>
 80072d2:	68bb      	ldr	r3, [r7, #8]
 80072d4:	2b80      	cmp	r3, #128	@ 0x80
 80072d6:	d038      	beq.n	800734a <UART_WaitOnFlagUntilTimeout+0xb6>
 80072d8:	68bb      	ldr	r3, [r7, #8]
 80072da:	2b40      	cmp	r3, #64	@ 0x40
 80072dc:	d035      	beq.n	800734a <UART_WaitOnFlagUntilTimeout+0xb6>
 80072de:	68fb      	ldr	r3, [r7, #12]
 80072e0:	681b      	ldr	r3, [r3, #0]
 80072e2:	69db      	ldr	r3, [r3, #28]
 80072e4:	2208      	movs	r2, #8
 80072e6:	4013      	ands	r3, r2
 80072e8:	2b08      	cmp	r3, #8
 80072ea:	d111      	bne.n	8007310 <UART_WaitOnFlagUntilTimeout+0x7c>
 80072ec:	68fb      	ldr	r3, [r7, #12]
 80072ee:	681b      	ldr	r3, [r3, #0]
 80072f0:	2208      	movs	r2, #8
 80072f2:	621a      	str	r2, [r3, #32]
 80072f4:	68fb      	ldr	r3, [r7, #12]
 80072f6:	0018      	movs	r0, r3
 80072f8:	f000 f83c 	bl	8007374 <UART_EndRxTransfer>
 80072fc:	68fb      	ldr	r3, [r7, #12]
 80072fe:	2290      	movs	r2, #144	@ 0x90
 8007300:	2108      	movs	r1, #8
 8007302:	5099      	str	r1, [r3, r2]
 8007304:	68fb      	ldr	r3, [r7, #12]
 8007306:	2284      	movs	r2, #132	@ 0x84
 8007308:	2100      	movs	r1, #0
 800730a:	5499      	strb	r1, [r3, r2]
 800730c:	2301      	movs	r3, #1
 800730e:	e02c      	b.n	800736a <UART_WaitOnFlagUntilTimeout+0xd6>
 8007310:	68fb      	ldr	r3, [r7, #12]
 8007312:	681b      	ldr	r3, [r3, #0]
 8007314:	69da      	ldr	r2, [r3, #28]
 8007316:	2380      	movs	r3, #128	@ 0x80
 8007318:	011b      	lsls	r3, r3, #4
 800731a:	401a      	ands	r2, r3
 800731c:	2380      	movs	r3, #128	@ 0x80
 800731e:	011b      	lsls	r3, r3, #4
 8007320:	429a      	cmp	r2, r3
 8007322:	d112      	bne.n	800734a <UART_WaitOnFlagUntilTimeout+0xb6>
 8007324:	68fb      	ldr	r3, [r7, #12]
 8007326:	681b      	ldr	r3, [r3, #0]
 8007328:	2280      	movs	r2, #128	@ 0x80
 800732a:	0112      	lsls	r2, r2, #4
 800732c:	621a      	str	r2, [r3, #32]
 800732e:	68fb      	ldr	r3, [r7, #12]
 8007330:	0018      	movs	r0, r3
 8007332:	f000 f81f 	bl	8007374 <UART_EndRxTransfer>
 8007336:	68fb      	ldr	r3, [r7, #12]
 8007338:	2290      	movs	r2, #144	@ 0x90
 800733a:	2120      	movs	r1, #32
 800733c:	5099      	str	r1, [r3, r2]
 800733e:	68fb      	ldr	r3, [r7, #12]
 8007340:	2284      	movs	r2, #132	@ 0x84
 8007342:	2100      	movs	r1, #0
 8007344:	5499      	strb	r1, [r3, r2]
 8007346:	2303      	movs	r3, #3
 8007348:	e00f      	b.n	800736a <UART_WaitOnFlagUntilTimeout+0xd6>
 800734a:	68fb      	ldr	r3, [r7, #12]
 800734c:	681b      	ldr	r3, [r3, #0]
 800734e:	69db      	ldr	r3, [r3, #28]
 8007350:	68ba      	ldr	r2, [r7, #8]
 8007352:	4013      	ands	r3, r2
 8007354:	68ba      	ldr	r2, [r7, #8]
 8007356:	1ad3      	subs	r3, r2, r3
 8007358:	425a      	negs	r2, r3
 800735a:	4153      	adcs	r3, r2
 800735c:	b2db      	uxtb	r3, r3
 800735e:	001a      	movs	r2, r3
 8007360:	1dfb      	adds	r3, r7, #7
 8007362:	781b      	ldrb	r3, [r3, #0]
 8007364:	429a      	cmp	r2, r3
 8007366:	d09e      	beq.n	80072a6 <UART_WaitOnFlagUntilTimeout+0x12>
 8007368:	2300      	movs	r3, #0
 800736a:	0018      	movs	r0, r3
 800736c:	46bd      	mov	sp, r7
 800736e:	b004      	add	sp, #16
 8007370:	bd80      	pop	{r7, pc}
	...

08007374 <UART_EndRxTransfer>:
 8007374:	b580      	push	{r7, lr}
 8007376:	b08e      	sub	sp, #56	@ 0x38
 8007378:	af00      	add	r7, sp, #0
 800737a:	6078      	str	r0, [r7, #4]
 800737c:	f3ef 8310 	mrs	r3, PRIMASK
 8007380:	617b      	str	r3, [r7, #20]
 8007382:	697b      	ldr	r3, [r7, #20]
 8007384:	637b      	str	r3, [r7, #52]	@ 0x34
 8007386:	2301      	movs	r3, #1
 8007388:	61bb      	str	r3, [r7, #24]
 800738a:	69bb      	ldr	r3, [r7, #24]
 800738c:	f383 8810 	msr	PRIMASK, r3
 8007390:	46c0      	nop			@ (mov r8, r8)
 8007392:	687b      	ldr	r3, [r7, #4]
 8007394:	681b      	ldr	r3, [r3, #0]
 8007396:	681a      	ldr	r2, [r3, #0]
 8007398:	687b      	ldr	r3, [r7, #4]
 800739a:	681b      	ldr	r3, [r3, #0]
 800739c:	4926      	ldr	r1, [pc, #152]	@ (8007438 <UART_EndRxTransfer+0xc4>)
 800739e:	400a      	ands	r2, r1
 80073a0:	601a      	str	r2, [r3, #0]
 80073a2:	6b7b      	ldr	r3, [r7, #52]	@ 0x34
 80073a4:	61fb      	str	r3, [r7, #28]
 80073a6:	69fb      	ldr	r3, [r7, #28]
 80073a8:	f383 8810 	msr	PRIMASK, r3
 80073ac:	46c0      	nop			@ (mov r8, r8)
 80073ae:	f3ef 8310 	mrs	r3, PRIMASK
 80073b2:	623b      	str	r3, [r7, #32]
 80073b4:	6a3b      	ldr	r3, [r7, #32]
 80073b6:	633b      	str	r3, [r7, #48]	@ 0x30
 80073b8:	2301      	movs	r3, #1
 80073ba:	627b      	str	r3, [r7, #36]	@ 0x24
 80073bc:	6a7b      	ldr	r3, [r7, #36]	@ 0x24
 80073be:	f383 8810 	msr	PRIMASK, r3
 80073c2:	46c0      	nop			@ (mov r8, r8)
 80073c4:	687b      	ldr	r3, [r7, #4]
 80073c6:	681b      	ldr	r3, [r3, #0]
 80073c8:	689a      	ldr	r2, [r3, #8]
 80073ca:	687b      	ldr	r3, [r7, #4]
 80073cc:	681b      	ldr	r3, [r3, #0]
 80073ce:	491b      	ldr	r1, [pc, #108]	@ (800743c <UART_EndRxTransfer+0xc8>)
 80073d0:	400a      	ands	r2, r1
 80073d2:	609a      	str	r2, [r3, #8]
 80073d4:	6b3b      	ldr	r3, [r7, #48]	@ 0x30
 80073d6:	62bb      	str	r3, [r7, #40]	@ 0x28
 80073d8:	6abb      	ldr	r3, [r7, #40]	@ 0x28
 80073da:	f383 8810 	msr	PRIMASK, r3
 80073de:	46c0      	nop			@ (mov r8, r8)
 80073e0:	687b      	ldr	r3, [r7, #4]
 80073e2:	6edb      	ldr	r3, [r3, #108]	@ 0x6c
 80073e4:	2b01      	cmp	r3, #1
 80073e6:	d118      	bne.n	800741a <UART_EndRxTransfer+0xa6>
 80073e8:	f3ef 8310 	mrs	r3, PRIMASK
 80073ec:	60bb      	str	r3, [r7, #8]
 80073ee:	68bb      	ldr	r3, [r7, #8]
 80073f0:	62fb      	str	r3, [r7, #44]	@ 0x2c
 80073f2:	2301      	movs	r3, #1
 80073f4:	60fb      	str	r3, [r7, #12]
 80073f6:	68fb      	ldr	r3, [r7, #12]
 80073f8:	f383 8810 	msr	PRIMASK, r3
 80073fc:	46c0      	nop			@ (mov r8, r8)
 80073fe:	687b      	ldr	r3, [r7, #4]
 8007400:	681b      	ldr	r3, [r3, #0]
 8007402:	681a      	ldr	r2, [r3, #0]
 8007404:	687b      	ldr	r3, [r7, #4]
 8007406:	681b      	ldr	r3, [r3, #0]
 8007408:	2110      	movs	r1, #16
 800740a:	438a      	bics	r2, r1
 800740c:	601a      	str	r2, [r3, #0]
 800740e:	6afb      	ldr	r3, [r7, #44]	@ 0x2c
 8007410:	613b      	str	r3, [r7, #16]
 8007412:	693b      	ldr	r3, [r7, #16]
 8007414:	f383 8810 	msr	PRIMASK, r3
 8007418:	46c0      	nop			@ (mov r8, r8)
 800741a:	687b      	ldr	r3, [r7, #4]
 800741c:	228c      	movs	r2, #140	@ 0x8c
 800741e:	2120      	movs	r1, #32
 8007420:	5099      	str	r1, [r3, r2]
 8007422:	687b      	ldr	r3, [r7, #4]
 8007424:	2200      	movs	r2, #0
 8007426:	66da      	str	r2, [r3, #108]	@ 0x6c
 8007428:	687b      	ldr	r3, [r7, #4]
 800742a:	2200      	movs	r2, #0
 800742c:	675a      	str	r2, [r3, #116]	@ 0x74
 800742e:	46c0      	nop			@ (mov r8, r8)
 8007430:	46bd      	mov	sp, r7
 8007432:	b00e      	add	sp, #56	@ 0x38
 8007434:	bd80      	pop	{r7, pc}
 8007436:	46c0      	nop			@ (mov r8, r8)
 8007438:	fffffedf 	.word	0xfffffedf
 800743c:	effffffe 	.word	0xeffffffe

08007440 <HAL_UARTEx_DisableFifoMode>:
 8007440:	b580      	push	{r7, lr}
 8007442:	b084      	sub	sp, #16
 8007444:	af00      	add	r7, sp, #0
 8007446:	6078      	str	r0, [r7, #4]
 8007448:	687b      	ldr	r3, [r7, #4]
 800744a:	2284      	movs	r2, #132	@ 0x84
 800744c:	5c9b      	ldrb	r3, [r3, r2]
 800744e:	2b01      	cmp	r3, #1
 8007450:	d101      	bne.n	8007456 <HAL_UARTEx_DisableFifoMode+0x16>
 8007452:	2302      	movs	r3, #2
 8007454:	e027      	b.n	80074a6 <HAL_UARTEx_DisableFifoMode+0x66>
 8007456:	687b      	ldr	r3, [r7, #4]
 8007458:	2284      	movs	r2, #132	@ 0x84
 800745a:	2101      	movs	r1, #1
 800745c:	5499      	strb	r1, [r3, r2]
 800745e:	687b      	ldr	r3, [r7, #4]
 8007460:	2288      	movs	r2, #136	@ 0x88
 8007462:	2124      	movs	r1, #36	@ 0x24
 8007464:	5099      	str	r1, [r3, r2]
 8007466:	687b      	ldr	r3, [r7, #4]
 8007468:	681b      	ldr	r3, [r3, #0]
 800746a:	681b      	ldr	r3, [r3, #0]
 800746c:	60fb      	str	r3, [r7, #12]
 800746e:	687b      	ldr	r3, [r7, #4]
 8007470:	681b      	ldr	r3, [r3, #0]
 8007472:	681a      	ldr	r2, [r3, #0]
 8007474:	687b      	ldr	r3, [r7, #4]
 8007476:	681b      	ldr	r3, [r3, #0]
 8007478:	2101      	movs	r1, #1
 800747a:	438a      	bics	r2, r1
 800747c:	601a      	str	r2, [r3, #0]
 800747e:	68fb      	ldr	r3, [r7, #12]
 8007480:	4a0b      	ldr	r2, [pc, #44]	@ (80074b0 <HAL_UARTEx_DisableFifoMode+0x70>)
 8007482:	4013      	ands	r3, r2
 8007484:	60fb      	str	r3, [r7, #12]
 8007486:	687b      	ldr	r3, [r7, #4]
 8007488:	2200      	movs	r2, #0
 800748a:	665a      	str	r2, [r3, #100]	@ 0x64
 800748c:	687b      	ldr	r3, [r7, #4]
 800748e:	681b      	ldr	r3, [r3, #0]
 8007490:	68fa      	ldr	r2, [r7, #12]
 8007492:	601a      	str	r2, [r3, #0]
 8007494:	687b      	ldr	r3, [r7, #4]
 8007496:	2288      	movs	r2, #136	@ 0x88
 8007498:	2120      	movs	r1, #32
 800749a:	5099      	str	r1, [r3, r2]
 800749c:	687b      	ldr	r3, [r7, #4]
 800749e:	2284      	movs	r2, #132	@ 0x84
 80074a0:	2100      	movs	r1, #0
 80074a2:	5499      	strb	r1, [r3, r2]
 80074a4:	2300      	movs	r3, #0
 80074a6:	0018      	movs	r0, r3
 80074a8:	46bd      	mov	sp, r7
 80074aa:	b004      	add	sp, #16
 80074ac:	bd80      	pop	{r7, pc}
 80074ae:	46c0      	nop			@ (mov r8, r8)
 80074b0:	dfffffff 	.word	0xdfffffff

080074b4 <HAL_UARTEx_SetTxFifoThreshold>:
 80074b4:	b580      	push	{r7, lr}
 80074b6:	b084      	sub	sp, #16
 80074b8:	af00      	add	r7, sp, #0
 80074ba:	6078      	str	r0, [r7, #4]
 80074bc:	6039      	str	r1, [r7, #0]
 80074be:	687b      	ldr	r3, [r7, #4]
 80074c0:	2284      	movs	r2, #132	@ 0x84
 80074c2:	5c9b      	ldrb	r3, [r3, r2]
 80074c4:	2b01      	cmp	r3, #1
 80074c6:	d101      	bne.n	80074cc <HAL_UARTEx_SetTxFifoThreshold+0x18>
 80074c8:	2302      	movs	r3, #2
 80074ca:	e02e      	b.n	800752a <HAL_UARTEx_SetTxFifoThreshold+0x76>
 80074cc:	687b      	ldr	r3, [r7, #4]
 80074ce:	2284      	movs	r2, #132	@ 0x84
 80074d0:	2101      	movs	r1, #1
 80074d2:	5499      	strb	r1, [r3, r2]
 80074d4:	687b      	ldr	r3, [r7, #4]
 80074d6:	2288      	movs	r2, #136	@ 0x88
 80074d8:	2124      	movs	r1, #36	@ 0x24
 80074da:	5099      	str	r1, [r3, r2]
 80074dc:	687b      	ldr	r3, [r7, #4]
 80074de:	681b      	ldr	r3, [r3, #0]
 80074e0:	681b      	ldr	r3, [r3, #0]
 80074e2:	60fb      	str	r3, [r7, #12]
 80074e4:	687b      	ldr	r3, [r7, #4]
 80074e6:	681b      	ldr	r3, [r3, #0]
 80074e8:	681a      	ldr	r2, [r3, #0]
 80074ea:	687b      	ldr	r3, [r7, #4]
 80074ec:	681b      	ldr	r3, [r3, #0]
 80074ee:	2101      	movs	r1, #1
 80074f0:	438a      	bics	r2, r1
 80074f2:	601a      	str	r2, [r3, #0]
 80074f4:	687b      	ldr	r3, [r7, #4]
 80074f6:	681b      	ldr	r3, [r3, #0]
 80074f8:	689b      	ldr	r3, [r3, #8]
 80074fa:	00db      	lsls	r3, r3, #3
 80074fc:	08d9      	lsrs	r1, r3, #3
 80074fe:	687b      	ldr	r3, [r7, #4]
 8007500:	681b      	ldr	r3, [r3, #0]
 8007502:	683a      	ldr	r2, [r7, #0]
 8007504:	430a      	orrs	r2, r1
 8007506:	609a      	str	r2, [r3, #8]
 8007508:	687b      	ldr	r3, [r7, #4]
 800750a:	0018      	movs	r0, r3
 800750c:	f000 f854 	bl	80075b8 <UARTEx_SetNbDataToProcess>
 8007510:	687b      	ldr	r3, [r7, #4]
 8007512:	681b      	ldr	r3, [r3, #0]
 8007514:	68fa      	ldr	r2, [r7, #12]
 8007516:	601a      	str	r2, [r3, #0]
 8007518:	687b      	ldr	r3, [r7, #4]
 800751a:	2288      	movs	r2, #136	@ 0x88
 800751c:	2120      	movs	r1, #32
 800751e:	5099      	str	r1, [r3, r2]
 8007520:	687b      	ldr	r3, [r7, #4]
 8007522:	2284      	movs	r2, #132	@ 0x84
 8007524:	2100      	movs	r1, #0
 8007526:	5499      	strb	r1, [r3, r2]
 8007528:	2300      	movs	r3, #0
 800752a:	0018      	movs	r0, r3
 800752c:	46bd      	mov	sp, r7
 800752e:	b004      	add	sp, #16
 8007530:	bd80      	pop	{r7, pc}
	...

08007534 <HAL_UARTEx_SetRxFifoThreshold>:
 8007534:	b580      	push	{r7, lr}
 8007536:	b084      	sub	sp, #16
 8007538:	af00      	add	r7, sp, #0
 800753a:	6078      	str	r0, [r7, #4]
 800753c:	6039      	str	r1, [r7, #0]
 800753e:	687b      	ldr	r3, [r7, #4]
 8007540:	2284      	movs	r2, #132	@ 0x84
 8007542:	5c9b      	ldrb	r3, [r3, r2]
 8007544:	2b01      	cmp	r3, #1
 8007546:	d101      	bne.n	800754c <HAL_UARTEx_SetRxFifoThreshold+0x18>
 8007548:	2302      	movs	r3, #2
 800754a:	e02f      	b.n	80075ac <HAL_UARTEx_SetRxFifoThreshold+0x78>
 800754c:	687b      	ldr	r3, [r7, #4]
 800754e:	2284      	movs	r2, #132	@ 0x84
 8007550:	2101      	movs	r1, #1
 8007552:	5499      	strb	r1, [r3, r2]
 8007554:	687b      	ldr	r3, [r7, #4]
 8007556:	2288      	movs	r2, #136	@ 0x88
 8007558:	2124      	movs	r1, #36	@ 0x24
 800755a:	5099      	str	r1, [r3, r2]
 800755c:	687b      	ldr	r3, [r7, #4]
 800755e:	681b      	ldr	r3, [r3, #0]
 8007560:	681b      	ldr	r3, [r3, #0]
 8007562:	60fb      	str	r3, [r7, #12]
 8007564:	687b      	ldr	r3, [r7, #4]
 8007566:	681b      	ldr	r3, [r3, #0]
 8007568:	681a      	ldr	r2, [r3, #0]
 800756a:	687b      	ldr	r3, [r7, #4]
 800756c:	681b      	ldr	r3, [r3, #0]
 800756e:	2101      	movs	r1, #1
 8007570:	438a      	bics	r2, r1
 8007572:	601a      	str	r2, [r3, #0]
 8007574:	687b      	ldr	r3, [r7, #4]
 8007576:	681b      	ldr	r3, [r3, #0]
 8007578:	689b      	ldr	r3, [r3, #8]
 800757a:	4a0e      	ldr	r2, [pc, #56]	@ (80075b4 <HAL_UARTEx_SetRxFifoThreshold+0x80>)
 800757c:	4013      	ands	r3, r2
 800757e:	0019      	movs	r1, r3
 8007580:	687b      	ldr	r3, [r7, #4]
 8007582:	681b      	ldr	r3, [r3, #0]
 8007584:	683a      	ldr	r2, [r7, #0]
 8007586:	430a      	orrs	r2, r1
 8007588:	609a      	str	r2, [r3, #8]
 800758a:	687b      	ldr	r3, [r7, #4]
 800758c:	0018      	movs	r0, r3
 800758e:	f000 f813 	bl	80075b8 <UARTEx_SetNbDataToProcess>
 8007592:	687b      	ldr	r3, [r7, #4]
 8007594:	681b      	ldr	r3, [r3, #0]
 8007596:	68fa      	ldr	r2, [r7, #12]
 8007598:	601a      	str	r2, [r3, #0]
 800759a:	687b      	ldr	r3, [r7, #4]
 800759c:	2288      	movs	r2, #136	@ 0x88
 800759e:	2120      	movs	r1, #32
 80075a0:	5099      	str	r1, [r3, r2]
 80075a2:	687b      	ldr	r3, [r7, #4]
 80075a4:	2284      	movs	r2, #132	@ 0x84
 80075a6:	2100      	movs	r1, #0
 80075a8:	5499      	strb	r1, [r3, r2]
 80075aa:	2300      	movs	r3, #0
 80075ac:	0018      	movs	r0, r3
 80075ae:	46bd      	mov	sp, r7
 80075b0:	b004      	add	sp, #16
 80075b2:	bd80      	pop	{r7, pc}
 80075b4:	f1ffffff 	.word	0xf1ffffff

080075b8 <UARTEx_SetNbDataToProcess>:
 80075b8:	b5f0      	push	{r4, r5, r6, r7, lr}
 80075ba:	b085      	sub	sp, #20
 80075bc:	af00      	add	r7, sp, #0
 80075be:	6078      	str	r0, [r7, #4]
 80075c0:	687b      	ldr	r3, [r7, #4]
 80075c2:	6e5b      	ldr	r3, [r3, #100]	@ 0x64
 80075c4:	2b00      	cmp	r3, #0
 80075c6:	d108      	bne.n	80075da <UARTEx_SetNbDataToProcess+0x22>
 80075c8:	687b      	ldr	r3, [r7, #4]
 80075ca:	226a      	movs	r2, #106	@ 0x6a
 80075cc:	2101      	movs	r1, #1
 80075ce:	5299      	strh	r1, [r3, r2]
 80075d0:	687b      	ldr	r3, [r7, #4]
 80075d2:	2268      	movs	r2, #104	@ 0x68
 80075d4:	2101      	movs	r1, #1
 80075d6:	5299      	strh	r1, [r3, r2]
 80075d8:	e043      	b.n	8007662 <UARTEx_SetNbDataToProcess+0xaa>
 80075da:	260f      	movs	r6, #15
 80075dc:	19bb      	adds	r3, r7, r6
 80075de:	2208      	movs	r2, #8
 80075e0:	701a      	strb	r2, [r3, #0]
 80075e2:	200e      	movs	r0, #14
 80075e4:	183b      	adds	r3, r7, r0
 80075e6:	2208      	movs	r2, #8
 80075e8:	701a      	strb	r2, [r3, #0]
 80075ea:	687b      	ldr	r3, [r7, #4]
 80075ec:	681b      	ldr	r3, [r3, #0]
 80075ee:	689b      	ldr	r3, [r3, #8]
 80075f0:	0e5b      	lsrs	r3, r3, #25
 80075f2:	b2da      	uxtb	r2, r3
 80075f4:	240d      	movs	r4, #13
 80075f6:	193b      	adds	r3, r7, r4
 80075f8:	2107      	movs	r1, #7
 80075fa:	400a      	ands	r2, r1
 80075fc:	701a      	strb	r2, [r3, #0]
 80075fe:	687b      	ldr	r3, [r7, #4]
 8007600:	681b      	ldr	r3, [r3, #0]
 8007602:	689b      	ldr	r3, [r3, #8]
 8007604:	0f5b      	lsrs	r3, r3, #29
 8007606:	b2da      	uxtb	r2, r3
 8007608:	250c      	movs	r5, #12
 800760a:	197b      	adds	r3, r7, r5
 800760c:	2107      	movs	r1, #7
 800760e:	400a      	ands	r2, r1
 8007610:	701a      	strb	r2, [r3, #0]
 8007612:	183b      	adds	r3, r7, r0
 8007614:	781b      	ldrb	r3, [r3, #0]
 8007616:	197a      	adds	r2, r7, r5
 8007618:	7812      	ldrb	r2, [r2, #0]
 800761a:	4914      	ldr	r1, [pc, #80]	@ (800766c <UARTEx_SetNbDataToProcess+0xb4>)
 800761c:	5c8a      	ldrb	r2, [r1, r2]
 800761e:	435a      	muls	r2, r3
 8007620:	0010      	movs	r0, r2
 8007622:	197b      	adds	r3, r7, r5
 8007624:	781b      	ldrb	r3, [r3, #0]
 8007626:	4a12      	ldr	r2, [pc, #72]	@ (8007670 <UARTEx_SetNbDataToProcess+0xb8>)
 8007628:	5cd3      	ldrb	r3, [r2, r3]
 800762a:	0019      	movs	r1, r3
 800762c:	f7f8 fdfe 	bl	800022c <__divsi3>
 8007630:	0003      	movs	r3, r0
 8007632:	b299      	uxth	r1, r3
 8007634:	687b      	ldr	r3, [r7, #4]
 8007636:	226a      	movs	r2, #106	@ 0x6a
 8007638:	5299      	strh	r1, [r3, r2]
 800763a:	19bb      	adds	r3, r7, r6
 800763c:	781b      	ldrb	r3, [r3, #0]
 800763e:	193a      	adds	r2, r7, r4
 8007640:	7812      	ldrb	r2, [r2, #0]
 8007642:	490a      	ldr	r1, [pc, #40]	@ (800766c <UARTEx_SetNbDataToProcess+0xb4>)
 8007644:	5c8a      	ldrb	r2, [r1, r2]
 8007646:	435a      	muls	r2, r3
 8007648:	0010      	movs	r0, r2
 800764a:	193b      	adds	r3, r7, r4
 800764c:	781b      	ldrb	r3, [r3, #0]
 800764e:	4a08      	ldr	r2, [pc, #32]	@ (8007670 <UARTEx_SetNbDataToProcess+0xb8>)
 8007650:	5cd3      	ldrb	r3, [r2, r3]
 8007652:	0019      	movs	r1, r3
 8007654:	f7f8 fdea 	bl	800022c <__divsi3>
 8007658:	0003      	movs	r3, r0
 800765a:	b299      	uxth	r1, r3
 800765c:	687b      	ldr	r3, [r7, #4]
 800765e:	2268      	movs	r2, #104	@ 0x68
 8007660:	5299      	strh	r1, [r3, r2]
 8007662:	46c0      	nop			@ (mov r8, r8)
 8007664:	46bd      	mov	sp, r7
 8007666:	b005      	add	sp, #20
 8007668:	bdf0      	pop	{r4, r5, r6, r7, pc}
 800766a:	46c0      	nop			@ (mov r8, r8)
 800766c:	080087d0 	.word	0x080087d0
 8007670:	080087d8 	.word	0x080087d8

08007674 <siprintf>:
 8007674:	b40e      	push	{r1, r2, r3}
 8007676:	b500      	push	{lr}
 8007678:	490b      	ldr	r1, [pc, #44]	@ (80076a8 <siprintf+0x34>)
 800767a:	b09c      	sub	sp, #112	@ 0x70
 800767c:	ab1d      	add	r3, sp, #116	@ 0x74
 800767e:	9002      	str	r0, [sp, #8]
 8007680:	9006      	str	r0, [sp, #24]
 8007682:	9107      	str	r1, [sp, #28]
 8007684:	9104      	str	r1, [sp, #16]
 8007686:	4809      	ldr	r0, [pc, #36]	@ (80076ac <siprintf+0x38>)
 8007688:	4909      	ldr	r1, [pc, #36]	@ (80076b0 <siprintf+0x3c>)
 800768a:	cb04      	ldmia	r3!, {r2}
 800768c:	9105      	str	r1, [sp, #20]
 800768e:	6800      	ldr	r0, [r0, #0]
 8007690:	a902      	add	r1, sp, #8
 8007692:	9301      	str	r3, [sp, #4]
 8007694:	f000 f9a8 	bl	80079e8 <_svfiprintf_r>
 8007698:	2200      	movs	r2, #0
 800769a:	9b02      	ldr	r3, [sp, #8]
 800769c:	701a      	strb	r2, [r3, #0]
 800769e:	b01c      	add	sp, #112	@ 0x70
 80076a0:	bc08      	pop	{r3}
 80076a2:	b003      	add	sp, #12
 80076a4:	4718      	bx	r3
 80076a6:	46c0      	nop			@ (mov r8, r8)
 80076a8:	7fffffff 	.word	0x7fffffff
 80076ac:	200009f0 	.word	0x200009f0
 80076b0:	ffff0208 	.word	0xffff0208

080076b4 <memset>:
 80076b4:	0003      	movs	r3, r0
 80076b6:	1882      	adds	r2, r0, r2
 80076b8:	4293      	cmp	r3, r2
 80076ba:	d100      	bne.n	80076be <memset+0xa>
 80076bc:	4770      	bx	lr
 80076be:	7019      	strb	r1, [r3, #0]
 80076c0:	3301      	adds	r3, #1
 80076c2:	e7f9      	b.n	80076b8 <memset+0x4>

080076c4 <__errno>:
 80076c4:	4b01      	ldr	r3, [pc, #4]	@ (80076cc <__errno+0x8>)
 80076c6:	6818      	ldr	r0, [r3, #0]
 80076c8:	4770      	bx	lr
 80076ca:	46c0      	nop			@ (mov r8, r8)
 80076cc:	200009f0 	.word	0x200009f0

080076d0 <__libc_init_array>:
 80076d0:	b570      	push	{r4, r5, r6, lr}
 80076d2:	2600      	movs	r6, #0
 80076d4:	4c0c      	ldr	r4, [pc, #48]	@ (8007708 <__libc_init_array+0x38>)
 80076d6:	4d0d      	ldr	r5, [pc, #52]	@ (800770c <__libc_init_array+0x3c>)
 80076d8:	1b64      	subs	r4, r4, r5
 80076da:	10a4      	asrs	r4, r4, #2
 80076dc:	42a6      	cmp	r6, r4
 80076de:	d109      	bne.n	80076f4 <__libc_init_array+0x24>
 80076e0:	2600      	movs	r6, #0
 80076e2:	f000 fc65 	bl	8007fb0 <_init>
 80076e6:	4c0a      	ldr	r4, [pc, #40]	@ (8007710 <__libc_init_array+0x40>)
 80076e8:	4d0a      	ldr	r5, [pc, #40]	@ (8007714 <__libc_init_array+0x44>)
 80076ea:	1b64      	subs	r4, r4, r5
 80076ec:	10a4      	asrs	r4, r4, #2
 80076ee:	42a6      	cmp	r6, r4
 80076f0:	d105      	bne.n	80076fe <__libc_init_array+0x2e>
 80076f2:	bd70      	pop	{r4, r5, r6, pc}
 80076f4:	00b3      	lsls	r3, r6, #2
 80076f6:	58eb      	ldr	r3, [r5, r3]
 80076f8:	4798      	blx	r3
 80076fa:	3601      	adds	r6, #1
 80076fc:	e7ee      	b.n	80076dc <__libc_init_array+0xc>
 80076fe:	00b3      	lsls	r3, r6, #2
 8007700:	58eb      	ldr	r3, [r5, r3]
 8007702:	4798      	blx	r3
 8007704:	3601      	adds	r6, #1
 8007706:	e7f2      	b.n	80076ee <__libc_init_array+0x1e>
 8007708:	0800881c 	.word	0x0800881c
 800770c:	0800881c 	.word	0x0800881c
 8007710:	08008820 	.word	0x08008820
 8007714:	0800881c 	.word	0x0800881c

08007718 <__retarget_lock_acquire_recursive>:
 8007718:	4770      	bx	lr

0800771a <__retarget_lock_release_recursive>:
 800771a:	4770      	bx	lr

0800771c <memcpy>:
 800771c:	2300      	movs	r3, #0
 800771e:	b510      	push	{r4, lr}
 8007720:	429a      	cmp	r2, r3
 8007722:	d100      	bne.n	8007726 <memcpy+0xa>
 8007724:	bd10      	pop	{r4, pc}
 8007726:	5ccc      	ldrb	r4, [r1, r3]
 8007728:	54c4      	strb	r4, [r0, r3]
 800772a:	3301      	adds	r3, #1
 800772c:	e7f8      	b.n	8007720 <memcpy+0x4>
	...

08007730 <_free_r>:
 8007730:	b570      	push	{r4, r5, r6, lr}
 8007732:	0005      	movs	r5, r0
 8007734:	1e0c      	subs	r4, r1, #0
 8007736:	d010      	beq.n	800775a <_free_r+0x2a>
 8007738:	3c04      	subs	r4, #4
 800773a:	6823      	ldr	r3, [r4, #0]
 800773c:	2b00      	cmp	r3, #0
 800773e:	da00      	bge.n	8007742 <_free_r+0x12>
 8007740:	18e4      	adds	r4, r4, r3
 8007742:	0028      	movs	r0, r5
 8007744:	f000 f8e0 	bl	8007908 <__malloc_lock>
 8007748:	4a1d      	ldr	r2, [pc, #116]	@ (80077c0 <_free_r+0x90>)
 800774a:	6813      	ldr	r3, [r2, #0]
 800774c:	2b00      	cmp	r3, #0
 800774e:	d105      	bne.n	800775c <_free_r+0x2c>
 8007750:	6063      	str	r3, [r4, #4]
 8007752:	6014      	str	r4, [r2, #0]
 8007754:	0028      	movs	r0, r5
 8007756:	f000 f8df 	bl	8007918 <__malloc_unlock>
 800775a:	bd70      	pop	{r4, r5, r6, pc}
 800775c:	42a3      	cmp	r3, r4
 800775e:	d908      	bls.n	8007772 <_free_r+0x42>
 8007760:	6820      	ldr	r0, [r4, #0]
 8007762:	1821      	adds	r1, r4, r0
 8007764:	428b      	cmp	r3, r1
 8007766:	d1f3      	bne.n	8007750 <_free_r+0x20>
 8007768:	6819      	ldr	r1, [r3, #0]
 800776a:	685b      	ldr	r3, [r3, #4]
 800776c:	1809      	adds	r1, r1, r0
 800776e:	6021      	str	r1, [r4, #0]
 8007770:	e7ee      	b.n	8007750 <_free_r+0x20>
 8007772:	001a      	movs	r2, r3
 8007774:	685b      	ldr	r3, [r3, #4]
 8007776:	2b00      	cmp	r3, #0
 8007778:	d001      	beq.n	800777e <_free_r+0x4e>
 800777a:	42a3      	cmp	r3, r4
 800777c:	d9f9      	bls.n	8007772 <_free_r+0x42>
 800777e:	6811      	ldr	r1, [r2, #0]
 8007780:	1850      	adds	r0, r2, r1
 8007782:	42a0      	cmp	r0, r4
 8007784:	d10b      	bne.n	800779e <_free_r+0x6e>
 8007786:	6820      	ldr	r0, [r4, #0]
 8007788:	1809      	adds	r1, r1, r0
 800778a:	1850      	adds	r0, r2, r1
 800778c:	6011      	str	r1, [r2, #0]
 800778e:	4283      	cmp	r3, r0
 8007790:	d1e0      	bne.n	8007754 <_free_r+0x24>
 8007792:	6818      	ldr	r0, [r3, #0]
 8007794:	685b      	ldr	r3, [r3, #4]
 8007796:	1841      	adds	r1, r0, r1
 8007798:	6011      	str	r1, [r2, #0]
 800779a:	6053      	str	r3, [r2, #4]
 800779c:	e7da      	b.n	8007754 <_free_r+0x24>
 800779e:	42a0      	cmp	r0, r4
 80077a0:	d902      	bls.n	80077a8 <_free_r+0x78>
 80077a2:	230c      	movs	r3, #12
 80077a4:	602b      	str	r3, [r5, #0]
 80077a6:	e7d5      	b.n	8007754 <_free_r+0x24>
 80077a8:	6820      	ldr	r0, [r4, #0]
 80077aa:	1821      	adds	r1, r4, r0
 80077ac:	428b      	cmp	r3, r1
 80077ae:	d103      	bne.n	80077b8 <_free_r+0x88>
 80077b0:	6819      	ldr	r1, [r3, #0]
 80077b2:	685b      	ldr	r3, [r3, #4]
 80077b4:	1809      	adds	r1, r1, r0
 80077b6:	6021      	str	r1, [r4, #0]
 80077b8:	6063      	str	r3, [r4, #4]
 80077ba:	6054      	str	r4, [r2, #4]
 80077bc:	e7ca      	b.n	8007754 <_free_r+0x24>
 80077be:	46c0      	nop			@ (mov r8, r8)
 80077c0:	20001078 	.word	0x20001078

080077c4 <sbrk_aligned>:
 80077c4:	b570      	push	{r4, r5, r6, lr}
 80077c6:	4e0f      	ldr	r6, [pc, #60]	@ (8007804 <sbrk_aligned+0x40>)
 80077c8:	000d      	movs	r5, r1
 80077ca:	6831      	ldr	r1, [r6, #0]
 80077cc:	0004      	movs	r4, r0
 80077ce:	2900      	cmp	r1, #0
 80077d0:	d102      	bne.n	80077d8 <sbrk_aligned+0x14>
 80077d2:	f000 fb99 	bl	8007f08 <_sbrk_r>
 80077d6:	6030      	str	r0, [r6, #0]
 80077d8:	0029      	movs	r1, r5
 80077da:	0020      	movs	r0, r4
 80077dc:	f000 fb94 	bl	8007f08 <_sbrk_r>
 80077e0:	1c43      	adds	r3, r0, #1
 80077e2:	d103      	bne.n	80077ec <sbrk_aligned+0x28>
 80077e4:	2501      	movs	r5, #1
 80077e6:	426d      	negs	r5, r5
 80077e8:	0028      	movs	r0, r5
 80077ea:	bd70      	pop	{r4, r5, r6, pc}
 80077ec:	2303      	movs	r3, #3
 80077ee:	1cc5      	adds	r5, r0, #3
 80077f0:	439d      	bics	r5, r3
 80077f2:	42a8      	cmp	r0, r5
 80077f4:	d0f8      	beq.n	80077e8 <sbrk_aligned+0x24>
 80077f6:	1a29      	subs	r1, r5, r0
 80077f8:	0020      	movs	r0, r4
 80077fa:	f000 fb85 	bl	8007f08 <_sbrk_r>
 80077fe:	3001      	adds	r0, #1
 8007800:	d1f2      	bne.n	80077e8 <sbrk_aligned+0x24>
 8007802:	e7ef      	b.n	80077e4 <sbrk_aligned+0x20>
 8007804:	20001074 	.word	0x20001074

08007808 <_malloc_r>:
 8007808:	b5f7      	push	{r0, r1, r2, r4, r5, r6, r7, lr}
 800780a:	2203      	movs	r2, #3
 800780c:	1ccb      	adds	r3, r1, #3
 800780e:	4393      	bics	r3, r2
 8007810:	3308      	adds	r3, #8
 8007812:	0005      	movs	r5, r0
 8007814:	001f      	movs	r7, r3
 8007816:	2b0c      	cmp	r3, #12
 8007818:	d234      	bcs.n	8007884 <_malloc_r+0x7c>
 800781a:	270c      	movs	r7, #12
 800781c:	42b9      	cmp	r1, r7
 800781e:	d833      	bhi.n	8007888 <_malloc_r+0x80>
 8007820:	0028      	movs	r0, r5
 8007822:	f000 f871 	bl	8007908 <__malloc_lock>
 8007826:	4e37      	ldr	r6, [pc, #220]	@ (8007904 <_malloc_r+0xfc>)
 8007828:	6833      	ldr	r3, [r6, #0]
 800782a:	001c      	movs	r4, r3
 800782c:	2c00      	cmp	r4, #0
 800782e:	d12f      	bne.n	8007890 <_malloc_r+0x88>
 8007830:	0039      	movs	r1, r7
 8007832:	0028      	movs	r0, r5
 8007834:	f7ff ffc6 	bl	80077c4 <sbrk_aligned>
 8007838:	0004      	movs	r4, r0
 800783a:	1c43      	adds	r3, r0, #1
 800783c:	d15f      	bne.n	80078fe <_malloc_r+0xf6>
 800783e:	6834      	ldr	r4, [r6, #0]
 8007840:	9400      	str	r4, [sp, #0]
 8007842:	9b00      	ldr	r3, [sp, #0]
 8007844:	2b00      	cmp	r3, #0
 8007846:	d14a      	bne.n	80078de <_malloc_r+0xd6>
 8007848:	2c00      	cmp	r4, #0
 800784a:	d052      	beq.n	80078f2 <_malloc_r+0xea>
 800784c:	6823      	ldr	r3, [r4, #0]
 800784e:	0028      	movs	r0, r5
 8007850:	18e3      	adds	r3, r4, r3
 8007852:	9900      	ldr	r1, [sp, #0]
 8007854:	9301      	str	r3, [sp, #4]
 8007856:	f000 fb57 	bl	8007f08 <_sbrk_r>
 800785a:	9b01      	ldr	r3, [sp, #4]
 800785c:	4283      	cmp	r3, r0
 800785e:	d148      	bne.n	80078f2 <_malloc_r+0xea>
 8007860:	6823      	ldr	r3, [r4, #0]
 8007862:	0028      	movs	r0, r5
 8007864:	1aff      	subs	r7, r7, r3
 8007866:	0039      	movs	r1, r7
 8007868:	f7ff ffac 	bl	80077c4 <sbrk_aligned>
 800786c:	3001      	adds	r0, #1
 800786e:	d040      	beq.n	80078f2 <_malloc_r+0xea>
 8007870:	6823      	ldr	r3, [r4, #0]
 8007872:	19db      	adds	r3, r3, r7
 8007874:	6023      	str	r3, [r4, #0]
 8007876:	6833      	ldr	r3, [r6, #0]
 8007878:	685a      	ldr	r2, [r3, #4]
 800787a:	2a00      	cmp	r2, #0
 800787c:	d133      	bne.n	80078e6 <_malloc_r+0xde>
 800787e:	9b00      	ldr	r3, [sp, #0]
 8007880:	6033      	str	r3, [r6, #0]
 8007882:	e019      	b.n	80078b8 <_malloc_r+0xb0>
 8007884:	2b00      	cmp	r3, #0
 8007886:	dac9      	bge.n	800781c <_malloc_r+0x14>
 8007888:	230c      	movs	r3, #12
 800788a:	602b      	str	r3, [r5, #0]
 800788c:	2000      	movs	r0, #0
 800788e:	bdfe      	pop	{r1, r2, r3, r4, r5, r6, r7, pc}
 8007890:	6821      	ldr	r1, [r4, #0]
 8007892:	1bc9      	subs	r1, r1, r7
 8007894:	d420      	bmi.n	80078d8 <_malloc_r+0xd0>
 8007896:	290b      	cmp	r1, #11
 8007898:	d90a      	bls.n	80078b0 <_malloc_r+0xa8>
 800789a:	19e2      	adds	r2, r4, r7
 800789c:	6027      	str	r7, [r4, #0]
 800789e:	42a3      	cmp	r3, r4
 80078a0:	d104      	bne.n	80078ac <_malloc_r+0xa4>
 80078a2:	6032      	str	r2, [r6, #0]
 80078a4:	6863      	ldr	r3, [r4, #4]
 80078a6:	6011      	str	r1, [r2, #0]
 80078a8:	6053      	str	r3, [r2, #4]
 80078aa:	e005      	b.n	80078b8 <_malloc_r+0xb0>
 80078ac:	605a      	str	r2, [r3, #4]
 80078ae:	e7f9      	b.n	80078a4 <_malloc_r+0x9c>
 80078b0:	6862      	ldr	r2, [r4, #4]
 80078b2:	42a3      	cmp	r3, r4
 80078b4:	d10e      	bne.n	80078d4 <_malloc_r+0xcc>
 80078b6:	6032      	str	r2, [r6, #0]
 80078b8:	0028      	movs	r0, r5
 80078ba:	f000 f82d 	bl	8007918 <__malloc_unlock>
 80078be:	0020      	movs	r0, r4
 80078c0:	2207      	movs	r2, #7
 80078c2:	300b      	adds	r0, #11
 80078c4:	1d23      	adds	r3, r4, #4
 80078c6:	4390      	bics	r0, r2
 80078c8:	1ac2      	subs	r2, r0, r3
 80078ca:	4298      	cmp	r0, r3
 80078cc:	d0df      	beq.n	800788e <_malloc_r+0x86>
 80078ce:	1a1b      	subs	r3, r3, r0
 80078d0:	50a3      	str	r3, [r4, r2]
 80078d2:	e7dc      	b.n	800788e <_malloc_r+0x86>
 80078d4:	605a      	str	r2, [r3, #4]
 80078d6:	e7ef      	b.n	80078b8 <_malloc_r+0xb0>
 80078d8:	0023      	movs	r3, r4
 80078da:	6864      	ldr	r4, [r4, #4]
 80078dc:	e7a6      	b.n	800782c <_malloc_r+0x24>
 80078de:	9c00      	ldr	r4, [sp, #0]
 80078e0:	6863      	ldr	r3, [r4, #4]
 80078e2:	9300      	str	r3, [sp, #0]
 80078e4:	e7ad      	b.n	8007842 <_malloc_r+0x3a>
 80078e6:	001a      	movs	r2, r3
 80078e8:	685b      	ldr	r3, [r3, #4]
 80078ea:	42a3      	cmp	r3, r4
 80078ec:	d1fb      	bne.n	80078e6 <_malloc_r+0xde>
 80078ee:	2300      	movs	r3, #0
 80078f0:	e7da      	b.n	80078a8 <_malloc_r+0xa0>
 80078f2:	230c      	movs	r3, #12
 80078f4:	0028      	movs	r0, r5
 80078f6:	602b      	str	r3, [r5, #0]
 80078f8:	f000 f80e 	bl	8007918 <__malloc_unlock>
 80078fc:	e7c6      	b.n	800788c <_malloc_r+0x84>
 80078fe:	6007      	str	r7, [r0, #0]
 8007900:	e7da      	b.n	80078b8 <_malloc_r+0xb0>
 8007902:	46c0      	nop			@ (mov r8, r8)
 8007904:	20001078 	.word	0x20001078

08007908 <__malloc_lock>:
 8007908:	b510      	push	{r4, lr}
 800790a:	4802      	ldr	r0, [pc, #8]	@ (8007914 <__malloc_lock+0xc>)
 800790c:	f7ff ff04 	bl	8007718 <__retarget_lock_acquire_recursive>
 8007910:	bd10      	pop	{r4, pc}
 8007912:	46c0      	nop			@ (mov r8, r8)
 8007914:	20001070 	.word	0x20001070

08007918 <__malloc_unlock>:
 8007918:	b510      	push	{r4, lr}
 800791a:	4802      	ldr	r0, [pc, #8]	@ (8007924 <__malloc_unlock+0xc>)
 800791c:	f7ff fefd 	bl	800771a <__retarget_lock_release_recursive>
 8007920:	bd10      	pop	{r4, pc}
 8007922:	46c0      	nop			@ (mov r8, r8)
 8007924:	20001070 	.word	0x20001070

08007928 <__ssputs_r>:
 8007928:	b5f0      	push	{r4, r5, r6, r7, lr}
 800792a:	688e      	ldr	r6, [r1, #8]
 800792c:	b085      	sub	sp, #20
 800792e:	001f      	movs	r7, r3
 8007930:	000c      	movs	r4, r1
 8007932:	680b      	ldr	r3, [r1, #0]
 8007934:	9002      	str	r0, [sp, #8]
 8007936:	9203      	str	r2, [sp, #12]
 8007938:	42be      	cmp	r6, r7
 800793a:	d830      	bhi.n	800799e <__ssputs_r+0x76>
 800793c:	210c      	movs	r1, #12
 800793e:	5e62      	ldrsh	r2, [r4, r1]
 8007940:	2190      	movs	r1, #144	@ 0x90
 8007942:	00c9      	lsls	r1, r1, #3
 8007944:	420a      	tst	r2, r1
 8007946:	d028      	beq.n	800799a <__ssputs_r+0x72>
 8007948:	2003      	movs	r0, #3
 800794a:	6921      	ldr	r1, [r4, #16]
 800794c:	1a5b      	subs	r3, r3, r1
 800794e:	9301      	str	r3, [sp, #4]
 8007950:	6963      	ldr	r3, [r4, #20]
 8007952:	4343      	muls	r3, r0
 8007954:	9801      	ldr	r0, [sp, #4]
 8007956:	0fdd      	lsrs	r5, r3, #31
 8007958:	18ed      	adds	r5, r5, r3
 800795a:	1c7b      	adds	r3, r7, #1
 800795c:	181b      	adds	r3, r3, r0
 800795e:	106d      	asrs	r5, r5, #1
 8007960:	42ab      	cmp	r3, r5
 8007962:	d900      	bls.n	8007966 <__ssputs_r+0x3e>
 8007964:	001d      	movs	r5, r3
 8007966:	0552      	lsls	r2, r2, #21
 8007968:	d528      	bpl.n	80079bc <__ssputs_r+0x94>
 800796a:	0029      	movs	r1, r5
 800796c:	9802      	ldr	r0, [sp, #8]
 800796e:	f7ff ff4b 	bl	8007808 <_malloc_r>
 8007972:	1e06      	subs	r6, r0, #0
 8007974:	d02c      	beq.n	80079d0 <__ssputs_r+0xa8>
 8007976:	9a01      	ldr	r2, [sp, #4]
 8007978:	6921      	ldr	r1, [r4, #16]
 800797a:	f7ff fecf 	bl	800771c <memcpy>
 800797e:	89a2      	ldrh	r2, [r4, #12]
 8007980:	4b18      	ldr	r3, [pc, #96]	@ (80079e4 <__ssputs_r+0xbc>)
 8007982:	401a      	ands	r2, r3
 8007984:	2380      	movs	r3, #128	@ 0x80
 8007986:	4313      	orrs	r3, r2
 8007988:	81a3      	strh	r3, [r4, #12]
 800798a:	9b01      	ldr	r3, [sp, #4]
 800798c:	6126      	str	r6, [r4, #16]
 800798e:	18f6      	adds	r6, r6, r3
 8007990:	6026      	str	r6, [r4, #0]
 8007992:	003e      	movs	r6, r7
 8007994:	6165      	str	r5, [r4, #20]
 8007996:	1aed      	subs	r5, r5, r3
 8007998:	60a5      	str	r5, [r4, #8]
 800799a:	42be      	cmp	r6, r7
 800799c:	d900      	bls.n	80079a0 <__ssputs_r+0x78>
 800799e:	003e      	movs	r6, r7
 80079a0:	0032      	movs	r2, r6
 80079a2:	9903      	ldr	r1, [sp, #12]
 80079a4:	6820      	ldr	r0, [r4, #0]
 80079a6:	f000 fa9b 	bl	8007ee0 <memmove>
 80079aa:	2000      	movs	r0, #0
 80079ac:	68a3      	ldr	r3, [r4, #8]
 80079ae:	1b9b      	subs	r3, r3, r6
 80079b0:	60a3      	str	r3, [r4, #8]
 80079b2:	6823      	ldr	r3, [r4, #0]
 80079b4:	199b      	adds	r3, r3, r6
 80079b6:	6023      	str	r3, [r4, #0]
 80079b8:	b005      	add	sp, #20
 80079ba:	bdf0      	pop	{r4, r5, r6, r7, pc}
 80079bc:	002a      	movs	r2, r5
 80079be:	9802      	ldr	r0, [sp, #8]
 80079c0:	f000 fabf 	bl	8007f42 <_realloc_r>
 80079c4:	1e06      	subs	r6, r0, #0
 80079c6:	d1e0      	bne.n	800798a <__ssputs_r+0x62>
 80079c8:	6921      	ldr	r1, [r4, #16]
 80079ca:	9802      	ldr	r0, [sp, #8]
 80079cc:	f7ff feb0 	bl	8007730 <_free_r>
 80079d0:	230c      	movs	r3, #12
 80079d2:	2001      	movs	r0, #1
 80079d4:	9a02      	ldr	r2, [sp, #8]
 80079d6:	4240      	negs	r0, r0
 80079d8:	6013      	str	r3, [r2, #0]
 80079da:	89a2      	ldrh	r2, [r4, #12]
 80079dc:	3334      	adds	r3, #52	@ 0x34
 80079de:	4313      	orrs	r3, r2
 80079e0:	81a3      	strh	r3, [r4, #12]
 80079e2:	e7e9      	b.n	80079b8 <__ssputs_r+0x90>
 80079e4:	fffffb7f 	.word	0xfffffb7f

080079e8 <_svfiprintf_r>:
 80079e8:	b5f0      	push	{r4, r5, r6, r7, lr}
 80079ea:	b0a1      	sub	sp, #132	@ 0x84
 80079ec:	9003      	str	r0, [sp, #12]
 80079ee:	001d      	movs	r5, r3
 80079f0:	898b      	ldrh	r3, [r1, #12]
 80079f2:	000f      	movs	r7, r1
 80079f4:	0016      	movs	r6, r2
 80079f6:	061b      	lsls	r3, r3, #24
 80079f8:	d511      	bpl.n	8007a1e <_svfiprintf_r+0x36>
 80079fa:	690b      	ldr	r3, [r1, #16]
 80079fc:	2b00      	cmp	r3, #0
 80079fe:	d10e      	bne.n	8007a1e <_svfiprintf_r+0x36>
 8007a00:	2140      	movs	r1, #64	@ 0x40
 8007a02:	f7ff ff01 	bl	8007808 <_malloc_r>
 8007a06:	6038      	str	r0, [r7, #0]
 8007a08:	6138      	str	r0, [r7, #16]
 8007a0a:	2800      	cmp	r0, #0
 8007a0c:	d105      	bne.n	8007a1a <_svfiprintf_r+0x32>
 8007a0e:	230c      	movs	r3, #12
 8007a10:	9a03      	ldr	r2, [sp, #12]
 8007a12:	6013      	str	r3, [r2, #0]
 8007a14:	2001      	movs	r0, #1
 8007a16:	4240      	negs	r0, r0
 8007a18:	e0cf      	b.n	8007bba <_svfiprintf_r+0x1d2>
 8007a1a:	2340      	movs	r3, #64	@ 0x40
 8007a1c:	617b      	str	r3, [r7, #20]
 8007a1e:	2300      	movs	r3, #0
 8007a20:	ac08      	add	r4, sp, #32
 8007a22:	6163      	str	r3, [r4, #20]
 8007a24:	3320      	adds	r3, #32
 8007a26:	7663      	strb	r3, [r4, #25]
 8007a28:	3310      	adds	r3, #16
 8007a2a:	76a3      	strb	r3, [r4, #26]
 8007a2c:	9507      	str	r5, [sp, #28]
 8007a2e:	0035      	movs	r5, r6
 8007a30:	782b      	ldrb	r3, [r5, #0]
 8007a32:	2b00      	cmp	r3, #0
 8007a34:	d001      	beq.n	8007a3a <_svfiprintf_r+0x52>
 8007a36:	2b25      	cmp	r3, #37	@ 0x25
 8007a38:	d148      	bne.n	8007acc <_svfiprintf_r+0xe4>
 8007a3a:	1bab      	subs	r3, r5, r6
 8007a3c:	9305      	str	r3, [sp, #20]
 8007a3e:	42b5      	cmp	r5, r6
 8007a40:	d00b      	beq.n	8007a5a <_svfiprintf_r+0x72>
 8007a42:	0032      	movs	r2, r6
 8007a44:	0039      	movs	r1, r7
 8007a46:	9803      	ldr	r0, [sp, #12]
 8007a48:	f7ff ff6e 	bl	8007928 <__ssputs_r>
 8007a4c:	3001      	adds	r0, #1
 8007a4e:	d100      	bne.n	8007a52 <_svfiprintf_r+0x6a>
 8007a50:	e0ae      	b.n	8007bb0 <_svfiprintf_r+0x1c8>
 8007a52:	6963      	ldr	r3, [r4, #20]
 8007a54:	9a05      	ldr	r2, [sp, #20]
 8007a56:	189b      	adds	r3, r3, r2
 8007a58:	6163      	str	r3, [r4, #20]
 8007a5a:	782b      	ldrb	r3, [r5, #0]
 8007a5c:	2b00      	cmp	r3, #0
 8007a5e:	d100      	bne.n	8007a62 <_svfiprintf_r+0x7a>
 8007a60:	e0a6      	b.n	8007bb0 <_svfiprintf_r+0x1c8>
 8007a62:	2201      	movs	r2, #1
 8007a64:	2300      	movs	r3, #0
 8007a66:	4252      	negs	r2, r2
 8007a68:	6062      	str	r2, [r4, #4]
 8007a6a:	a904      	add	r1, sp, #16
 8007a6c:	3254      	adds	r2, #84	@ 0x54
 8007a6e:	1852      	adds	r2, r2, r1
 8007a70:	1c6e      	adds	r6, r5, #1
 8007a72:	6023      	str	r3, [r4, #0]
 8007a74:	60e3      	str	r3, [r4, #12]
 8007a76:	60a3      	str	r3, [r4, #8]
 8007a78:	7013      	strb	r3, [r2, #0]
 8007a7a:	65a3      	str	r3, [r4, #88]	@ 0x58
 8007a7c:	4b54      	ldr	r3, [pc, #336]	@ (8007bd0 <_svfiprintf_r+0x1e8>)
 8007a7e:	2205      	movs	r2, #5
 8007a80:	0018      	movs	r0, r3
 8007a82:	7831      	ldrb	r1, [r6, #0]
 8007a84:	9305      	str	r3, [sp, #20]
 8007a86:	f000 fa51 	bl	8007f2c <memchr>
 8007a8a:	1c75      	adds	r5, r6, #1
 8007a8c:	2800      	cmp	r0, #0
 8007a8e:	d11f      	bne.n	8007ad0 <_svfiprintf_r+0xe8>
 8007a90:	6822      	ldr	r2, [r4, #0]
 8007a92:	06d3      	lsls	r3, r2, #27
 8007a94:	d504      	bpl.n	8007aa0 <_svfiprintf_r+0xb8>
 8007a96:	2353      	movs	r3, #83	@ 0x53
 8007a98:	a904      	add	r1, sp, #16
 8007a9a:	185b      	adds	r3, r3, r1
 8007a9c:	2120      	movs	r1, #32
 8007a9e:	7019      	strb	r1, [r3, #0]
 8007aa0:	0713      	lsls	r3, r2, #28
 8007aa2:	d504      	bpl.n	8007aae <_svfiprintf_r+0xc6>
 8007aa4:	2353      	movs	r3, #83	@ 0x53
 8007aa6:	a904      	add	r1, sp, #16
 8007aa8:	185b      	adds	r3, r3, r1
 8007aaa:	212b      	movs	r1, #43	@ 0x2b
 8007aac:	7019      	strb	r1, [r3, #0]
 8007aae:	7833      	ldrb	r3, [r6, #0]
 8007ab0:	2b2a      	cmp	r3, #42	@ 0x2a
 8007ab2:	d016      	beq.n	8007ae2 <_svfiprintf_r+0xfa>
 8007ab4:	0035      	movs	r5, r6
 8007ab6:	2100      	movs	r1, #0
 8007ab8:	200a      	movs	r0, #10
 8007aba:	68e3      	ldr	r3, [r4, #12]
 8007abc:	782a      	ldrb	r2, [r5, #0]
 8007abe:	1c6e      	adds	r6, r5, #1
 8007ac0:	3a30      	subs	r2, #48	@ 0x30
 8007ac2:	2a09      	cmp	r2, #9
 8007ac4:	d950      	bls.n	8007b68 <_svfiprintf_r+0x180>
 8007ac6:	2900      	cmp	r1, #0
 8007ac8:	d111      	bne.n	8007aee <_svfiprintf_r+0x106>
 8007aca:	e017      	b.n	8007afc <_svfiprintf_r+0x114>
 8007acc:	3501      	adds	r5, #1
 8007ace:	e7af      	b.n	8007a30 <_svfiprintf_r+0x48>
 8007ad0:	9b05      	ldr	r3, [sp, #20]
 8007ad2:	6822      	ldr	r2, [r4, #0]
 8007ad4:	1ac0      	subs	r0, r0, r3
 8007ad6:	2301      	movs	r3, #1
 8007ad8:	4083      	lsls	r3, r0
 8007ada:	4313      	orrs	r3, r2
 8007adc:	002e      	movs	r6, r5
 8007ade:	6023      	str	r3, [r4, #0]
 8007ae0:	e7cc      	b.n	8007a7c <_svfiprintf_r+0x94>
 8007ae2:	9b07      	ldr	r3, [sp, #28]
 8007ae4:	1d19      	adds	r1, r3, #4
 8007ae6:	681b      	ldr	r3, [r3, #0]
 8007ae8:	9107      	str	r1, [sp, #28]
 8007aea:	2b00      	cmp	r3, #0
 8007aec:	db01      	blt.n	8007af2 <_svfiprintf_r+0x10a>
 8007aee:	930b      	str	r3, [sp, #44]	@ 0x2c
 8007af0:	e004      	b.n	8007afc <_svfiprintf_r+0x114>
 8007af2:	425b      	negs	r3, r3
 8007af4:	60e3      	str	r3, [r4, #12]
 8007af6:	2302      	movs	r3, #2
 8007af8:	4313      	orrs	r3, r2
 8007afa:	6023      	str	r3, [r4, #0]
 8007afc:	782b      	ldrb	r3, [r5, #0]
 8007afe:	2b2e      	cmp	r3, #46	@ 0x2e
 8007b00:	d10c      	bne.n	8007b1c <_svfiprintf_r+0x134>
 8007b02:	786b      	ldrb	r3, [r5, #1]
 8007b04:	2b2a      	cmp	r3, #42	@ 0x2a
 8007b06:	d134      	bne.n	8007b72 <_svfiprintf_r+0x18a>
 8007b08:	9b07      	ldr	r3, [sp, #28]
 8007b0a:	3502      	adds	r5, #2
 8007b0c:	1d1a      	adds	r2, r3, #4
 8007b0e:	681b      	ldr	r3, [r3, #0]
 8007b10:	9207      	str	r2, [sp, #28]
 8007b12:	2b00      	cmp	r3, #0
 8007b14:	da01      	bge.n	8007b1a <_svfiprintf_r+0x132>
 8007b16:	2301      	movs	r3, #1
 8007b18:	425b      	negs	r3, r3
 8007b1a:	9309      	str	r3, [sp, #36]	@ 0x24
 8007b1c:	4e2d      	ldr	r6, [pc, #180]	@ (8007bd4 <_svfiprintf_r+0x1ec>)
 8007b1e:	2203      	movs	r2, #3
 8007b20:	0030      	movs	r0, r6
 8007b22:	7829      	ldrb	r1, [r5, #0]
 8007b24:	f000 fa02 	bl	8007f2c <memchr>
 8007b28:	2800      	cmp	r0, #0
 8007b2a:	d006      	beq.n	8007b3a <_svfiprintf_r+0x152>
 8007b2c:	2340      	movs	r3, #64	@ 0x40
 8007b2e:	1b80      	subs	r0, r0, r6
 8007b30:	4083      	lsls	r3, r0
 8007b32:	6822      	ldr	r2, [r4, #0]
 8007b34:	3501      	adds	r5, #1
 8007b36:	4313      	orrs	r3, r2
 8007b38:	6023      	str	r3, [r4, #0]
 8007b3a:	7829      	ldrb	r1, [r5, #0]
 8007b3c:	2206      	movs	r2, #6
 8007b3e:	4826      	ldr	r0, [pc, #152]	@ (8007bd8 <_svfiprintf_r+0x1f0>)
 8007b40:	1c6e      	adds	r6, r5, #1
 8007b42:	7621      	strb	r1, [r4, #24]
 8007b44:	f000 f9f2 	bl	8007f2c <memchr>
 8007b48:	2800      	cmp	r0, #0
 8007b4a:	d038      	beq.n	8007bbe <_svfiprintf_r+0x1d6>
 8007b4c:	4b23      	ldr	r3, [pc, #140]	@ (8007bdc <_svfiprintf_r+0x1f4>)
 8007b4e:	2b00      	cmp	r3, #0
 8007b50:	d122      	bne.n	8007b98 <_svfiprintf_r+0x1b0>
 8007b52:	2207      	movs	r2, #7
 8007b54:	9b07      	ldr	r3, [sp, #28]
 8007b56:	3307      	adds	r3, #7
 8007b58:	4393      	bics	r3, r2
 8007b5a:	3308      	adds	r3, #8
 8007b5c:	9307      	str	r3, [sp, #28]
 8007b5e:	6963      	ldr	r3, [r4, #20]
 8007b60:	9a04      	ldr	r2, [sp, #16]
 8007b62:	189b      	adds	r3, r3, r2
 8007b64:	6163      	str	r3, [r4, #20]
 8007b66:	e762      	b.n	8007a2e <_svfiprintf_r+0x46>
 8007b68:	4343      	muls	r3, r0
 8007b6a:	0035      	movs	r5, r6
 8007b6c:	2101      	movs	r1, #1
 8007b6e:	189b      	adds	r3, r3, r2
 8007b70:	e7a4      	b.n	8007abc <_svfiprintf_r+0xd4>
 8007b72:	2300      	movs	r3, #0
 8007b74:	200a      	movs	r0, #10
 8007b76:	0019      	movs	r1, r3
 8007b78:	3501      	adds	r5, #1
 8007b7a:	6063      	str	r3, [r4, #4]
 8007b7c:	782a      	ldrb	r2, [r5, #0]
 8007b7e:	1c6e      	adds	r6, r5, #1
 8007b80:	3a30      	subs	r2, #48	@ 0x30
 8007b82:	2a09      	cmp	r2, #9
 8007b84:	d903      	bls.n	8007b8e <_svfiprintf_r+0x1a6>
 8007b86:	2b00      	cmp	r3, #0
 8007b88:	d0c8      	beq.n	8007b1c <_svfiprintf_r+0x134>
 8007b8a:	9109      	str	r1, [sp, #36]	@ 0x24
 8007b8c:	e7c6      	b.n	8007b1c <_svfiprintf_r+0x134>
 8007b8e:	4341      	muls	r1, r0
 8007b90:	0035      	movs	r5, r6
 8007b92:	2301      	movs	r3, #1
 8007b94:	1889      	adds	r1, r1, r2
 8007b96:	e7f1      	b.n	8007b7c <_svfiprintf_r+0x194>
 8007b98:	aa07      	add	r2, sp, #28
 8007b9a:	9200      	str	r2, [sp, #0]
 8007b9c:	0021      	movs	r1, r4
 8007b9e:	003a      	movs	r2, r7
 8007ba0:	4b0f      	ldr	r3, [pc, #60]	@ (8007be0 <_svfiprintf_r+0x1f8>)
 8007ba2:	9803      	ldr	r0, [sp, #12]
 8007ba4:	e000      	b.n	8007ba8 <_svfiprintf_r+0x1c0>
 8007ba6:	bf00      	nop
 8007ba8:	9004      	str	r0, [sp, #16]
 8007baa:	9b04      	ldr	r3, [sp, #16]
 8007bac:	3301      	adds	r3, #1
 8007bae:	d1d6      	bne.n	8007b5e <_svfiprintf_r+0x176>
 8007bb0:	89bb      	ldrh	r3, [r7, #12]
 8007bb2:	980d      	ldr	r0, [sp, #52]	@ 0x34
 8007bb4:	065b      	lsls	r3, r3, #25
 8007bb6:	d500      	bpl.n	8007bba <_svfiprintf_r+0x1d2>
 8007bb8:	e72c      	b.n	8007a14 <_svfiprintf_r+0x2c>
 8007bba:	b021      	add	sp, #132	@ 0x84
 8007bbc:	bdf0      	pop	{r4, r5, r6, r7, pc}
 8007bbe:	aa07      	add	r2, sp, #28
 8007bc0:	9200      	str	r2, [sp, #0]
 8007bc2:	0021      	movs	r1, r4
 8007bc4:	003a      	movs	r2, r7
 8007bc6:	4b06      	ldr	r3, [pc, #24]	@ (8007be0 <_svfiprintf_r+0x1f8>)
 8007bc8:	9803      	ldr	r0, [sp, #12]
 8007bca:	f000 f87b 	bl	8007cc4 <_printf_i>
 8007bce:	e7eb      	b.n	8007ba8 <_svfiprintf_r+0x1c0>
 8007bd0:	080087e0 	.word	0x080087e0
 8007bd4:	080087e6 	.word	0x080087e6
 8007bd8:	080087ea 	.word	0x080087ea
 8007bdc:	00000000 	.word	0x00000000
 8007be0:	08007929 	.word	0x08007929

08007be4 <_printf_common>:
 8007be4:	b5f7      	push	{r0, r1, r2, r4, r5, r6, r7, lr}
 8007be6:	0016      	movs	r6, r2
 8007be8:	9301      	str	r3, [sp, #4]
 8007bea:	688a      	ldr	r2, [r1, #8]
 8007bec:	690b      	ldr	r3, [r1, #16]
 8007bee:	000c      	movs	r4, r1
 8007bf0:	9000      	str	r0, [sp, #0]
 8007bf2:	4293      	cmp	r3, r2
 8007bf4:	da00      	bge.n	8007bf8 <_printf_common+0x14>
 8007bf6:	0013      	movs	r3, r2
 8007bf8:	0022      	movs	r2, r4
 8007bfa:	6033      	str	r3, [r6, #0]
 8007bfc:	3243      	adds	r2, #67	@ 0x43
 8007bfe:	7812      	ldrb	r2, [r2, #0]
 8007c00:	2a00      	cmp	r2, #0
 8007c02:	d001      	beq.n	8007c08 <_printf_common+0x24>
 8007c04:	3301      	adds	r3, #1
 8007c06:	6033      	str	r3, [r6, #0]
 8007c08:	6823      	ldr	r3, [r4, #0]
 8007c0a:	069b      	lsls	r3, r3, #26
 8007c0c:	d502      	bpl.n	8007c14 <_printf_common+0x30>
 8007c0e:	6833      	ldr	r3, [r6, #0]
 8007c10:	3302      	adds	r3, #2
 8007c12:	6033      	str	r3, [r6, #0]
 8007c14:	6822      	ldr	r2, [r4, #0]
 8007c16:	2306      	movs	r3, #6
 8007c18:	0015      	movs	r5, r2
 8007c1a:	401d      	ands	r5, r3
 8007c1c:	421a      	tst	r2, r3
 8007c1e:	d027      	beq.n	8007c70 <_printf_common+0x8c>
 8007c20:	0023      	movs	r3, r4
 8007c22:	3343      	adds	r3, #67	@ 0x43
 8007c24:	781b      	ldrb	r3, [r3, #0]
 8007c26:	1e5a      	subs	r2, r3, #1
 8007c28:	4193      	sbcs	r3, r2
 8007c2a:	6822      	ldr	r2, [r4, #0]
 8007c2c:	0692      	lsls	r2, r2, #26
 8007c2e:	d430      	bmi.n	8007c92 <_printf_common+0xae>
 8007c30:	0022      	movs	r2, r4
 8007c32:	9901      	ldr	r1, [sp, #4]
 8007c34:	9800      	ldr	r0, [sp, #0]
 8007c36:	9d08      	ldr	r5, [sp, #32]
 8007c38:	3243      	adds	r2, #67	@ 0x43
 8007c3a:	47a8      	blx	r5
 8007c3c:	3001      	adds	r0, #1
 8007c3e:	d025      	beq.n	8007c8c <_printf_common+0xa8>
 8007c40:	2206      	movs	r2, #6
 8007c42:	6823      	ldr	r3, [r4, #0]
 8007c44:	2500      	movs	r5, #0
 8007c46:	4013      	ands	r3, r2
 8007c48:	2b04      	cmp	r3, #4
 8007c4a:	d105      	bne.n	8007c58 <_printf_common+0x74>
 8007c4c:	6833      	ldr	r3, [r6, #0]
 8007c4e:	68e5      	ldr	r5, [r4, #12]
 8007c50:	1aed      	subs	r5, r5, r3
 8007c52:	43eb      	mvns	r3, r5
 8007c54:	17db      	asrs	r3, r3, #31
 8007c56:	401d      	ands	r5, r3
 8007c58:	68a3      	ldr	r3, [r4, #8]
 8007c5a:	6922      	ldr	r2, [r4, #16]
 8007c5c:	4293      	cmp	r3, r2
 8007c5e:	dd01      	ble.n	8007c64 <_printf_common+0x80>
 8007c60:	1a9b      	subs	r3, r3, r2
 8007c62:	18ed      	adds	r5, r5, r3
 8007c64:	2600      	movs	r6, #0
 8007c66:	42b5      	cmp	r5, r6
 8007c68:	d120      	bne.n	8007cac <_printf_common+0xc8>
 8007c6a:	2000      	movs	r0, #0
 8007c6c:	e010      	b.n	8007c90 <_printf_common+0xac>
 8007c6e:	3501      	adds	r5, #1
 8007c70:	68e3      	ldr	r3, [r4, #12]
 8007c72:	6832      	ldr	r2, [r6, #0]
 8007c74:	1a9b      	subs	r3, r3, r2
 8007c76:	42ab      	cmp	r3, r5
 8007c78:	ddd2      	ble.n	8007c20 <_printf_common+0x3c>
 8007c7a:	0022      	movs	r2, r4
 8007c7c:	2301      	movs	r3, #1
 8007c7e:	9901      	ldr	r1, [sp, #4]
 8007c80:	9800      	ldr	r0, [sp, #0]
 8007c82:	9f08      	ldr	r7, [sp, #32]
 8007c84:	3219      	adds	r2, #25
 8007c86:	47b8      	blx	r7
 8007c88:	3001      	adds	r0, #1
 8007c8a:	d1f0      	bne.n	8007c6e <_printf_common+0x8a>
 8007c8c:	2001      	movs	r0, #1
 8007c8e:	4240      	negs	r0, r0
 8007c90:	bdfe      	pop	{r1, r2, r3, r4, r5, r6, r7, pc}
 8007c92:	2030      	movs	r0, #48	@ 0x30
 8007c94:	18e1      	adds	r1, r4, r3
 8007c96:	3143      	adds	r1, #67	@ 0x43
 8007c98:	7008      	strb	r0, [r1, #0]
 8007c9a:	0021      	movs	r1, r4
 8007c9c:	1c5a      	adds	r2, r3, #1
 8007c9e:	3145      	adds	r1, #69	@ 0x45
 8007ca0:	7809      	ldrb	r1, [r1, #0]
 8007ca2:	18a2      	adds	r2, r4, r2
 8007ca4:	3243      	adds	r2, #67	@ 0x43
 8007ca6:	3302      	adds	r3, #2
 8007ca8:	7011      	strb	r1, [r2, #0]
 8007caa:	e7c1      	b.n	8007c30 <_printf_common+0x4c>
 8007cac:	0022      	movs	r2, r4
 8007cae:	2301      	movs	r3, #1
 8007cb0:	9901      	ldr	r1, [sp, #4]
 8007cb2:	9800      	ldr	r0, [sp, #0]
 8007cb4:	9f08      	ldr	r7, [sp, #32]
 8007cb6:	321a      	adds	r2, #26
 8007cb8:	47b8      	blx	r7
 8007cba:	3001      	adds	r0, #1
 8007cbc:	d0e6      	beq.n	8007c8c <_printf_common+0xa8>
 8007cbe:	3601      	adds	r6, #1
 8007cc0:	e7d1      	b.n	8007c66 <_printf_common+0x82>
	...

08007cc4 <_printf_i>:
 8007cc4:	b5f0      	push	{r4, r5, r6, r7, lr}
 8007cc6:	b08b      	sub	sp, #44	@ 0x2c
 8007cc8:	9206      	str	r2, [sp, #24]
 8007cca:	000a      	movs	r2, r1
 8007ccc:	3243      	adds	r2, #67	@ 0x43
 8007cce:	9307      	str	r3, [sp, #28]
 8007cd0:	9005      	str	r0, [sp, #20]
 8007cd2:	9203      	str	r2, [sp, #12]
 8007cd4:	7e0a      	ldrb	r2, [r1, #24]
 8007cd6:	000c      	movs	r4, r1
 8007cd8:	9b10      	ldr	r3, [sp, #64]	@ 0x40
 8007cda:	2a78      	cmp	r2, #120	@ 0x78
 8007cdc:	d809      	bhi.n	8007cf2 <_printf_i+0x2e>
 8007cde:	2a62      	cmp	r2, #98	@ 0x62
 8007ce0:	d80b      	bhi.n	8007cfa <_printf_i+0x36>
 8007ce2:	2a00      	cmp	r2, #0
 8007ce4:	d100      	bne.n	8007ce8 <_printf_i+0x24>
 8007ce6:	e0bc      	b.n	8007e62 <_printf_i+0x19e>
 8007ce8:	497b      	ldr	r1, [pc, #492]	@ (8007ed8 <_printf_i+0x214>)
 8007cea:	9104      	str	r1, [sp, #16]
 8007cec:	2a58      	cmp	r2, #88	@ 0x58
 8007cee:	d100      	bne.n	8007cf2 <_printf_i+0x2e>
 8007cf0:	e090      	b.n	8007e14 <_printf_i+0x150>
 8007cf2:	0025      	movs	r5, r4
 8007cf4:	3542      	adds	r5, #66	@ 0x42
 8007cf6:	702a      	strb	r2, [r5, #0]
 8007cf8:	e022      	b.n	8007d40 <_printf_i+0x7c>
 8007cfa:	0010      	movs	r0, r2
 8007cfc:	3863      	subs	r0, #99	@ 0x63
 8007cfe:	2815      	cmp	r0, #21
 8007d00:	d8f7      	bhi.n	8007cf2 <_printf_i+0x2e>
 8007d02:	f7f8 f9ff 	bl	8000104 <__gnu_thumb1_case_shi>
 8007d06:	0016      	.short	0x0016
 8007d08:	fff6001f 	.word	0xfff6001f
 8007d0c:	fff6fff6 	.word	0xfff6fff6
 8007d10:	001ffff6 	.word	0x001ffff6
 8007d14:	fff6fff6 	.word	0xfff6fff6
 8007d18:	fff6fff6 	.word	0xfff6fff6
 8007d1c:	003600a1 	.word	0x003600a1
 8007d20:	fff60080 	.word	0xfff60080
 8007d24:	00b2fff6 	.word	0x00b2fff6
 8007d28:	0036fff6 	.word	0x0036fff6
 8007d2c:	fff6fff6 	.word	0xfff6fff6
 8007d30:	0084      	.short	0x0084
 8007d32:	0025      	movs	r5, r4
 8007d34:	681a      	ldr	r2, [r3, #0]
 8007d36:	3542      	adds	r5, #66	@ 0x42
 8007d38:	1d11      	adds	r1, r2, #4
 8007d3a:	6019      	str	r1, [r3, #0]
 8007d3c:	6813      	ldr	r3, [r2, #0]
 8007d3e:	702b      	strb	r3, [r5, #0]
 8007d40:	2301      	movs	r3, #1
 8007d42:	e0a0      	b.n	8007e86 <_printf_i+0x1c2>
 8007d44:	6818      	ldr	r0, [r3, #0]
 8007d46:	6809      	ldr	r1, [r1, #0]
 8007d48:	1d02      	adds	r2, r0, #4
 8007d4a:	060d      	lsls	r5, r1, #24
 8007d4c:	d50b      	bpl.n	8007d66 <_printf_i+0xa2>
 8007d4e:	6806      	ldr	r6, [r0, #0]
 8007d50:	601a      	str	r2, [r3, #0]
 8007d52:	2e00      	cmp	r6, #0
 8007d54:	da03      	bge.n	8007d5e <_printf_i+0x9a>
 8007d56:	232d      	movs	r3, #45	@ 0x2d
 8007d58:	9a03      	ldr	r2, [sp, #12]
 8007d5a:	4276      	negs	r6, r6
 8007d5c:	7013      	strb	r3, [r2, #0]
 8007d5e:	4b5e      	ldr	r3, [pc, #376]	@ (8007ed8 <_printf_i+0x214>)
 8007d60:	270a      	movs	r7, #10
 8007d62:	9304      	str	r3, [sp, #16]
 8007d64:	e018      	b.n	8007d98 <_printf_i+0xd4>
 8007d66:	6806      	ldr	r6, [r0, #0]
 8007d68:	601a      	str	r2, [r3, #0]
 8007d6a:	0649      	lsls	r1, r1, #25
 8007d6c:	d5f1      	bpl.n	8007d52 <_printf_i+0x8e>
 8007d6e:	b236      	sxth	r6, r6
 8007d70:	e7ef      	b.n	8007d52 <_printf_i+0x8e>
 8007d72:	6808      	ldr	r0, [r1, #0]
 8007d74:	6819      	ldr	r1, [r3, #0]
 8007d76:	c940      	ldmia	r1!, {r6}
 8007d78:	0605      	lsls	r5, r0, #24
 8007d7a:	d402      	bmi.n	8007d82 <_printf_i+0xbe>
 8007d7c:	0640      	lsls	r0, r0, #25
 8007d7e:	d500      	bpl.n	8007d82 <_printf_i+0xbe>
 8007d80:	b2b6      	uxth	r6, r6
 8007d82:	6019      	str	r1, [r3, #0]
 8007d84:	4b54      	ldr	r3, [pc, #336]	@ (8007ed8 <_printf_i+0x214>)
 8007d86:	270a      	movs	r7, #10
 8007d88:	9304      	str	r3, [sp, #16]
 8007d8a:	2a6f      	cmp	r2, #111	@ 0x6f
 8007d8c:	d100      	bne.n	8007d90 <_printf_i+0xcc>
 8007d8e:	3f02      	subs	r7, #2
 8007d90:	0023      	movs	r3, r4
 8007d92:	2200      	movs	r2, #0
 8007d94:	3343      	adds	r3, #67	@ 0x43
 8007d96:	701a      	strb	r2, [r3, #0]
 8007d98:	6863      	ldr	r3, [r4, #4]
 8007d9a:	60a3      	str	r3, [r4, #8]
 8007d9c:	2b00      	cmp	r3, #0
 8007d9e:	db03      	blt.n	8007da8 <_printf_i+0xe4>
 8007da0:	2104      	movs	r1, #4
 8007da2:	6822      	ldr	r2, [r4, #0]
 8007da4:	438a      	bics	r2, r1
 8007da6:	6022      	str	r2, [r4, #0]
 8007da8:	2e00      	cmp	r6, #0
 8007daa:	d102      	bne.n	8007db2 <_printf_i+0xee>
 8007dac:	9d03      	ldr	r5, [sp, #12]
 8007dae:	2b00      	cmp	r3, #0
 8007db0:	d00c      	beq.n	8007dcc <_printf_i+0x108>
 8007db2:	9d03      	ldr	r5, [sp, #12]
 8007db4:	0030      	movs	r0, r6
 8007db6:	0039      	movs	r1, r7
 8007db8:	f7f8 fa34 	bl	8000224 <__aeabi_uidivmod>
 8007dbc:	9b04      	ldr	r3, [sp, #16]
 8007dbe:	3d01      	subs	r5, #1
 8007dc0:	5c5b      	ldrb	r3, [r3, r1]
 8007dc2:	702b      	strb	r3, [r5, #0]
 8007dc4:	0033      	movs	r3, r6
 8007dc6:	0006      	movs	r6, r0
 8007dc8:	429f      	cmp	r7, r3
 8007dca:	d9f3      	bls.n	8007db4 <_printf_i+0xf0>
 8007dcc:	2f08      	cmp	r7, #8
 8007dce:	d109      	bne.n	8007de4 <_printf_i+0x120>
 8007dd0:	6823      	ldr	r3, [r4, #0]
 8007dd2:	07db      	lsls	r3, r3, #31
 8007dd4:	d506      	bpl.n	8007de4 <_printf_i+0x120>
 8007dd6:	6862      	ldr	r2, [r4, #4]
 8007dd8:	6923      	ldr	r3, [r4, #16]
 8007dda:	429a      	cmp	r2, r3
 8007ddc:	dc02      	bgt.n	8007de4 <_printf_i+0x120>
 8007dde:	2330      	movs	r3, #48	@ 0x30
 8007de0:	3d01      	subs	r5, #1
 8007de2:	702b      	strb	r3, [r5, #0]
 8007de4:	9b03      	ldr	r3, [sp, #12]
 8007de6:	1b5b      	subs	r3, r3, r5
 8007de8:	6123      	str	r3, [r4, #16]
 8007dea:	9b07      	ldr	r3, [sp, #28]
 8007dec:	0021      	movs	r1, r4
 8007dee:	9300      	str	r3, [sp, #0]
 8007df0:	9805      	ldr	r0, [sp, #20]
 8007df2:	9b06      	ldr	r3, [sp, #24]
 8007df4:	aa09      	add	r2, sp, #36	@ 0x24
 8007df6:	f7ff fef5 	bl	8007be4 <_printf_common>
 8007dfa:	3001      	adds	r0, #1
 8007dfc:	d148      	bne.n	8007e90 <_printf_i+0x1cc>
 8007dfe:	2001      	movs	r0, #1
 8007e00:	4240      	negs	r0, r0
 8007e02:	b00b      	add	sp, #44	@ 0x2c
 8007e04:	bdf0      	pop	{r4, r5, r6, r7, pc}
 8007e06:	2220      	movs	r2, #32
 8007e08:	6809      	ldr	r1, [r1, #0]
 8007e0a:	430a      	orrs	r2, r1
 8007e0c:	6022      	str	r2, [r4, #0]
 8007e0e:	2278      	movs	r2, #120	@ 0x78
 8007e10:	4932      	ldr	r1, [pc, #200]	@ (8007edc <_printf_i+0x218>)
 8007e12:	9104      	str	r1, [sp, #16]
 8007e14:	0021      	movs	r1, r4
 8007e16:	3145      	adds	r1, #69	@ 0x45
 8007e18:	700a      	strb	r2, [r1, #0]
 8007e1a:	6819      	ldr	r1, [r3, #0]
 8007e1c:	6822      	ldr	r2, [r4, #0]
 8007e1e:	c940      	ldmia	r1!, {r6}
 8007e20:	0610      	lsls	r0, r2, #24
 8007e22:	d402      	bmi.n	8007e2a <_printf_i+0x166>
 8007e24:	0650      	lsls	r0, r2, #25
 8007e26:	d500      	bpl.n	8007e2a <_printf_i+0x166>
 8007e28:	b2b6      	uxth	r6, r6
 8007e2a:	6019      	str	r1, [r3, #0]
 8007e2c:	07d3      	lsls	r3, r2, #31
 8007e2e:	d502      	bpl.n	8007e36 <_printf_i+0x172>
 8007e30:	2320      	movs	r3, #32
 8007e32:	4313      	orrs	r3, r2
 8007e34:	6023      	str	r3, [r4, #0]
 8007e36:	2e00      	cmp	r6, #0
 8007e38:	d001      	beq.n	8007e3e <_printf_i+0x17a>
 8007e3a:	2710      	movs	r7, #16
 8007e3c:	e7a8      	b.n	8007d90 <_printf_i+0xcc>
 8007e3e:	2220      	movs	r2, #32
 8007e40:	6823      	ldr	r3, [r4, #0]
 8007e42:	4393      	bics	r3, r2
 8007e44:	6023      	str	r3, [r4, #0]
 8007e46:	e7f8      	b.n	8007e3a <_printf_i+0x176>
 8007e48:	681a      	ldr	r2, [r3, #0]
 8007e4a:	680d      	ldr	r5, [r1, #0]
 8007e4c:	1d10      	adds	r0, r2, #4
 8007e4e:	6949      	ldr	r1, [r1, #20]
 8007e50:	6018      	str	r0, [r3, #0]
 8007e52:	6813      	ldr	r3, [r2, #0]
 8007e54:	062e      	lsls	r6, r5, #24
 8007e56:	d501      	bpl.n	8007e5c <_printf_i+0x198>
 8007e58:	6019      	str	r1, [r3, #0]
 8007e5a:	e002      	b.n	8007e62 <_printf_i+0x19e>
 8007e5c:	066d      	lsls	r5, r5, #25
 8007e5e:	d5fb      	bpl.n	8007e58 <_printf_i+0x194>
 8007e60:	8019      	strh	r1, [r3, #0]
 8007e62:	2300      	movs	r3, #0
 8007e64:	9d03      	ldr	r5, [sp, #12]
 8007e66:	6123      	str	r3, [r4, #16]
 8007e68:	e7bf      	b.n	8007dea <_printf_i+0x126>
 8007e6a:	681a      	ldr	r2, [r3, #0]
 8007e6c:	1d11      	adds	r1, r2, #4
 8007e6e:	6019      	str	r1, [r3, #0]
 8007e70:	6815      	ldr	r5, [r2, #0]
 8007e72:	2100      	movs	r1, #0
 8007e74:	0028      	movs	r0, r5
 8007e76:	6862      	ldr	r2, [r4, #4]
 8007e78:	f000 f858 	bl	8007f2c <memchr>
 8007e7c:	2800      	cmp	r0, #0
 8007e7e:	d001      	beq.n	8007e84 <_printf_i+0x1c0>
 8007e80:	1b40      	subs	r0, r0, r5
 8007e82:	6060      	str	r0, [r4, #4]
 8007e84:	6863      	ldr	r3, [r4, #4]
 8007e86:	6123      	str	r3, [r4, #16]
 8007e88:	2300      	movs	r3, #0
 8007e8a:	9a03      	ldr	r2, [sp, #12]
 8007e8c:	7013      	strb	r3, [r2, #0]
 8007e8e:	e7ac      	b.n	8007dea <_printf_i+0x126>
 8007e90:	002a      	movs	r2, r5
 8007e92:	6923      	ldr	r3, [r4, #16]
 8007e94:	9906      	ldr	r1, [sp, #24]
 8007e96:	9805      	ldr	r0, [sp, #20]
 8007e98:	9d07      	ldr	r5, [sp, #28]
 8007e9a:	47a8      	blx	r5
 8007e9c:	3001      	adds	r0, #1
 8007e9e:	d0ae      	beq.n	8007dfe <_printf_i+0x13a>
 8007ea0:	6823      	ldr	r3, [r4, #0]
 8007ea2:	079b      	lsls	r3, r3, #30
 8007ea4:	d415      	bmi.n	8007ed2 <_printf_i+0x20e>
 8007ea6:	9b09      	ldr	r3, [sp, #36]	@ 0x24
 8007ea8:	68e0      	ldr	r0, [r4, #12]
 8007eaa:	4298      	cmp	r0, r3
 8007eac:	daa9      	bge.n	8007e02 <_printf_i+0x13e>
 8007eae:	0018      	movs	r0, r3
 8007eb0:	e7a7      	b.n	8007e02 <_printf_i+0x13e>
 8007eb2:	0022      	movs	r2, r4
 8007eb4:	2301      	movs	r3, #1
 8007eb6:	9906      	ldr	r1, [sp, #24]
 8007eb8:	9805      	ldr	r0, [sp, #20]
 8007eba:	9e07      	ldr	r6, [sp, #28]
 8007ebc:	3219      	adds	r2, #25
 8007ebe:	47b0      	blx	r6
 8007ec0:	3001      	adds	r0, #1
 8007ec2:	d09c      	beq.n	8007dfe <_printf_i+0x13a>
 8007ec4:	3501      	adds	r5, #1
 8007ec6:	68e3      	ldr	r3, [r4, #12]
 8007ec8:	9a09      	ldr	r2, [sp, #36]	@ 0x24
 8007eca:	1a9b      	subs	r3, r3, r2
 8007ecc:	42ab      	cmp	r3, r5
 8007ece:	dcf0      	bgt.n	8007eb2 <_printf_i+0x1ee>
 8007ed0:	e7e9      	b.n	8007ea6 <_printf_i+0x1e2>
 8007ed2:	2500      	movs	r5, #0
 8007ed4:	e7f7      	b.n	8007ec6 <_printf_i+0x202>
 8007ed6:	46c0      	nop			@ (mov r8, r8)
 8007ed8:	080087f1 	.word	0x080087f1
 8007edc:	08008802 	.word	0x08008802

08007ee0 <memmove>:
 8007ee0:	b510      	push	{r4, lr}
 8007ee2:	4288      	cmp	r0, r1
 8007ee4:	d806      	bhi.n	8007ef4 <memmove+0x14>
 8007ee6:	2300      	movs	r3, #0
 8007ee8:	429a      	cmp	r2, r3
 8007eea:	d008      	beq.n	8007efe <memmove+0x1e>
 8007eec:	5ccc      	ldrb	r4, [r1, r3]
 8007eee:	54c4      	strb	r4, [r0, r3]
 8007ef0:	3301      	adds	r3, #1
 8007ef2:	e7f9      	b.n	8007ee8 <memmove+0x8>
 8007ef4:	188b      	adds	r3, r1, r2
 8007ef6:	4298      	cmp	r0, r3
 8007ef8:	d2f5      	bcs.n	8007ee6 <memmove+0x6>
 8007efa:	3a01      	subs	r2, #1
 8007efc:	d200      	bcs.n	8007f00 <memmove+0x20>
 8007efe:	bd10      	pop	{r4, pc}
 8007f00:	5c8b      	ldrb	r3, [r1, r2]
 8007f02:	5483      	strb	r3, [r0, r2]
 8007f04:	e7f9      	b.n	8007efa <memmove+0x1a>
	...

08007f08 <_sbrk_r>:
 8007f08:	2300      	movs	r3, #0
 8007f0a:	b570      	push	{r4, r5, r6, lr}
 8007f0c:	4d06      	ldr	r5, [pc, #24]	@ (8007f28 <_sbrk_r+0x20>)
 8007f0e:	0004      	movs	r4, r0
 8007f10:	0008      	movs	r0, r1
 8007f12:	602b      	str	r3, [r5, #0]
 8007f14:	f7fa fdc8 	bl	8002aa8 <_sbrk>
 8007f18:	1c43      	adds	r3, r0, #1
 8007f1a:	d103      	bne.n	8007f24 <_sbrk_r+0x1c>
 8007f1c:	682b      	ldr	r3, [r5, #0]
 8007f1e:	2b00      	cmp	r3, #0
 8007f20:	d000      	beq.n	8007f24 <_sbrk_r+0x1c>
 8007f22:	6023      	str	r3, [r4, #0]
 8007f24:	bd70      	pop	{r4, r5, r6, pc}
 8007f26:	46c0      	nop			@ (mov r8, r8)
 8007f28:	2000106c 	.word	0x2000106c

08007f2c <memchr>:
 8007f2c:	b2c9      	uxtb	r1, r1
 8007f2e:	1882      	adds	r2, r0, r2
 8007f30:	4290      	cmp	r0, r2
 8007f32:	d101      	bne.n	8007f38 <memchr+0xc>
 8007f34:	2000      	movs	r0, #0
 8007f36:	4770      	bx	lr
 8007f38:	7803      	ldrb	r3, [r0, #0]
 8007f3a:	428b      	cmp	r3, r1
 8007f3c:	d0fb      	beq.n	8007f36 <memchr+0xa>
 8007f3e:	3001      	adds	r0, #1
 8007f40:	e7f6      	b.n	8007f30 <memchr+0x4>

08007f42 <_realloc_r>:
 8007f42:	b5f7      	push	{r0, r1, r2, r4, r5, r6, r7, lr}
 8007f44:	0006      	movs	r6, r0
 8007f46:	000c      	movs	r4, r1
 8007f48:	0015      	movs	r5, r2
 8007f4a:	2900      	cmp	r1, #0
 8007f4c:	d105      	bne.n	8007f5a <_realloc_r+0x18>
 8007f4e:	0011      	movs	r1, r2
 8007f50:	f7ff fc5a 	bl	8007808 <_malloc_r>
 8007f54:	0004      	movs	r4, r0
 8007f56:	0020      	movs	r0, r4
 8007f58:	bdfe      	pop	{r1, r2, r3, r4, r5, r6, r7, pc}
 8007f5a:	2a00      	cmp	r2, #0
 8007f5c:	d103      	bne.n	8007f66 <_realloc_r+0x24>
 8007f5e:	f7ff fbe7 	bl	8007730 <_free_r>
 8007f62:	2400      	movs	r4, #0
 8007f64:	e7f7      	b.n	8007f56 <_realloc_r+0x14>
 8007f66:	f000 f81b 	bl	8007fa0 <_malloc_usable_size_r>
 8007f6a:	0007      	movs	r7, r0
 8007f6c:	4285      	cmp	r5, r0
 8007f6e:	d802      	bhi.n	8007f76 <_realloc_r+0x34>
 8007f70:	0843      	lsrs	r3, r0, #1
 8007f72:	42ab      	cmp	r3, r5
 8007f74:	d3ef      	bcc.n	8007f56 <_realloc_r+0x14>
 8007f76:	0029      	movs	r1, r5
 8007f78:	0030      	movs	r0, r6
 8007f7a:	f7ff fc45 	bl	8007808 <_malloc_r>
 8007f7e:	9001      	str	r0, [sp, #4]
 8007f80:	2800      	cmp	r0, #0
 8007f82:	d0ee      	beq.n	8007f62 <_realloc_r+0x20>
 8007f84:	002a      	movs	r2, r5
 8007f86:	42bd      	cmp	r5, r7
 8007f88:	d900      	bls.n	8007f8c <_realloc_r+0x4a>
 8007f8a:	003a      	movs	r2, r7
 8007f8c:	0021      	movs	r1, r4
 8007f8e:	9801      	ldr	r0, [sp, #4]
 8007f90:	f7ff fbc4 	bl	800771c <memcpy>
 8007f94:	0021      	movs	r1, r4
 8007f96:	0030      	movs	r0, r6
 8007f98:	f7ff fbca 	bl	8007730 <_free_r>
 8007f9c:	9c01      	ldr	r4, [sp, #4]
 8007f9e:	e7da      	b.n	8007f56 <_realloc_r+0x14>

08007fa0 <_malloc_usable_size_r>:
 8007fa0:	1f0b      	subs	r3, r1, #4
 8007fa2:	681b      	ldr	r3, [r3, #0]
 8007fa4:	1f18      	subs	r0, r3, #4
 8007fa6:	2b00      	cmp	r3, #0
 8007fa8:	da01      	bge.n	8007fae <_malloc_usable_size_r+0xe>
 8007faa:	580b      	ldr	r3, [r1, r0]
 8007fac:	18c0      	adds	r0, r0, r3
 8007fae:	4770      	bx	lr

08007fb0 <_init>:
 8007fb0:	b5f8      	push	{r3, r4, r5, r6, r7, lr}
 8007fb2:	46c0      	nop			@ (mov r8, r8)
 8007fb4:	bcf8      	pop	{r3, r4, r5, r6, r7}
 8007fb6:	bc08      	pop	{r3}
 8007fb8:	469e      	mov	lr, r3
 8007fba:	4770      	bx	lr

08007fbc <_fini>:
 8007fbc:	b5f8      	push	{r3, r4, r5, r6, r7, lr}
 8007fbe:	46c0      	nop			@ (mov r8, r8)
 8007fc0:	bcf8      	pop	{r3, r4, r5, r6, r7}
 8007fc2:	bc08      	pop	{r3}
 8007fc4:	469e      	mov	lr, r3
 8007fc6:	4770      	bx	lr
